	.text
	.syntax unified
	.eabi_attribute	67, "2.09"	@ Tag_conformance
	.cpu	cortex-m4
	.eabi_attribute	6, 13	@ Tag_CPU_arch
	.eabi_attribute	7, 77	@ Tag_CPU_arch_profile
	.eabi_attribute	8, 0	@ Tag_ARM_ISA_use
	.eabi_attribute	9, 2	@ Tag_THUMB_ISA_use
	.fpu	fpv4-sp-d16
	.eabi_attribute	27, 1	@ Tag_ABI_HardFP_use
	.eabi_attribute	36, 1	@ Tag_FP_HP_extension
	.eabi_attribute	34, 1	@ Tag_CPU_unaligned_access
	.eabi_attribute	17, 1	@ Tag_ABI_PCS_GOT_use
	.eabi_attribute	20, 2	@ Tag_ABI_FP_denormal
	.eabi_attribute	21, 0	@ Tag_ABI_FP_exceptions
	.eabi_attribute	23, 1	@ Tag_ABI_FP_number_model
	.eabi_attribute	24, 1	@ Tag_ABI_align_needed
	.eabi_attribute	25, 1	@ Tag_ABI_align_preserved
	.eabi_attribute	28, 1	@ Tag_ABI_VFP_args
	.eabi_attribute	38, 1	@ Tag_ABI_FP_16bit_format
	.eabi_attribute	18, 2	@ Tag_ABI_PCS_wchar_t
	.eabi_attribute	26, 1	@ Tag_ABI_enum_size
	.eabi_attribute	14, 0	@ Tag_ABI_PCS_R9_use
	.file	"usmart.c"
	.file	1 "E:\\StudyNote\\study_STM32-HAL\\STM32F4_Quick_Start_Guide_HAL\\2.code\\20.RNG-Key\\Project" "../Middlewares/USMART/usmart.c"
	.file	2 "E:\\StudyNote\\study_STM32-HAL\\STM32F4_Quick_Start_Guide_HAL\\2.code\\20.RNG-Key\\Project" "../Middlewares/USMART/usmart_port.h"
	.section	.text.usmart_sys_cmd_exe,"ax",%progbits
	.hidden	usmart_sys_cmd_exe              @ -- Begin function usmart_sys_cmd_exe
	.globl	usmart_sys_cmd_exe
	.p2align	2
	.type	usmart_sys_cmd_exe,%function
	.code	16                              @ @usmart_sys_cmd_exe
	.thumb_func
usmart_sys_cmd_exe:
.Lfunc_begin0:
	.loc	1 23 0                          @ ../Middlewares/USMART/usmart.c:23:0
	.fnstart
	.cfi_sections .debug_frame
	.cfi_startproc
@ %bb.0:
	@DEBUG_VALUE: usmart_sys_cmd_exe:str <- $r0
	.save	{r4, r5, r6, r7, r8, r9, lr}
	push.w	{r4, r5, r6, r7, r8, r9, lr}
	.cfi_def_cfa_offset 28
	.cfi_offset lr, -4
	.cfi_offset r9, -8
	.cfi_offset r8, -12
	.cfi_offset r7, -16
	.cfi_offset r6, -20
	.cfi_offset r5, -24
	.cfi_offset r4, -28
	.pad	#44
	sub	sp, #44
	.cfi_def_cfa_offset 72
	add.w	r1, sp, #13
	add.w	r2, sp, #43
.Ltmp0:
	.loc	1 29 11 prologue_end            @ ../Middlewares/USMART/usmart.c:29:11
	movs	r3, #30
	mov	r4, r0
.Ltmp1:
	@DEBUG_VALUE: usmart_sys_cmd_exe:i <- [DW_OP_plus_uconst 43, DW_OP_deref] $sp
	@DEBUG_VALUE: usmart_sys_cmd_exe:str <- $r4
	bl	usmart_get_cmdname
.Ltmp2:
	@DEBUG_VALUE: usmart_sys_cmd_exe:res <- $r0
	.loc	1 29 9 is_stmt 0                @ ../Middlewares/USMART/usmart.c:29:9
	str	r0, [sp, #4]
	.loc	1 31 9 is_stmt 1                @ ../Middlewares/USMART/usmart.c:31:9
	cbz	r0, .LBB0_2
.Ltmp3:
.LBB0_1:
	@DEBUG_VALUE: usmart_sys_cmd_exe:str <- $r4
	.loc	1 0 9 is_stmt 0                 @ ../Middlewares/USMART/usmart.c:0:9
	movs	r0, #1
	.loc	1 192 1 is_stmt 1               @ ../Middlewares/USMART/usmart.c:192:1
	add	sp, #44
	pop.w	{r4, r5, r6, r7, r8, r9, pc}
.Ltmp4:
.LBB0_2:
	@DEBUG_VALUE: usmart_sys_cmd_exe:res <- $r0
	@DEBUG_VALUE: usmart_sys_cmd_exe:str <- $r4
	@DEBUG_VALUE: usmart_sys_cmd_exe:i <- [DW_OP_plus_uconst 43, DW_OP_deref] $sp
	.loc	1 33 12                         @ ../Middlewares/USMART/usmart.c:33:12
	ldrb.w	r0, [sp, #43]
.Ltmp5:
	@DEBUG_VALUE: usmart_sys_cmd_exe:i <- undef
	.loc	1 0 12 is_stmt 0                @ ../Middlewares/USMART/usmart.c:0:12
	movw	r6, :lower16:sys_cmd_tab
	.loc	1 33 9                          @ ../Middlewares/USMART/usmart.c:33:9
	add	r4, r0
.Ltmp6:
	@DEBUG_VALUE: usmart_sys_cmd_exe:str <- $r4
	.loc	1 0 9                           @ ../Middlewares/USMART/usmart.c:0:9
	movs	r1, #0
.Ltmp7:
	@DEBUG_VALUE: usmart_sys_cmd_exe:i <- 0
	movt	r6, :upper16:sys_cmd_tab
	add.w	r5, sp, #13
.Ltmp8:
	strb.w	r1, [sp, #43]
.Ltmp9:
	.p2align	2
.LBB0_3:                                @ =>This Inner Loop Header: Depth=1
	@DEBUG_VALUE: usmart_sys_cmd_exe:str <- $r4
	@DEBUG_VALUE: usmart_sys_cmd_exe:i <- $r1
	.loc	1 35 17 is_stmt 1               @ ../Middlewares/USMART/usmart.c:35:17
	uxtb	r0, r1
.Ltmp10:
	.loc	1 37 35                         @ ../Middlewares/USMART/usmart.c:37:35
	ldr.w	r1, [r6, r0, lsl #2]
.Ltmp11:
	.loc	1 37 13 is_stmt 0               @ ../Middlewares/USMART/usmart.c:37:13
	mov	r0, r5
	bl	usmart_strcmp
.Ltmp12:
	.loc	1 0 0                           @ ../Middlewares/USMART/usmart.c:0:0
	ldrb.w	r1, [sp, #43]
.Ltmp13:
	.loc	1 37 13                         @ ../Middlewares/USMART/usmart.c:37:13
	cbz	r0, .LBB0_5
.Ltmp14:
@ %bb.4:                                @   in Loop: Header=BB0_3 Depth=1
	@DEBUG_VALUE: usmart_sys_cmd_exe:str <- $r4
	@DEBUG_VALUE: usmart_sys_cmd_exe:i <- $r1
	.loc	1 35 47 is_stmt 1               @ ../Middlewares/USMART/usmart.c:35:47
	adds	r1, #1
.Ltmp15:
	@DEBUG_VALUE: usmart_sys_cmd_exe:i <- $r1
	uxtb	r0, r1
.Ltmp16:
	.loc	1 35 5 is_stmt 0                @ ../Middlewares/USMART/usmart.c:35:5
	cmp	r0, #7
	.loc	1 0 0                           @ ../Middlewares/USMART/usmart.c:0:0
	strb.w	r1, [sp, #43]
	.loc	1 35 5                          @ ../Middlewares/USMART/usmart.c:35:5
	blo	.LBB0_3
.Ltmp17:
.LBB0_5:
	@DEBUG_VALUE: usmart_sys_cmd_exe:str <- $r4
	@DEBUG_VALUE: usmart_sys_cmd_exe:i <- undef
	.loc	1 40 5 is_stmt 1                @ ../Middlewares/USMART/usmart.c:40:5
	uxtb	r0, r1
	cmp	r0, #6
	bhi	.LBB0_1
.Ltmp18:
@ %bb.6:
	@DEBUG_VALUE: usmart_sys_cmd_exe:str <- $r4
	.loc	1 0 5 is_stmt 0                 @ ../Middlewares/USMART/usmart.c:0:5
.LCPI0_8:
	tbh	[pc, r0, lsl #1]
.Ltmp19:
@ %bb.7:
.LJTI0_0:
	.short	(.LBB0_8-(.LCPI0_8+4))/2
	.short	(.LBB0_8-(.LCPI0_8+4))/2
	.short	(.LBB0_9-(.LCPI0_8+4))/2
	.short	(.LBB0_12-(.LCPI0_8+4))/2
	.short	(.LBB0_15-(.LCPI0_8+4))/2
	.short	(.LBB0_19-(.LCPI0_8+4))/2
	.short	(.LBB0_23-(.LCPI0_8+4))/2
	.p2align	1
.LBB0_8:
.Ltmp20:
	@DEBUG_VALUE: usmart_sys_cmd_exe:str <- $r4
	.loc	1 44 13 is_stmt 1               @ ../Middlewares/USMART/usmart.c:44:13
	movw	r0, :lower16:.Lstr.65
	movt	r0, :upper16:.Lstr.65
	bl	puts
.Ltmp21:
	.loc	1 46 13                         @ ../Middlewares/USMART/usmart.c:46:13
	movw	r0, :lower16:.Lstr.66
	movt	r0, :upper16:.Lstr.66
	bl	puts
.Ltmp22:
	.loc	1 47 13                         @ ../Middlewares/USMART/usmart.c:47:13
	movw	r0, :lower16:.Lstr.67
	movt	r0, :upper16:.Lstr.67
	bl	puts
.Ltmp23:
	.loc	1 48 13                         @ ../Middlewares/USMART/usmart.c:48:13
	movw	r0, :lower16:.Lstr.68
	movt	r0, :upper16:.Lstr.68
	bl	puts
.Ltmp24:
	.loc	1 49 13                         @ ../Middlewares/USMART/usmart.c:49:13
	movw	r0, :lower16:.Lstr.69
	movt	r0, :upper16:.Lstr.69
	bl	puts
.Ltmp25:
	.loc	1 50 13                         @ ../Middlewares/USMART/usmart.c:50:13
	movw	r0, :lower16:.Lstr.70
	movt	r0, :upper16:.Lstr.70
	bl	puts
.Ltmp26:
	.loc	1 51 13                         @ ../Middlewares/USMART/usmart.c:51:13
	movw	r0, :lower16:.Lstr.71
	movt	r0, :upper16:.Lstr.71
	bl	puts
.Ltmp27:
	.loc	1 52 13                         @ ../Middlewares/USMART/usmart.c:52:13
	movw	r0, :lower16:.Lstr.72
	movt	r0, :upper16:.Lstr.72
	bl	puts
.Ltmp28:
	.loc	1 53 13                         @ ../Middlewares/USMART/usmart.c:53:13
	movw	r0, :lower16:.Lstr.73
	movt	r0, :upper16:.Lstr.73
	bl	puts
.Ltmp29:
	.loc	1 54 13                         @ ../Middlewares/USMART/usmart.c:54:13
	movw	r0, :lower16:.Lstr.74
	movt	r0, :upper16:.Lstr.74
	bl	puts
.Ltmp30:
	.loc	1 55 13                         @ ../Middlewares/USMART/usmart.c:55:13
	movw	r0, :lower16:.Lstr.75
	movt	r0, :upper16:.Lstr.75
	bl	puts
.Ltmp31:
	.loc	1 56 13                         @ ../Middlewares/USMART/usmart.c:56:13
	movw	r0, :lower16:.Lstr.76
	movt	r0, :upper16:.Lstr.76
	bl	puts
.Ltmp32:
	.loc	1 57 13                         @ ../Middlewares/USMART/usmart.c:57:13
	movw	r0, :lower16:.Lstr.77
	movt	r0, :upper16:.Lstr.77
	bl	puts
.Ltmp33:
	.loc	1 58 13                         @ ../Middlewares/USMART/usmart.c:58:13
	movw	r0, :lower16:.Lstr.78
	movt	r0, :upper16:.Lstr.78
	bl	puts
.Ltmp34:
	.loc	1 59 13                         @ ../Middlewares/USMART/usmart.c:59:13
	movw	r0, :lower16:.Lstr.79
	movt	r0, :upper16:.Lstr.79
	bl	puts
.Ltmp35:
	.loc	1 60 13                         @ ../Middlewares/USMART/usmart.c:60:13
	movw	r0, :lower16:.Lstr.80
	movt	r0, :upper16:.Lstr.80
	bl	puts
.Ltmp36:
	.loc	1 61 13                         @ ../Middlewares/USMART/usmart.c:61:13
	movw	r0, :lower16:.Lstr.81
	movt	r0, :upper16:.Lstr.81
	bl	puts
.Ltmp37:
	.loc	1 0 13 is_stmt 0                @ ../Middlewares/USMART/usmart.c:0:13
	movw	r8, :lower16:.Lstr.82
	movt	r8, :upper16:.Lstr.82
	b	.LBB0_30
.Ltmp38:
.LBB0_9:
	@DEBUG_VALUE: usmart_sys_cmd_exe:str <- $r4
	.loc	1 69 13 is_stmt 1               @ ../Middlewares/USMART/usmart.c:69:13
	movw	r8, :lower16:.Lstr.65
	movt	r8, :upper16:.Lstr.65
	mov	r0, r8
	bl	puts
.Ltmp39:
	.loc	1 70 13                         @ ../Middlewares/USMART/usmart.c:70:13
	movw	r0, :lower16:.Lstr.63
	movt	r0, :upper16:.Lstr.63
	bl	puts
.Ltmp40:
	.loc	1 72 40                         @ ../Middlewares/USMART/usmart.c:72:40
	movw	r5, :lower16:usmart_dev
	movt	r5, :upper16:usmart_dev
	ldrb	r0, [r5, #20]
	movs	r1, #0
.Ltmp41:
	@DEBUG_VALUE: usmart_sys_cmd_exe:i <- 0
	.loc	1 72 13 is_stmt 0               @ ../Middlewares/USMART/usmart.c:72:13
	cmp	r0, #0
	.loc	1 0 0                           @ ../Middlewares/USMART/usmart.c:0:0
	strb.w	r1, [sp, #43]
	.loc	1 72 13                         @ ../Middlewares/USMART/usmart.c:72:13
	beq.w	.LBB0_30
.Ltmp42:
@ %bb.10:
	@DEBUG_VALUE: usmart_sys_cmd_exe:i <- 0
	@DEBUG_VALUE: usmart_sys_cmd_exe:str <- $r4
	.loc	1 0 13                          @ ../Middlewares/USMART/usmart.c:0:13
	movw	r8, :lower16:.Lstr.65
	movs	r0, #0
	adr	r4, .LCPI0_7
.Ltmp43:
	movt	r8, :upper16:.Lstr.65
.Ltmp44:
	.p2align	2
.LBB0_11:                               @ =>This Inner Loop Header: Depth=1
	@DEBUG_VALUE: usmart_sys_cmd_exe:i <- $r0
	.loc	1 72 85                         @ ../Middlewares/USMART/usmart.c:72:85
	ldr	r1, [r5]
	.loc	1 72 25                         @ ../Middlewares/USMART/usmart.c:72:25
	uxtb	r0, r0
.Ltmp45:
	.loc	1 72 93                         @ ../Middlewares/USMART/usmart.c:72:93
	add.w	r0, r1, r0, lsl #3
	ldr	r1, [r0, #4]
	.loc	1 72 50                         @ ../Middlewares/USMART/usmart.c:72:50
	mov	r0, r4
	bl	__2printf
.Ltmp46:
	.loc	1 72 47                         @ ../Middlewares/USMART/usmart.c:72:47
	ldrb.w	r0, [sp, #43]
.Ltmp47:
	@DEBUG_VALUE: usmart_sys_cmd_exe:i <- $r0
	.loc	1 72 40                         @ ../Middlewares/USMART/usmart.c:72:40
	ldrb	r1, [r5, #20]
	.loc	1 72 47                         @ ../Middlewares/USMART/usmart.c:72:47
	adds	r0, #1
.Ltmp48:
	@DEBUG_VALUE: usmart_sys_cmd_exe:i <- $r0
	uxtb	r2, r0
.Ltmp49:
	.loc	1 72 13                         @ ../Middlewares/USMART/usmart.c:72:13
	cmp	r2, r1
	.loc	1 0 0                           @ ../Middlewares/USMART/usmart.c:0:0
	strb.w	r0, [sp, #43]
	.loc	1 72 13                         @ ../Middlewares/USMART/usmart.c:72:13
	blo	.LBB0_11
	b	.LBB0_30
.Ltmp50:
.LBB0_12:
	@DEBUG_VALUE: usmart_sys_cmd_exe:str <- $r4
	.loc	1 78 13 is_stmt 1               @ ../Middlewares/USMART/usmart.c:78:13
	movw	r8, :lower16:.Lstr.65
	movt	r8, :upper16:.Lstr.65
	mov	r0, r8
	bl	puts
.Ltmp51:
	.loc	1 79 13                         @ ../Middlewares/USMART/usmart.c:79:13
	movw	r0, :lower16:.Lstr.60
	movt	r0, :upper16:.Lstr.60
	bl	puts
.Ltmp52:
	.loc	1 81 40                         @ ../Middlewares/USMART/usmart.c:81:40
	movw	r6, :lower16:usmart_dev
	movt	r6, :upper16:usmart_dev
	ldrb	r0, [r6, #20]
	movs	r1, #0
.Ltmp53:
	@DEBUG_VALUE: usmart_sys_cmd_exe:i <- 0
	.loc	1 81 13 is_stmt 0               @ ../Middlewares/USMART/usmart.c:81:13
	cmp	r0, #0
	.loc	1 0 0                           @ ../Middlewares/USMART/usmart.c:0:0
	strb.w	r1, [sp, #43]
	.loc	1 81 13                         @ ../Middlewares/USMART/usmart.c:81:13
	beq.w	.LBB0_30
.Ltmp54:
@ %bb.13:
	@DEBUG_VALUE: usmart_sys_cmd_exe:i <- 0
	@DEBUG_VALUE: usmart_sys_cmd_exe:str <- $r4
	.loc	1 0 13                          @ ../Middlewares/USMART/usmart.c:0:13
	movw	r8, :lower16:.Lstr.65
	movs	r0, #0
	add.w	r5, sp, #13
	add.w	r9, sp, #12
	add.w	r7, sp, #11
	adr	r4, .LCPI0_6
.Ltmp55:
	movt	r8, :upper16:.Lstr.65
.Ltmp56:
	.p2align	2
.LBB0_14:                               @ =>This Inner Loop Header: Depth=1
	@DEBUG_VALUE: usmart_sys_cmd_exe:i <- $r0
	.loc	1 83 53 is_stmt 1               @ ../Middlewares/USMART/usmart.c:83:53
	ldr	r1, [r6]
.Ltmp57:
	.loc	1 81 25                         @ ../Middlewares/USMART/usmart.c:81:25
	uxtb	r0, r0
.Ltmp58:
	.loc	1 83 61                         @ ../Middlewares/USMART/usmart.c:83:61
	add.w	r0, r1, r0, lsl #3
	ldr	r0, [r0, #4]
.Ltmp59:
	@DEBUG_VALUE: usmart_sys_cmd_exe:rval <- [DW_OP_plus_uconst 11, DW_OP_deref] $sp
	@DEBUG_VALUE: usmart_sys_cmd_exe:pnum <- [DW_OP_plus_uconst 12, DW_OP_deref] $sp
	.loc	1 83 17 is_stmt 0               @ ../Middlewares/USMART/usmart.c:83:17
	mov	r1, r5
	mov	r2, r9
	mov	r3, r7
	bl	usmart_get_fname
.Ltmp60:
	.loc	1 84 91 is_stmt 1               @ ../Middlewares/USMART/usmart.c:84:91
	ldr	r0, [r6]
	.loc	1 84 96 is_stmt 0               @ ../Middlewares/USMART/usmart.c:84:96
	ldrb.w	r1, [sp, #43]
.Ltmp61:
	@DEBUG_VALUE: usmart_sys_cmd_exe:i <- undef
	.loc	1 84 99                         @ ../Middlewares/USMART/usmart.c:84:99
	ldr.w	r2, [r0, r1, lsl #3]
	.loc	1 84 17                         @ ../Middlewares/USMART/usmart.c:84:17
	mov	r0, r4
	mov	r1, r5
	bl	__2printf
.Ltmp62:
	.loc	1 81 47 is_stmt 1               @ ../Middlewares/USMART/usmart.c:81:47
	ldrb.w	r0, [sp, #43]
.Ltmp63:
	@DEBUG_VALUE: usmart_sys_cmd_exe:i <- $r0
	.loc	1 81 40 is_stmt 0               @ ../Middlewares/USMART/usmart.c:81:40
	ldrb	r1, [r6, #20]
	.loc	1 81 47                         @ ../Middlewares/USMART/usmart.c:81:47
	adds	r0, #1
.Ltmp64:
	@DEBUG_VALUE: usmart_sys_cmd_exe:i <- $r0
	uxtb	r2, r0
.Ltmp65:
	.loc	1 81 13                         @ ../Middlewares/USMART/usmart.c:81:13
	cmp	r2, r1
	.loc	1 0 0                           @ ../Middlewares/USMART/usmart.c:0:0
	strb.w	r0, [sp, #43]
	.loc	1 81 13                         @ ../Middlewares/USMART/usmart.c:81:13
	blo	.LBB0_14
	b	.LBB0_30
.Ltmp66:
.LBB0_15:
	@DEBUG_VALUE: usmart_sys_cmd_exe:str <- $r4
	.loc	1 91 13 is_stmt 1               @ ../Middlewares/USMART/usmart.c:91:13
	movw	r0, :lower16:.Lstr.65
	movt	r0, :upper16:.Lstr.65
	bl	puts
.Ltmp67:
	@DEBUG_VALUE: usmart_sys_cmd_exe:i <- [DW_OP_plus_uconst 43, DW_OP_deref] $sp
	.loc	1 0 13 is_stmt 0                @ ../Middlewares/USMART/usmart.c:0:13
	add.w	r1, sp, #13
	add.w	r2, sp, #43
	.loc	1 92 13 is_stmt 1               @ ../Middlewares/USMART/usmart.c:92:13
	mov	r0, r4
	bl	usmart_get_aparm
.Ltmp68:
	.loc	1 94 17                         @ ../Middlewares/USMART/usmart.c:94:17
	ldrb.w	r0, [sp, #43]
.Ltmp69:
	@DEBUG_VALUE: usmart_sys_cmd_exe:i <- $r0
	.loc	1 94 17 is_stmt 0               @ ../Middlewares/USMART/usmart.c:94:17
	cmp	r0, #0
	bne	.LBB0_25
.Ltmp70:
@ %bb.16:
	@DEBUG_VALUE: usmart_sys_cmd_exe:i <- $r0
	@DEBUG_VALUE: usmart_sys_cmd_exe:str <- $r4
	@DEBUG_VALUE: usmart_sys_cmd_exe:res <- [DW_OP_plus_uconst 4, DW_OP_deref] $sp
	.loc	1 0 17                          @ ../Middlewares/USMART/usmart.c:0:17
	add.w	r0, sp, #13
.Ltmp71:
	add	r1, sp, #4
.Ltmp72:
	.loc	1 96 21 is_stmt 1               @ ../Middlewares/USMART/usmart.c:96:21
	bl	usmart_str2num
.Ltmp73:
	@DEBUG_VALUE: usmart_sys_cmd_exe:i <- $r0
	.loc	1 98 21                         @ ../Middlewares/USMART/usmart.c:98:21
	cmp	r0, #4
	.loc	1 96 19                         @ ../Middlewares/USMART/usmart.c:96:19
	strb.w	r0, [sp, #43]
	.loc	1 98 21                         @ ../Middlewares/USMART/usmart.c:98:21
	beq	.LBB0_26
.Ltmp74:
@ %bb.17:
	@DEBUG_VALUE: usmart_sys_cmd_exe:res <- [DW_OP_plus_uconst 4, DW_OP_deref] $sp
	@DEBUG_VALUE: usmart_sys_cmd_exe:i <- $r0
	@DEBUG_VALUE: usmart_sys_cmd_exe:str <- $r4
	cbnz	r0, .LBB0_25
.Ltmp75:
@ %bb.18:
	@DEBUG_VALUE: usmart_sys_cmd_exe:res <- [DW_OP_plus_uconst 4, DW_OP_deref] $sp
	@DEBUG_VALUE: usmart_sys_cmd_exe:i <- $r0
	@DEBUG_VALUE: usmart_sys_cmd_exe:str <- $r4
	.loc	1 100 51                        @ ../Middlewares/USMART/usmart.c:100:51
	ldr	r1, [sp, #4]
.Ltmp76:
	@DEBUG_VALUE: usmart_sys_cmd_exe:res <- $r1
	.loc	1 100 21 is_stmt 0              @ ../Middlewares/USMART/usmart.c:100:21
	adr	r0, .LCPI0_5
.Ltmp77:
	.loc	1 0 0                           @ ../Middlewares/USMART/usmart.c:0:0
	bl	__2printf
.Ltmp78:
	b	.LBB0_29
.Ltmp79:
.LBB0_19:
	@DEBUG_VALUE: usmart_sys_cmd_exe:str <- $r4
	.loc	1 116 13 is_stmt 1              @ ../Middlewares/USMART/usmart.c:116:13
	movw	r0, :lower16:.Lstr.65
	movt	r0, :upper16:.Lstr.65
	bl	puts
.Ltmp80:
	@DEBUG_VALUE: usmart_sys_cmd_exe:i <- [DW_OP_plus_uconst 43, DW_OP_deref] $sp
	.loc	1 0 13 is_stmt 0                @ ../Middlewares/USMART/usmart.c:0:13
	add.w	r1, sp, #13
	add.w	r2, sp, #43
	.loc	1 117 13 is_stmt 1              @ ../Middlewares/USMART/usmart.c:117:13
	mov	r0, r4
	bl	usmart_get_aparm
.Ltmp81:
	.loc	1 119 17                        @ ../Middlewares/USMART/usmart.c:119:17
	ldrb.w	r0, [sp, #43]
.Ltmp82:
	@DEBUG_VALUE: usmart_sys_cmd_exe:i <- $r0
	.loc	1 119 17 is_stmt 0              @ ../Middlewares/USMART/usmart.c:119:17
	cbnz	r0, .LBB0_25
.Ltmp83:
@ %bb.20:
	@DEBUG_VALUE: usmart_sys_cmd_exe:i <- $r0
	@DEBUG_VALUE: usmart_sys_cmd_exe:str <- $r4
	@DEBUG_VALUE: usmart_sys_cmd_exe:res <- [DW_OP_plus_uconst 4, DW_OP_deref] $sp
	.loc	1 0 17                          @ ../Middlewares/USMART/usmart.c:0:17
	add.w	r0, sp, #13
.Ltmp84:
	add	r1, sp, #4
.Ltmp85:
	.loc	1 121 21 is_stmt 1              @ ../Middlewares/USMART/usmart.c:121:21
	bl	usmart_str2num
.Ltmp86:
	@DEBUG_VALUE: usmart_sys_cmd_exe:i <- $r0
	.loc	1 123 21                        @ ../Middlewares/USMART/usmart.c:123:21
	cmp	r0, #4
	.loc	1 121 19                        @ ../Middlewares/USMART/usmart.c:121:19
	strb.w	r0, [sp, #43]
	.loc	1 123 21                        @ ../Middlewares/USMART/usmart.c:123:21
	beq	.LBB0_27
.Ltmp87:
@ %bb.21:
	@DEBUG_VALUE: usmart_sys_cmd_exe:res <- [DW_OP_plus_uconst 4, DW_OP_deref] $sp
	@DEBUG_VALUE: usmart_sys_cmd_exe:i <- $r0
	@DEBUG_VALUE: usmart_sys_cmd_exe:str <- $r4
	cbnz	r0, .LBB0_25
.Ltmp88:
@ %bb.22:
	@DEBUG_VALUE: usmart_sys_cmd_exe:res <- [DW_OP_plus_uconst 4, DW_OP_deref] $sp
	@DEBUG_VALUE: usmart_sys_cmd_exe:i <- $r0
	@DEBUG_VALUE: usmart_sys_cmd_exe:str <- $r4
	.loc	1 125 65                        @ ../Middlewares/USMART/usmart.c:125:65
	ldr	r1, [sp, #4]
.Ltmp89:
	@DEBUG_VALUE: usmart_sys_cmd_exe:res <- $r1
	.loc	1 125 21 is_stmt 0              @ ../Middlewares/USMART/usmart.c:125:21
	adr	r0, .LCPI0_3
.Ltmp90:
	.loc	1 0 0                           @ ../Middlewares/USMART/usmart.c:0:0
	bl	__2printf
.Ltmp91:
	b	.LBB0_29
.Ltmp92:
.LBB0_23:
	@DEBUG_VALUE: usmart_sys_cmd_exe:str <- $r4
	.loc	1 147 13 is_stmt 1              @ ../Middlewares/USMART/usmart.c:147:13
	movw	r0, :lower16:.Lstr.65
	movt	r0, :upper16:.Lstr.65
	bl	puts
.Ltmp93:
	@DEBUG_VALUE: usmart_sys_cmd_exe:i <- [DW_OP_plus_uconst 43, DW_OP_deref] $sp
	.loc	1 0 13 is_stmt 0                @ ../Middlewares/USMART/usmart.c:0:13
	add.w	r1, sp, #13
	add.w	r2, sp, #43
	.loc	1 148 13 is_stmt 1              @ ../Middlewares/USMART/usmart.c:148:13
	mov	r0, r4
	bl	usmart_get_aparm
.Ltmp94:
	.loc	1 150 17                        @ ../Middlewares/USMART/usmart.c:150:17
	ldrb.w	r0, [sp, #43]
.Ltmp95:
	@DEBUG_VALUE: usmart_sys_cmd_exe:i <- $r0
	.loc	1 150 17 is_stmt 0              @ ../Middlewares/USMART/usmart.c:150:17
	cbnz	r0, .LBB0_25
.Ltmp96:
@ %bb.24:
	@DEBUG_VALUE: usmart_sys_cmd_exe:i <- $r0
	@DEBUG_VALUE: usmart_sys_cmd_exe:str <- $r4
	@DEBUG_VALUE: usmart_sys_cmd_exe:res <- [DW_OP_plus_uconst 4, DW_OP_deref] $sp
	.loc	1 0 17                          @ ../Middlewares/USMART/usmart.c:0:17
	add.w	r0, sp, #13
.Ltmp97:
	add	r1, sp, #4
.Ltmp98:
	.loc	1 152 21 is_stmt 1              @ ../Middlewares/USMART/usmart.c:152:21
	bl	usmart_str2num
.Ltmp99:
	@DEBUG_VALUE: usmart_sys_cmd_exe:i <- $r0
	.loc	1 152 19 is_stmt 0              @ ../Middlewares/USMART/usmart.c:152:19
	strb.w	r0, [sp, #43]
	.loc	1 154 21 is_stmt 1              @ ../Middlewares/USMART/usmart.c:154:21
	cbz	r0, .LBB0_28
.Ltmp100:
.LBB0_25:
	@DEBUG_VALUE: usmart_sys_cmd_exe:i <- $r0
	@DEBUG_VALUE: usmart_sys_cmd_exe:str <- $r4
	.loc	1 0 21 is_stmt 0                @ ../Middlewares/USMART/usmart.c:0:21
	movs	r0, #2
.Ltmp101:
	.loc	1 192 1 is_stmt 1               @ ../Middlewares/USMART/usmart.c:192:1
	add	sp, #44
	pop.w	{r4, r5, r6, r7, r8, r9, pc}
.Ltmp102:
.LBB0_26:
	@DEBUG_VALUE: usmart_sys_cmd_exe:res <- [DW_OP_plus_uconst 4, DW_OP_deref] $sp
	@DEBUG_VALUE: usmart_sys_cmd_exe:i <- $r0
	@DEBUG_VALUE: usmart_sys_cmd_exe:str <- $r4
	.loc	1 105 21                        @ ../Middlewares/USMART/usmart.c:105:21
	adr	r0, .LCPI0_4
.Ltmp103:
	bl	puts
.Ltmp104:
	.loc	1 106 39                        @ ../Middlewares/USMART/usmart.c:106:39
	movw	r0, :lower16:usmart_dev
	movt	r0, :upper16:usmart_dev
	movs	r1, #1
.Ltmp105:
	.loc	1 0 0 is_stmt 0                 @ ../Middlewares/USMART/usmart.c:0:0
	strb	r1, [r0, #23]
	b	.LBB0_29
.Ltmp106:
.LBB0_27:
	@DEBUG_VALUE: usmart_sys_cmd_exe:res <- [DW_OP_plus_uconst 4, DW_OP_deref] $sp
	@DEBUG_VALUE: usmart_sys_cmd_exe:i <- $r0
	@DEBUG_VALUE: usmart_sys_cmd_exe:str <- $r4
	.loc	1 133 21 is_stmt 1              @ ../Middlewares/USMART/usmart.c:133:21
	adr	r0, .LCPI0_2
.Ltmp107:
	bl	puts
.Ltmp108:
	.loc	1 134 39                        @ ../Middlewares/USMART/usmart.c:134:39
	movw	r0, :lower16:usmart_dev
	movt	r0, :upper16:usmart_dev
	movs	r1, #0
.Ltmp109:
	.loc	1 0 0 is_stmt 0                 @ ../Middlewares/USMART/usmart.c:0:0
	strb	r1, [r0, #23]
	b	.LBB0_29
.Ltmp110:
.LBB0_28:
	@DEBUG_VALUE: usmart_sys_cmd_exe:res <- [DW_OP_plus_uconst 4, DW_OP_deref] $sp
	@DEBUG_VALUE: usmart_sys_cmd_exe:i <- $r0
	@DEBUG_VALUE: usmart_sys_cmd_exe:str <- $r4
	.loc	1 162 50 is_stmt 1              @ ../Middlewares/USMART/usmart.c:162:50
	ldrb.w	r1, [sp, #4]
.Ltmp111:
	@DEBUG_VALUE: usmart_sys_cmd_exe:res <- undef
	.loc	1 162 48 is_stmt 0              @ ../Middlewares/USMART/usmart.c:162:48
	movw	r0, :lower16:usmart_dev
.Ltmp112:
	movt	r0, :upper16:usmart_dev
	strb.w	r1, [r0, #236]
	adr	r0, .LCPI0_1
	adr	r2, .LCPI0_0
	cmp	r1, #0
	it	eq
	moveq	r0, r2
.Ltmp113:
	.loc	1 0 0                           @ ../Middlewares/USMART/usmart.c:0:0
	bl	puts
.Ltmp114:
.LBB0_29:
	@DEBUG_VALUE: usmart_sys_cmd_exe:str <- $r4
	movw	r8, :lower16:.Lstr.65
	movt	r8, :upper16:.Lstr.65
.Ltmp115:
.LBB0_30:
	mov	r0, r8
	bl	puts
.Ltmp116:
	movs	r0, #0
.Ltmp117:
	.loc	1 192 1 is_stmt 1               @ ../Middlewares/USMART/usmart.c:192:1
	add	sp, #44
	pop.w	{r4, r5, r6, r7, r8, r9, pc}
.Ltmp118:
	.p2align	2
@ %bb.31:
	.loc	1 0 1 is_stmt 0                 @ ../Middlewares/USMART/usmart.c:0:1
.LCPI0_0:
.Lstr.50:
	.asciz	"Run Time Calculation OFF\r\000\000"
.LCPI0_1:
.Lstr.52:
	.asciz	"Run Time Calculation ON\r\000\000\000"
.LCPI0_2:
.Lstr.54:
	.asciz	"10\275\370\326\306\262\316\312\375\317\324\312\276!\r\000\000\000"
.LCPI0_3:
.L.str.31:
	.asciz	"DEC:%lu\r\n\000\000"
.LCPI0_4:
.Lstr.57:
	.asciz	"16\275\370\326\306\262\316\312\375\317\324\312\276!\r\000\000\000"
.LCPI0_5:
.L.str.29:
	.asciz	"HEX:0X%X\r\n\000"
.LCPI0_6:
.L.str.28:
	.asciz	"%s id is:\r\n0X%08X\r\n"
.LCPI0_7:
.L.str.26:
	.asciz	"%s\r\n\000\000\000"
.Lfunc_end0:
	.size	usmart_sys_cmd_exe, .Lfunc_end0-usmart_sys_cmd_exe
	.cfi_endproc
	.cantunwind
	.fnend
                                        @ -- End function
	.section	.text.usmart_init,"ax",%progbits
	.hidden	usmart_init                     @ -- Begin function usmart_init
	.globl	usmart_init
	.p2align	2
	.type	usmart_init,%function
	.code	16                              @ @usmart_init
	.thumb_func
usmart_init:
.Lfunc_begin1:
	.loc	1 200 0 is_stmt 1               @ ../Middlewares/USMART/usmart.c:200:0
	.fnstart
	.cfi_startproc
@ %bb.0:
	@DEBUG_VALUE: usmart_init:tclk <- $r0
	.save	{r7, lr}
	push	{r7, lr}
	.cfi_def_cfa_offset 8
	.cfi_offset lr, -4
	.cfi_offset r7, -8
	movs	r1, #100
.Ltmp119:
	.loc	1 202 33 prologue_end           @ ../Middlewares/USMART/usmart.c:202:33
	muls	r0, r1, r0
.Ltmp120:
	@DEBUG_VALUE: usmart_init:tclk <- [DW_OP_LLVM_entry_value 1] $r0
	.loc	1 202 39 is_stmt 0              @ ../Middlewares/USMART/usmart.c:202:39
	subs	r0, #1
	.loc	1 202 5                         @ ../Middlewares/USMART/usmart.c:202:5
	uxth	r1, r0
	mov.w	r0, #1000
	bl	usmart_timx_init
.Ltmp121:
	.loc	1 204 23 is_stmt 1              @ ../Middlewares/USMART/usmart.c:204:23
	movw	r0, :lower16:usmart_dev
	movt	r0, :upper16:usmart_dev
	movs	r1, #1
	strb	r1, [r0, #23]
	.loc	1 205 1                         @ ../Middlewares/USMART/usmart.c:205:1
	pop	{r7, pc}
.Ltmp122:
.Lfunc_end1:
	.size	usmart_init, .Lfunc_end1-usmart_init
	.cfi_endproc
	.cantunwind
	.fnend
                                        @ -- End function
	.section	.text.usmart_cmd_rec,"ax",%progbits
	.hidden	usmart_cmd_rec                  @ -- Begin function usmart_cmd_rec
	.globl	usmart_cmd_rec
	.p2align	2
	.type	usmart_cmd_rec,%function
	.code	16                              @ @usmart_cmd_rec
	.thumb_func
usmart_cmd_rec:
.Lfunc_begin2:
	.loc	1 213 0                         @ ../Middlewares/USMART/usmart.c:213:0
	.fnstart
	.cfi_startproc
@ %bb.0:
	@DEBUG_VALUE: usmart_cmd_rec:str <- $r0
	.save	{r4, r5, r6, r7, r8, r9, r10, lr}
	push.w	{r4, r5, r6, r7, r8, r9, r10, lr}
	.cfi_def_cfa_offset 32
	.cfi_offset lr, -4
	.cfi_offset r10, -8
	.cfi_offset r9, -12
	.cfi_offset r8, -16
	.cfi_offset r7, -20
	.cfi_offset r6, -24
	.cfi_offset r5, -28
	.cfi_offset r4, -32
	.pad	#64
	sub	sp, #64
	.cfi_def_cfa_offset 96
	add.w	r1, sp, #30
	add.w	r2, sp, #61
	add.w	r3, sp, #62
	mov	r8, r0
.Ltmp123:
	@DEBUG_VALUE: usmart_cmd_rec:rpnum <- [DW_OP_plus_uconst 61, DW_OP_deref] $sp
	@DEBUG_VALUE: usmart_cmd_rec:rval <- [DW_OP_plus_uconst 62, DW_OP_deref] $sp
	@DEBUG_VALUE: usmart_cmd_rec:str <- $r8
	.loc	1 218 11 prologue_end           @ ../Middlewares/USMART/usmart.c:218:11
	bl	usmart_get_fname
.Ltmp124:
	@DEBUG_VALUE: usmart_cmd_rec:sta <- $r0
	.loc	1 220 9                         @ ../Middlewares/USMART/usmart.c:220:9
	cbz	r0, .LBB2_2
.Ltmp125:
.LBB2_1:
	@DEBUG_VALUE: usmart_cmd_rec:sta <- $r0
	@DEBUG_VALUE: usmart_cmd_rec:str <- $r8
	@DEBUG_VALUE: usmart_cmd_rec:rval <- [DW_OP_plus_uconst 62, DW_OP_deref] $sp
	.loc	1 245 1                         @ ../Middlewares/USMART/usmart.c:245:1
	add	sp, #64
	pop.w	{r4, r5, r6, r7, r8, r9, r10, pc}
.Ltmp126:
.LBB2_2:
	@DEBUG_VALUE: usmart_cmd_rec:sta <- $r0
	@DEBUG_VALUE: usmart_cmd_rec:str <- $r8
	@DEBUG_VALUE: usmart_cmd_rec:rval <- [DW_OP_plus_uconst 62, DW_OP_deref] $sp
	@DEBUG_VALUE: usmart_cmd_rec:rpnum <- [DW_OP_plus_uconst 61, DW_OP_deref] $sp
	.loc	1 222 32                        @ ../Middlewares/USMART/usmart.c:222:32
	movw	r6, :lower16:usmart_dev
	movt	r6, :upper16:usmart_dev
	ldrb	r0, [r6, #20]
.Ltmp127:
	.loc	1 0 32 is_stmt 0                @ ../Middlewares/USMART/usmart.c:0:32
	movs	r1, #0
.Ltmp128:
	strb.w	r1, [sp, #63]
.Ltmp129:
	@DEBUG_VALUE: usmart_cmd_rec:i <- 0
	.loc	1 222 5                         @ ../Middlewares/USMART/usmart.c:222:5
	cbz	r0, .LBB2_8
.Ltmp130:
@ %bb.3:
	@DEBUG_VALUE: usmart_cmd_rec:i <- 0
	@DEBUG_VALUE: usmart_cmd_rec:str <- $r8
	@DEBUG_VALUE: usmart_cmd_rec:rval <- [DW_OP_plus_uconst 62, DW_OP_deref] $sp
	@DEBUG_VALUE: usmart_cmd_rec:rpnum <- [DW_OP_plus_uconst 61, DW_OP_deref] $sp
	.loc	1 0 5                           @ ../Middlewares/USMART/usmart.c:0:5
	movs	r4, #0
	mov	r5, sp
	add.w	r9, sp, #60
	add.w	r7, sp, #62
	add.w	r10, sp, #30
.Ltmp131:
	.p2align	2
.LBB2_4:                                @ =>This Inner Loop Header: Depth=1
	@DEBUG_VALUE: usmart_cmd_rec:str <- $r8
	@DEBUG_VALUE: usmart_cmd_rec:rval <- [DW_OP_plus_uconst 62, DW_OP_deref] $sp
	@DEBUG_VALUE: usmart_cmd_rec:rpnum <- [DW_OP_plus_uconst 61, DW_OP_deref] $sp
	@DEBUG_VALUE: usmart_cmd_rec:i <- $r4
	.loc	1 224 51 is_stmt 1              @ ../Middlewares/USMART/usmart.c:224:51
	ldr	r0, [r6]
	.loc	1 224 15 is_stmt 0              @ ../Middlewares/USMART/usmart.c:224:15
	mov	r1, r5
	.loc	1 224 59                        @ ../Middlewares/USMART/usmart.c:224:59
	add.w	r0, r0, r4, lsl #3
	ldr	r0, [r0, #4]
.Ltmp132:
	@DEBUG_VALUE: usmart_cmd_rec:spnum <- [DW_OP_plus_uconst 60, DW_OP_deref] $sp
	@DEBUG_VALUE: usmart_cmd_rec:rval <- [DW_OP_plus_uconst 62, DW_OP_deref] $sp
	.loc	1 224 15                        @ ../Middlewares/USMART/usmart.c:224:15
	mov	r2, r9
	mov	r3, r7
	bl	usmart_get_fname
.Ltmp133:
	@DEBUG_VALUE: usmart_cmd_rec:sta <- $r0
	.loc	1 226 13 is_stmt 1              @ ../Middlewares/USMART/usmart.c:226:13
	cmp	r0, #0
	bne	.LBB2_1
.Ltmp134:
@ %bb.5:                                @   in Loop: Header=BB2_4 Depth=1
	@DEBUG_VALUE: usmart_cmd_rec:spnum <- [DW_OP_plus_uconst 60, DW_OP_deref] $sp
	@DEBUG_VALUE: usmart_cmd_rec:i <- $r4
	@DEBUG_VALUE: usmart_cmd_rec:sta <- $r0
	@DEBUG_VALUE: usmart_cmd_rec:str <- $r8
	@DEBUG_VALUE: usmart_cmd_rec:rval <- [DW_OP_plus_uconst 62, DW_OP_deref] $sp
	@DEBUG_VALUE: usmart_cmd_rec:rpnum <- [DW_OP_plus_uconst 61, DW_OP_deref] $sp
	.loc	1 228 13                        @ ../Middlewares/USMART/usmart.c:228:13
	mov	r0, r5
.Ltmp135:
	mov	r1, r10
	bl	usmart_strcmp
.Ltmp136:
	.loc	1 228 13 is_stmt 0              @ ../Middlewares/USMART/usmart.c:228:13
	cbz	r0, .LBB2_9
.Ltmp137:
@ %bb.6:                                @   in Loop: Header=BB2_4 Depth=1
	@DEBUG_VALUE: usmart_cmd_rec:spnum <- [DW_OP_plus_uconst 60, DW_OP_deref] $sp
	@DEBUG_VALUE: usmart_cmd_rec:i <- $r4
	@DEBUG_VALUE: usmart_cmd_rec:str <- $r8
	@DEBUG_VALUE: usmart_cmd_rec:rval <- [DW_OP_plus_uconst 62, DW_OP_deref] $sp
	@DEBUG_VALUE: usmart_cmd_rec:rpnum <- [DW_OP_plus_uconst 61, DW_OP_deref] $sp
	@DEBUG_VALUE: usmart_cmd_rec:i <- $r4
	.loc	1 222 32 is_stmt 1              @ ../Middlewares/USMART/usmart.c:222:32
	ldrb	r0, [r6, #20]
	.loc	1 222 39 is_stmt 0              @ ../Middlewares/USMART/usmart.c:222:39
	adds	r4, #1
.Ltmp138:
	@DEBUG_VALUE: usmart_cmd_rec:i <- $r4
	.loc	1 222 5                         @ ../Middlewares/USMART/usmart.c:222:5
	cmp	r4, r0
	.loc	1 0 0                           @ ../Middlewares/USMART/usmart.c:0:0
	strb.w	r4, [sp, #63]
	.loc	1 222 5                         @ ../Middlewares/USMART/usmart.c:222:5
	blo	.LBB2_4
.Ltmp139:
@ %bb.7:
	@DEBUG_VALUE: usmart_cmd_rec:spnum <- [DW_OP_plus_uconst 60, DW_OP_deref] $sp
	@DEBUG_VALUE: usmart_cmd_rec:i <- $r4
	@DEBUG_VALUE: usmart_cmd_rec:str <- $r8
	@DEBUG_VALUE: usmart_cmd_rec:rval <- [DW_OP_plus_uconst 62, DW_OP_deref] $sp
	@DEBUG_VALUE: usmart_cmd_rec:rpnum <- [DW_OP_plus_uconst 61, DW_OP_deref] $sp
	@DEBUG_VALUE: usmart_cmd_rec:i <- $r4
	.loc	1 237 9 is_stmt 1               @ ../Middlewares/USMART/usmart.c:237:9
	cmp	r4, r0
	bne	.LBB2_12
.Ltmp140:
.LBB2_8:
	@DEBUG_VALUE: usmart_cmd_rec:str <- $r8
	@DEBUG_VALUE: usmart_cmd_rec:rval <- [DW_OP_plus_uconst 62, DW_OP_deref] $sp
	.loc	1 0 9 is_stmt 0                 @ ../Middlewares/USMART/usmart.c:0:9
	movs	r0, #4
	.loc	1 245 1 is_stmt 1               @ ../Middlewares/USMART/usmart.c:245:1
	add	sp, #64
	pop.w	{r4, r5, r6, r7, r8, r9, r10, pc}
.Ltmp141:
.LBB2_9:
	@DEBUG_VALUE: usmart_cmd_rec:spnum <- [DW_OP_plus_uconst 60, DW_OP_deref] $sp
	@DEBUG_VALUE: usmart_cmd_rec:i <- $r4
	@DEBUG_VALUE: usmart_cmd_rec:str <- $r8
	@DEBUG_VALUE: usmart_cmd_rec:rval <- [DW_OP_plus_uconst 62, DW_OP_deref] $sp
	@DEBUG_VALUE: usmart_cmd_rec:rpnum <- [DW_OP_plus_uconst 61, DW_OP_deref] $sp
	.loc	1 230 17                        @ ../Middlewares/USMART/usmart.c:230:17
	ldrb.w	r0, [sp, #60]
.Ltmp142:
	@DEBUG_VALUE: usmart_cmd_rec:spnum <- $r0
	.loc	1 230 25 is_stmt 0              @ ../Middlewares/USMART/usmart.c:230:25
	ldrb.w	r1, [sp, #61]
.Ltmp143:
	@DEBUG_VALUE: usmart_cmd_rec:rpnum <- $r1
	.loc	1 230 17                        @ ../Middlewares/USMART/usmart.c:230:17
	cmp	r0, r1
	bls	.LBB2_11
.Ltmp144:
@ %bb.10:
	@DEBUG_VALUE: usmart_cmd_rec:rpnum <- $r1
	@DEBUG_VALUE: usmart_cmd_rec:spnum <- $r0
	@DEBUG_VALUE: usmart_cmd_rec:i <- $r4
	@DEBUG_VALUE: usmart_cmd_rec:str <- $r8
	@DEBUG_VALUE: usmart_cmd_rec:rval <- [DW_OP_plus_uconst 62, DW_OP_deref] $sp
	.loc	1 0 17                          @ ../Middlewares/USMART/usmart.c:0:17
	movs	r0, #2
.Ltmp145:
	.loc	1 245 1 is_stmt 1               @ ../Middlewares/USMART/usmart.c:245:1
	add	sp, #64
	pop.w	{r4, r5, r6, r7, r8, r9, r10, pc}
.Ltmp146:
.LBB2_11:
	@DEBUG_VALUE: usmart_cmd_rec:rpnum <- $r1
	@DEBUG_VALUE: usmart_cmd_rec:spnum <- $r0
	@DEBUG_VALUE: usmart_cmd_rec:i <- $r4
	@DEBUG_VALUE: usmart_cmd_rec:str <- $r8
	@DEBUG_VALUE: usmart_cmd_rec:rval <- [DW_OP_plus_uconst 62, DW_OP_deref] $sp
	@DEBUG_VALUE: usmart_cmd_rec:i <- $r4
	.loc	1 237 25                        @ ../Middlewares/USMART/usmart.c:237:25
	ldrb	r0, [r6, #20]
.Ltmp147:
	.loc	1 232 27                        @ ../Middlewares/USMART/usmart.c:232:27
	strb	r4, [r6, #22]
.Ltmp148:
	@DEBUG_VALUE: usmart_cmd_rec:i <- $r4
	.loc	1 237 9                         @ ../Middlewares/USMART/usmart.c:237:9
	cmp	r4, r0
	beq	.LBB2_8
.Ltmp149:
.LBB2_12:
	@DEBUG_VALUE: usmart_cmd_rec:i <- $r4
	@DEBUG_VALUE: usmart_cmd_rec:str <- $r8
	@DEBUG_VALUE: usmart_cmd_rec:rval <- [DW_OP_plus_uconst 62, DW_OP_deref] $sp
	@DEBUG_VALUE: usmart_cmd_rec:i <- [DW_OP_plus_uconst 63, DW_OP_deref] $sp
	.loc	1 0 9 is_stmt 0                 @ ../Middlewares/USMART/usmart.c:0:9
	add.w	r1, sp, #63
	.loc	1 239 11 is_stmt 1              @ ../Middlewares/USMART/usmart.c:239:11
	mov	r0, r8
	bl	usmart_get_fparam
.Ltmp150:
	@DEBUG_VALUE: usmart_cmd_rec:sta <- $r0
	.loc	1 241 9                         @ ../Middlewares/USMART/usmart.c:241:9
	cmp	r0, #0
	bne	.LBB2_1
.Ltmp151:
@ %bb.13:
	@DEBUG_VALUE: usmart_cmd_rec:i <- [DW_OP_plus_uconst 63, DW_OP_deref] $sp
	@DEBUG_VALUE: usmart_cmd_rec:sta <- $r0
	@DEBUG_VALUE: usmart_cmd_rec:str <- $r8
	@DEBUG_VALUE: usmart_cmd_rec:rval <- [DW_OP_plus_uconst 62, DW_OP_deref] $sp
	.loc	1 243 23                        @ ../Middlewares/USMART/usmart.c:243:23
	ldrb.w	r0, [sp, #63]
.Ltmp152:
	@DEBUG_VALUE: usmart_cmd_rec:i <- $r0
	.loc	1 243 21 is_stmt 0              @ ../Middlewares/USMART/usmart.c:243:21
	strb	r0, [r6, #21]
	movs	r0, #0
.Ltmp153:
	.loc	1 245 1 is_stmt 1               @ ../Middlewares/USMART/usmart.c:245:1
	add	sp, #64
	pop.w	{r4, r5, r6, r7, r8, r9, r10, pc}
.Ltmp154:
.Lfunc_end2:
	.size	usmart_cmd_rec, .Lfunc_end2-usmart_cmd_rec
	.cfi_endproc
	.cantunwind
	.fnend
                                        @ -- End function
	.section	.text.usmart_exe,"ax",%progbits
	.hidden	usmart_exe                      @ -- Begin function usmart_exe
	.globl	usmart_exe
	.p2align	2
	.type	usmart_exe,%function
	.code	16                              @ @usmart_exe
	.thumb_func
usmart_exe:
.Lfunc_begin3:
	.loc	1 259 0                         @ ../Middlewares/USMART/usmart.c:259:0
	.fnstart
	.cfi_startproc
@ %bb.0:
	.save	{r4, r5, r6, r7, r8, r9, r10, r11, lr}
	push.w	{r4, r5, r6, r7, r8, r9, r10, r11, lr}
	.cfi_def_cfa_offset 36
	.cfi_offset lr, -4
	.cfi_offset r11, -8
	.cfi_offset r10, -12
	.cfi_offset r9, -16
	.cfi_offset r8, -20
	.cfi_offset r7, -24
	.cfi_offset r6, -28
	.cfi_offset r5, -32
	.cfi_offset r4, -36
	.pad	#100
	sub	sp, #100
	.cfi_def_cfa_offset 136
.Ltmp155:
	.loc	1 265 21 prologue_end           @ ../Middlewares/USMART/usmart.c:265:21
	movw	r11, :lower16:usmart_dev
	movt	r11, :upper16:usmart_dev
.Ltmp156:
	.loc	1 267 26                        @ ../Middlewares/USMART/usmart.c:267:26
	ldrb.w	r0, [r11, #20]
.Ltmp157:
	.loc	1 265 21                        @ ../Middlewares/USMART/usmart.c:265:21
	ldrb.w	r9, [r11, #22]
.Ltmp158:
	@DEBUG_VALUE: usmart_exe:id <- $r9
	.loc	1 267 9                         @ ../Middlewares/USMART/usmart.c:267:9
	cmp	r9, r0
	bhs.w	.LBB3_31
.Ltmp159:
@ %bb.1:
	@DEBUG_VALUE: usmart_exe:id <- $r9
	.loc	1 269 41                        @ ../Middlewares/USMART/usmart.c:269:41
	ldr.w	r0, [r11]
	add.w	r4, sp, #30
	.loc	1 269 50 is_stmt 0              @ ../Middlewares/USMART/usmart.c:269:50
	add.w	r0, r0, r9, lsl #3
	ldr	r0, [r0, #4]
.Ltmp160:
	@DEBUG_VALUE: usmart_exe:rval <- [DW_OP_plus_uconst 28, DW_OP_deref] $sp
	@DEBUG_VALUE: usmart_exe:pnum <- [DW_OP_plus_uconst 29, DW_OP_deref] $sp
	.loc	1 0 50                          @ ../Middlewares/USMART/usmart.c:0:50
	add.w	r2, sp, #29
	add	r3, sp, #28
	.loc	1 269 5                         @ ../Middlewares/USMART/usmart.c:269:5
	mov	r1, r4
	bl	usmart_get_fname
.Ltmp161:
	.loc	1 270 5 is_stmt 1               @ ../Middlewares/USMART/usmart.c:270:5
	adr	r0, .LCPI3_0
	mov	r1, r4
	bl	__2printf
.Ltmp162:
	@DEBUG_VALUE: usmart_exe:i <- 0
	.loc	1 272 21                        @ ../Middlewares/USMART/usmart.c:272:21
	ldrb.w	r0, [sp, #29]
.Ltmp163:
	@DEBUG_VALUE: usmart_exe:pnum <- $r0
	.loc	1 272 5 is_stmt 0               @ ../Middlewares/USMART/usmart.c:272:5
	cmp	r0, #0
	beq	.LBB3_9
.Ltmp164:
@ %bb.2:
	@DEBUG_VALUE: usmart_exe:pnum <- $r0
	@DEBUG_VALUE: usmart_exe:i <- 0
	@DEBUG_VALUE: usmart_exe:rval <- [DW_OP_plus_uconst 28, DW_OP_deref] $sp
	@DEBUG_VALUE: usmart_exe:id <- $r9
	.loc	1 0 5                           @ ../Middlewares/USMART/usmart.c:0:5
	movs	r4, #0
	add	r5, sp, #60
	adr.w	r10, .LCPI3_2
	add.w	r8, r11, #36
	adr	r6, .LCPI3_1
	b	.LBB3_4
.Ltmp165:
	.p2align	2
.LBB3_3:                                @   in Loop: Header=BB3_4 Depth=1
	@DEBUG_VALUE: usmart_exe:i <- $r4
	@DEBUG_VALUE: usmart_exe:rval <- [DW_OP_plus_uconst 28, DW_OP_deref] $sp
	@DEBUG_VALUE: usmart_exe:id <- $r9
	.loc	1 272 28                        @ ../Middlewares/USMART/usmart.c:272:28
	adds	r4, #1
.Ltmp166:
	@DEBUG_VALUE: usmart_exe:i <- $r4
	@DEBUG_VALUE: usmart_exe:pnum <- undef
	.loc	1 272 5                         @ ../Middlewares/USMART/usmart.c:272:5
	cmp	r4, r0
	bhs	.LBB3_9
.Ltmp167:
.LBB3_4:                                @ =>This Inner Loop Header: Depth=1
	@DEBUG_VALUE: usmart_exe:rval <- [DW_OP_plus_uconst 28, DW_OP_deref] $sp
	@DEBUG_VALUE: usmart_exe:id <- $r9
	@DEBUG_VALUE: usmart_exe:i <- $r4
	.loc	1 274 24 is_stmt 1              @ ../Middlewares/USMART/usmart.c:274:24
	ldrh.w	r0, [r11, #24]
.Ltmp168:
	.loc	1 274 13 is_stmt 0              @ ../Middlewares/USMART/usmart.c:274:13
	lsrs	r0, r4
	lsls	r0, r0, #31
	beq	.LBB3_6
.Ltmp169:
@ %bb.5:                                @   in Loop: Header=BB3_4 Depth=1
	@DEBUG_VALUE: usmart_exe:i <- $r4
	@DEBUG_VALUE: usmart_exe:rval <- [DW_OP_plus_uconst 28, DW_OP_deref] $sp
	@DEBUG_VALUE: usmart_exe:id <- $r9
	.loc	1 276 13 is_stmt 1              @ ../Middlewares/USMART/usmart.c:276:13
	movs	r0, #34
	bl	putchar
.Ltmp170:
	.loc	1 277 51                        @ ../Middlewares/USMART/usmart.c:277:51
	uxtb	r7, r4
	mov	r0, r7
	bl	usmart_get_parmpos
.Ltmp171:
	.loc	1 277 49 is_stmt 0              @ ../Middlewares/USMART/usmart.c:277:49
	add.w	r1, r8, r0
	.loc	1 277 13                        @ ../Middlewares/USMART/usmart.c:277:13
	mov	r0, r6
	bl	__2printf
.Ltmp172:
	.loc	1 278 13 is_stmt 1              @ ../Middlewares/USMART/usmart.c:278:13
	movs	r0, #34
	bl	putchar
.Ltmp173:
	.loc	1 279 53                        @ ../Middlewares/USMART/usmart.c:279:53
	mov	r0, r7
	bl	usmart_get_parmpos
.Ltmp174:
	.loc	1 279 37 is_stmt 0              @ ../Middlewares/USMART/usmart.c:279:37
	add	r0, r8
	.loc	1 279 21                        @ ../Middlewares/USMART/usmart.c:279:21
	str.w	r0, [r5, r4, lsl #2]
	b	.LBB3_7
.Ltmp175:
	.p2align	2
.LBB3_6:                                @   in Loop: Header=BB3_4 Depth=1
	@DEBUG_VALUE: usmart_exe:i <- $r4
	@DEBUG_VALUE: usmart_exe:rval <- [DW_OP_plus_uconst 28, DW_OP_deref] $sp
	@DEBUG_VALUE: usmart_exe:id <- $r9
	.loc	1 283 55 is_stmt 1              @ ../Middlewares/USMART/usmart.c:283:55
	uxtb	r0, r4
	bl	usmart_get_parmpos
.Ltmp176:
	.loc	1 283 53 is_stmt 0              @ ../Middlewares/USMART/usmart.c:283:53
	add	r0, r11
.Ltmp177:
	.loc	1 285 28 is_stmt 1              @ ../Middlewares/USMART/usmart.c:285:28
	ldrb.w	r2, [r11, #23]
.Ltmp178:
	.loc	1 283 23                        @ ../Middlewares/USMART/usmart.c:283:23
	ldr	r1, [r0, #36]
	.loc	1 285 17                        @ ../Middlewares/USMART/usmart.c:285:17
	cmp	r2, #0
	.loc	1 283 21                        @ ../Middlewares/USMART/usmart.c:283:21
	str.w	r1, [r5, r4, lsl #2]
.Ltmp179:
	.loc	1 291 17                        @ ../Middlewares/USMART/usmart.c:291:17
	ite	ne
	movne	r0, r10
.Ltmp180:
	.loc	1 287 17                        @ ../Middlewares/USMART/usmart.c:287:17
	adreq	r0, .LCPI3_3
.Ltmp181:
	.loc	1 0 0 is_stmt 0                 @ ../Middlewares/USMART/usmart.c:0:0
	bl	__2printf
.Ltmp182:
.LBB3_7:                                @   in Loop: Header=BB3_4 Depth=1
	@DEBUG_VALUE: usmart_exe:i <- $r4
	@DEBUG_VALUE: usmart_exe:rval <- [DW_OP_plus_uconst 28, DW_OP_deref] $sp
	@DEBUG_VALUE: usmart_exe:id <- $r9
	.loc	1 295 18 is_stmt 1              @ ../Middlewares/USMART/usmart.c:295:18
	ldrb.w	r0, [sp, #29]
.Ltmp183:
	@DEBUG_VALUE: usmart_exe:pnum <- undef
	.loc	1 295 23 is_stmt 0              @ ../Middlewares/USMART/usmart.c:295:23
	subs	r1, r0, #1
.Ltmp184:
	.loc	1 295 13                        @ ../Middlewares/USMART/usmart.c:295:13
	cmp	r4, r1
	beq	.LBB3_3
.Ltmp185:
@ %bb.8:                                @   in Loop: Header=BB3_4 Depth=1
	@DEBUG_VALUE: usmart_exe:i <- $r4
	@DEBUG_VALUE: usmart_exe:rval <- [DW_OP_plus_uconst 28, DW_OP_deref] $sp
	@DEBUG_VALUE: usmart_exe:id <- $r9
	.loc	1 295 27                        @ ../Middlewares/USMART/usmart.c:295:27
	movs	r0, #44
	bl	putchar
.Ltmp186:
	.loc	1 272 21 is_stmt 1              @ ../Middlewares/USMART/usmart.c:272:21
	ldrb.w	r0, [sp, #29]
	b	.LBB3_3
.Ltmp187:
.LBB3_9:
	@DEBUG_VALUE: usmart_exe:rval <- [DW_OP_plus_uconst 28, DW_OP_deref] $sp
	@DEBUG_VALUE: usmart_exe:id <- $r9
	.loc	1 298 5                         @ ../Middlewares/USMART/usmart.c:298:5
	movs	r0, #41
	bl	putchar
.Ltmp188:
	.loc	1 300 5                         @ ../Middlewares/USMART/usmart.c:300:5
	bl	usmart_timx_reset_time
.Ltmp189:
	.loc	1 303 24                        @ ../Middlewares/USMART/usmart.c:303:24
	ldrb.w	r0, [r11, #21]
	.loc	1 303 5 is_stmt 0               @ ../Middlewares/USMART/usmart.c:303:5
	cmp	r0, #10
	bhi	.LBB3_13
.Ltmp190:
@ %bb.10:
	@DEBUG_VALUE: usmart_exe:rval <- [DW_OP_plus_uconst 28, DW_OP_deref] $sp
	@DEBUG_VALUE: usmart_exe:id <- $r9
	.loc	1 0 5                           @ ../Middlewares/USMART/usmart.c:0:5
.LCPI3_8:
	tbb	[pc, r0]
.Ltmp191:
@ %bb.11:
.LJTI3_0:
	.byte	(.LBB3_12-(.LCPI3_8+4))/2
	.byte	(.LBB3_14-(.LCPI3_8+4))/2
	.byte	(.LBB3_15-(.LCPI3_8+4))/2
	.byte	(.LBB3_16-(.LCPI3_8+4))/2
	.byte	(.LBB3_17-(.LCPI3_8+4))/2
	.byte	(.LBB3_18-(.LCPI3_8+4))/2
	.byte	(.LBB3_19-(.LCPI3_8+4))/2
	.byte	(.LBB3_20-(.LCPI3_8+4))/2
	.byte	(.LBB3_21-(.LCPI3_8+4))/2
	.byte	(.LBB3_22-(.LCPI3_8+4))/2
	.byte	(.LBB3_23-(.LCPI3_8+4))/2
	.p2align	1
.LBB3_12:
.Ltmp192:
	@DEBUG_VALUE: usmart_exe:rval <- [DW_OP_plus_uconst 28, DW_OP_deref] $sp
	@DEBUG_VALUE: usmart_exe:id <- $r9
	.loc	1 306 47 is_stmt 1              @ ../Middlewares/USMART/usmart.c:306:47
	ldr.w	r0, [r11]
	.loc	1 306 56 is_stmt 0              @ ../Middlewares/USMART/usmart.c:306:56
	ldr.w	r0, [r0, r9, lsl #3]
	.loc	1 306 19                        @ ../Middlewares/USMART/usmart.c:306:19
	blx	r0
.Ltmp193:
	.loc	1 0 19                          @ ../Middlewares/USMART/usmart.c:0:19
	b	.LBB3_25
.Ltmp194:
.LBB3_13:
	@DEBUG_VALUE: usmart_exe:rval <- [DW_OP_plus_uconst 28, DW_OP_deref] $sp
	@DEBUG_VALUE: usmart_exe:id <- $r9
                                        @ implicit-def: $r4
	b	.LBB3_26
.Ltmp195:
.LBB3_14:
	@DEBUG_VALUE: usmart_exe:rval <- [DW_OP_plus_uconst 28, DW_OP_deref] $sp
	@DEBUG_VALUE: usmart_exe:id <- $r9
	.loc	1 310 47 is_stmt 1              @ ../Middlewares/USMART/usmart.c:310:47
	ldr.w	r0, [r11]
	.loc	1 310 56 is_stmt 0              @ ../Middlewares/USMART/usmart.c:310:56
	ldr.w	r1, [r0, r9, lsl #3]
	.loc	1 310 62                        @ ../Middlewares/USMART/usmart.c:310:62
	ldr	r0, [sp, #60]
	.loc	1 310 19                        @ ../Middlewares/USMART/usmart.c:310:19
	blx	r1
.Ltmp196:
	.loc	1 0 19                          @ ../Middlewares/USMART/usmart.c:0:19
	b	.LBB3_25
.Ltmp197:
.LBB3_15:
	@DEBUG_VALUE: usmart_exe:rval <- [DW_OP_plus_uconst 28, DW_OP_deref] $sp
	@DEBUG_VALUE: usmart_exe:id <- $r9
	.loc	1 314 47 is_stmt 1              @ ../Middlewares/USMART/usmart.c:314:47
	ldr.w	r0, [r11]
	.loc	1 314 56 is_stmt 0              @ ../Middlewares/USMART/usmart.c:314:56
	ldr.w	r2, [r0, r9, lsl #3]
	.loc	1 314 62                        @ ../Middlewares/USMART/usmart.c:314:62
	ldrd	r0, r1, [sp, #60]
	.loc	1 314 19                        @ ../Middlewares/USMART/usmart.c:314:19
	blx	r2
.Ltmp198:
	.loc	1 0 19                          @ ../Middlewares/USMART/usmart.c:0:19
	b	.LBB3_25
.Ltmp199:
.LBB3_16:
	@DEBUG_VALUE: usmart_exe:rval <- [DW_OP_plus_uconst 28, DW_OP_deref] $sp
	@DEBUG_VALUE: usmart_exe:id <- $r9
	.loc	1 318 47 is_stmt 1              @ ../Middlewares/USMART/usmart.c:318:47
	ldr.w	r0, [r11]
	.loc	1 318 62 is_stmt 0              @ ../Middlewares/USMART/usmart.c:318:62
	add	r2, sp, #60
	.loc	1 318 56                        @ ../Middlewares/USMART/usmart.c:318:56
	ldr.w	r3, [r0, r9, lsl #3]
	.loc	1 318 62                        @ ../Middlewares/USMART/usmart.c:318:62
	ldm	r2, {r0, r1, r2}
	.loc	1 318 19                        @ ../Middlewares/USMART/usmart.c:318:19
	blx	r3
.Ltmp200:
	.loc	1 0 19                          @ ../Middlewares/USMART/usmart.c:0:19
	b	.LBB3_25
.Ltmp201:
.LBB3_17:
	@DEBUG_VALUE: usmart_exe:rval <- [DW_OP_plus_uconst 28, DW_OP_deref] $sp
	@DEBUG_VALUE: usmart_exe:id <- $r9
	.loc	1 322 47 is_stmt 1              @ ../Middlewares/USMART/usmart.c:322:47
	ldr.w	r0, [r11]
	.loc	1 322 62 is_stmt 0              @ ../Middlewares/USMART/usmart.c:322:62
	add	r3, sp, #60
	.loc	1 322 56                        @ ../Middlewares/USMART/usmart.c:322:56
	ldr.w	r7, [r0, r9, lsl #3]
	.loc	1 322 62                        @ ../Middlewares/USMART/usmart.c:322:62
	ldm	r3, {r0, r1, r2, r3}
	.loc	1 0 0                           @ ../Middlewares/USMART/usmart.c:0:0
	blx	r7
.Ltmp202:
	b	.LBB3_25
.Ltmp203:
.LBB3_18:
	@DEBUG_VALUE: usmart_exe:rval <- [DW_OP_plus_uconst 28, DW_OP_deref] $sp
	@DEBUG_VALUE: usmart_exe:id <- $r9
	.loc	1 326 47 is_stmt 1              @ ../Middlewares/USMART/usmart.c:326:47
	ldr.w	r0, [r11]
	.loc	1 326 62 is_stmt 0              @ ../Middlewares/USMART/usmart.c:326:62
	add	r6, sp, #60
	.loc	1 326 56                        @ ../Middlewares/USMART/usmart.c:326:56
	ldr.w	r7, [r0, r9, lsl #3]
	.loc	1 326 62                        @ ../Middlewares/USMART/usmart.c:326:62
	ldm	r6, {r0, r1, r2, r3, r6}
	.loc	1 326 19                        @ ../Middlewares/USMART/usmart.c:326:19
	str	r6, [sp]
	.loc	1 0 0                           @ ../Middlewares/USMART/usmart.c:0:0
	blx	r7
.Ltmp204:
	b	.LBB3_25
.Ltmp205:
.LBB3_19:
	@DEBUG_VALUE: usmart_exe:rval <- [DW_OP_plus_uconst 28, DW_OP_deref] $sp
	@DEBUG_VALUE: usmart_exe:id <- $r9
	.loc	1 330 47 is_stmt 1              @ ../Middlewares/USMART/usmart.c:330:47
	ldr.w	r0, [r11]
	.loc	1 330 62 is_stmt 0              @ ../Middlewares/USMART/usmart.c:330:62
	add	r6, sp, #60
	.loc	1 330 56                        @ ../Middlewares/USMART/usmart.c:330:56
	ldr.w	r7, [r0, r9, lsl #3]
	.loc	1 330 62                        @ ../Middlewares/USMART/usmart.c:330:62
	ldm	r6, {r0, r1, r2, r3, r6}
	.loc	1 331 21 is_stmt 1              @ ../Middlewares/USMART/usmart.c:331:21
	ldr	r5, [sp, #80]
	.loc	1 330 19                        @ ../Middlewares/USMART/usmart.c:330:19
	strd	r6, r5, [sp]
	.loc	1 0 0 is_stmt 0                 @ ../Middlewares/USMART/usmart.c:0:0
	blx	r7
.Ltmp206:
	b	.LBB3_25
.Ltmp207:
.LBB3_20:
	@DEBUG_VALUE: usmart_exe:rval <- [DW_OP_plus_uconst 28, DW_OP_deref] $sp
	@DEBUG_VALUE: usmart_exe:id <- $r9
	.loc	1 335 47 is_stmt 1              @ ../Middlewares/USMART/usmart.c:335:47
	ldr.w	r0, [r11]
	.loc	1 335 62 is_stmt 0              @ ../Middlewares/USMART/usmart.c:335:62
	add	r6, sp, #60
	.loc	1 335 56                        @ ../Middlewares/USMART/usmart.c:335:56
	ldr.w	r7, [r0, r9, lsl #3]
	.loc	1 335 62                        @ ../Middlewares/USMART/usmart.c:335:62
	ldm	r6, {r0, r1, r2, r3, r6}
	.loc	1 336 21 is_stmt 1              @ ../Middlewares/USMART/usmart.c:336:21
	ldrd	r5, r4, [sp, #80]
	.loc	1 335 19                        @ ../Middlewares/USMART/usmart.c:335:19
	strd	r6, r5, [sp]
	str	r4, [sp, #8]
	.loc	1 0 0 is_stmt 0                 @ ../Middlewares/USMART/usmart.c:0:0
	blx	r7
.Ltmp208:
	b	.LBB3_25
.Ltmp209:
.LBB3_21:
	@DEBUG_VALUE: usmart_exe:rval <- [DW_OP_plus_uconst 28, DW_OP_deref] $sp
	@DEBUG_VALUE: usmart_exe:id <- $r9
	.loc	1 340 47 is_stmt 1              @ ../Middlewares/USMART/usmart.c:340:47
	ldr.w	r0, [r11]
	.loc	1 341 21                        @ ../Middlewares/USMART/usmart.c:341:21
	ldrd	r5, r4, [sp, #80]
	.loc	1 341 39 is_stmt 0              @ ../Middlewares/USMART/usmart.c:341:39
	ldr	r7, [sp, #88]
	.loc	1 340 56 is_stmt 1              @ ../Middlewares/USMART/usmart.c:340:56
	ldr.w	r12, [r0, r9, lsl #3]
	.loc	1 340 62 is_stmt 0              @ ../Middlewares/USMART/usmart.c:340:62
	add	r6, sp, #60
	ldm	r6, {r0, r1, r2, r3, r6}
	.loc	1 340 19                        @ ../Middlewares/USMART/usmart.c:340:19
	strd	r6, r5, [sp]
	strd	r4, r7, [sp, #8]
	b	.LBB3_24
.Ltmp210:
.LBB3_22:
	@DEBUG_VALUE: usmart_exe:rval <- [DW_OP_plus_uconst 28, DW_OP_deref] $sp
	@DEBUG_VALUE: usmart_exe:id <- $r9
	.loc	1 345 47 is_stmt 1              @ ../Middlewares/USMART/usmart.c:345:47
	ldr.w	r0, [r11]
	.loc	1 346 21                        @ ../Middlewares/USMART/usmart.c:346:21
	ldrd	r5, r4, [sp, #80]
	.loc	1 345 62                        @ ../Middlewares/USMART/usmart.c:345:62
	add	r6, sp, #60
	.loc	1 345 56 is_stmt 0              @ ../Middlewares/USMART/usmart.c:345:56
	ldr.w	r12, [r0, r9, lsl #3]
	.loc	1 345 62                        @ ../Middlewares/USMART/usmart.c:345:62
	ldm	r6, {r0, r1, r2, r3, r6}
	.loc	1 345 19                        @ ../Middlewares/USMART/usmart.c:345:19
	strd	r6, r5, [sp]
	add	r5, sp, #8
	.loc	1 346 39 is_stmt 1              @ ../Middlewares/USMART/usmart.c:346:39
	ldrd	r7, lr, [sp, #88]
	.loc	1 345 19                        @ ../Middlewares/USMART/usmart.c:345:19
	stm.w	r5, {r4, r7, lr}
	b	.LBB3_24
.Ltmp211:
.LBB3_23:
	@DEBUG_VALUE: usmart_exe:rval <- [DW_OP_plus_uconst 28, DW_OP_deref] $sp
	@DEBUG_VALUE: usmart_exe:id <- $r9
	.loc	1 350 47                        @ ../Middlewares/USMART/usmart.c:350:47
	ldr.w	r0, [r11]
	.loc	1 350 62 is_stmt 0              @ ../Middlewares/USMART/usmart.c:350:62
	add	r6, sp, #60
	.loc	1 351 21 is_stmt 1              @ ../Middlewares/USMART/usmart.c:351:21
	ldrd	r5, r4, [sp, #80]
	.loc	1 350 56                        @ ../Middlewares/USMART/usmart.c:350:56
	ldr.w	r12, [r0, r9, lsl #3]
	.loc	1 350 62 is_stmt 0              @ ../Middlewares/USMART/usmart.c:350:62
	ldm	r6, {r0, r1, r2, r3, r6}
	.loc	1 351 57 is_stmt 1              @ ../Middlewares/USMART/usmart.c:351:57
	ldr.w	r8, [sp, #96]
	.loc	1 350 19                        @ ../Middlewares/USMART/usmart.c:350:19
	strd	r6, r5, [sp]
	add	r5, sp, #8
	.loc	1 351 39                        @ ../Middlewares/USMART/usmart.c:351:39
	ldrd	r7, lr, [sp, #88]
	.loc	1 350 19                        @ ../Middlewares/USMART/usmart.c:350:19
	stm.w	r5, {r4, r7, lr}
	str.w	r8, [sp, #20]
.Ltmp212:
.LBB3_24:
	@DEBUG_VALUE: usmart_exe:rval <- [DW_OP_plus_uconst 28, DW_OP_deref] $sp
	@DEBUG_VALUE: usmart_exe:id <- $r9
	.loc	1 0 0 is_stmt 0                 @ ../Middlewares/USMART/usmart.c:0:0
	blx	r12
.Ltmp213:
.LBB3_25:
	@DEBUG_VALUE: usmart_exe:rval <- [DW_OP_plus_uconst 28, DW_OP_deref] $sp
	@DEBUG_VALUE: usmart_exe:id <- $r9
	mov	r4, r0
.Ltmp214:
	@DEBUG_VALUE: usmart_exe:res <- $r4
.LBB3_26:
	@DEBUG_VALUE: usmart_exe:rval <- [DW_OP_plus_uconst 28, DW_OP_deref] $sp
	@DEBUG_VALUE: usmart_exe:id <- $r9
	@DEBUG_VALUE: usmart_exe:res <- $r4
	.loc	1 356 5 is_stmt 1               @ ../Middlewares/USMART/usmart.c:356:5
	bl	usmart_timx_get_time
.Ltmp215:
	.loc	1 359 9                         @ ../Middlewares/USMART/usmart.c:359:9
	ldrb.w	r0, [sp, #28]
.Ltmp216:
	@DEBUG_VALUE: usmart_exe:rval <- $r0
	.loc	1 359 9 is_stmt 0               @ ../Middlewares/USMART/usmart.c:359:9
	cmp	r0, #1
	bne	.LBB3_28
.Ltmp217:
@ %bb.27:
	@DEBUG_VALUE: usmart_exe:rval <- $r0
	@DEBUG_VALUE: usmart_exe:res <- $r4
	@DEBUG_VALUE: usmart_exe:id <- $r9
	.loc	1 361 24 is_stmt 1              @ ../Middlewares/USMART/usmart.c:361:24
	ldrb.w	r0, [r11, #23]
.Ltmp218:
	.loc	1 0 0 is_stmt 0                 @ ../Middlewares/USMART/usmart.c:0:0
	mov	r1, r4
.Ltmp219:
	.loc	1 361 13                        @ ../Middlewares/USMART/usmart.c:361:13
	cmp	r0, #0
.Ltmp220:
	.loc	1 361 46                        @ ../Middlewares/USMART/usmart.c:361:46
	ite	eq
	adreq	r0, .LCPI3_6
	.loc	1 362 14 is_stmt 1              @ ../Middlewares/USMART/usmart.c:362:14
	adrne	r0, .LCPI3_5
	.loc	1 0 0 is_stmt 0                 @ ../Middlewares/USMART/usmart.c:0:0
	bl	__2printf
.Ltmp221:
	b	.LBB3_29
.Ltmp222:
.LBB3_28:
	@DEBUG_VALUE: usmart_exe:rval <- $r0
	@DEBUG_VALUE: usmart_exe:res <- $r4
	@DEBUG_VALUE: usmart_exe:id <- $r9
	.loc	1 364 10 is_stmt 1              @ ../Middlewares/USMART/usmart.c:364:10
	adr	r0, .LCPI3_4
.Ltmp223:
	bl	puts
.Ltmp224:
.LBB3_29:
	@DEBUG_VALUE: usmart_exe:res <- $r4
	@DEBUG_VALUE: usmart_exe:id <- $r9
	.loc	1 366 20                        @ ../Middlewares/USMART/usmart.c:366:20
	ldrb.w	r0, [r11, #236]
.Ltmp225:
	.loc	1 366 9 is_stmt 0               @ ../Middlewares/USMART/usmart.c:366:9
	cbz	r0, .LBB3_31
.Ltmp226:
@ %bb.30:
	@DEBUG_VALUE: usmart_exe:res <- $r4
	@DEBUG_VALUE: usmart_exe:id <- $r9
	.loc	1 368 68 is_stmt 1              @ ../Middlewares/USMART/usmart.c:368:68
	ldr.w	r0, [r11, #240]
	movw	r1, #52429
	movt	r1, #52428
	.loc	1 368 76 is_stmt 0              @ ../Middlewares/USMART/usmart.c:368:76
	umull	r1, r2, r0, r1
	lsrs	r1, r2, #3
	add.w	r2, r1, r1, lsl #2
	sub.w	r2, r0, r2, lsl #1
	.loc	1 368 9                         @ ../Middlewares/USMART/usmart.c:368:9
	adr	r0, .LCPI3_7
	bl	__2printf
.Ltmp227:
.LBB3_31:
	@DEBUG_VALUE: usmart_exe:id <- $r9
	.loc	1 370 1 is_stmt 1               @ ../Middlewares/USMART/usmart.c:370:1
	add	sp, #100
	pop.w	{r4, r5, r6, r7, r8, r9, r10, r11, pc}
.Ltmp228:
	.p2align	2
@ %bb.32:
	.loc	1 0 1 is_stmt 0                 @ ../Middlewares/USMART/usmart.c:0:1
.LCPI3_0:
.L.str.35:
	.asciz	"\r\n%s(\000\000"
.LCPI3_1:
.L.str.37:
	.asciz	"%s\000"
.LCPI3_2:
.L.str.39:
	.asciz	"0X%X\000\000\000"
.LCPI3_3:
.L.str.38:
	.asciz	"%ld"
.LCPI3_4:
.Lstr.83:
	.asciz	";\r\000"
.LCPI3_5:
.L.str.43:
	.asciz	"=0X%X;\r\n\000\000\000"
.LCPI3_6:
.L.str.42:
	.asciz	"=%lu;\r\n"
.LCPI3_7:
.L.str.45:
	.asciz	"Function Run Time:%d.%1dms\r\n\000\000\000"
.Lfunc_end3:
	.size	usmart_exe, .Lfunc_end3-usmart_exe
	.cfi_endproc
	.cantunwind
	.fnend
                                        @ -- End function
	.section	.text.usmart_scan,"ax",%progbits
	.hidden	usmart_scan                     @ -- Begin function usmart_scan
	.globl	usmart_scan
	.p2align	2
	.type	usmart_scan,%function
	.code	16                              @ @usmart_scan
	.thumb_func
usmart_scan:
.Lfunc_begin4:
	.loc	1 384 0 is_stmt 1               @ ../Middlewares/USMART/usmart.c:384:0
	.fnstart
	.cfi_startproc
@ %bb.0:
	.save	{r4, r5, r6, lr}
	push	{r4, r5, r6, lr}
	.cfi_def_cfa_offset 16
	.cfi_offset lr, -4
	.cfi_offset r6, -8
	.cfi_offset r5, -12
	.cfi_offset r4, -16
.Ltmp229:
	@DEBUG_VALUE: usmart_scan:pbuf <- 0
	.loc	1 388 12 prologue_end           @ ../Middlewares/USMART/usmart.c:388:12
	bl	usmart_get_input_string
.Ltmp230:
	@DEBUG_VALUE: usmart_scan:pbuf <- $r0
	.loc	1 389 9                         @ ../Middlewares/USMART/usmart.c:389:9
	cbz	r0, .LBB4_6
.Ltmp231:
@ %bb.1:
	@DEBUG_VALUE: usmart_scan:pbuf <- $r0
	.loc	1 391 22                        @ ../Middlewares/USMART/usmart.c:391:22
	movw	r6, :lower16:usmart_dev
	movt	r6, :upper16:usmart_dev
	ldr	r1, [r6, #8]
	.loc	1 0 0 is_stmt 0                 @ ../Middlewares/USMART/usmart.c:0:0
	mov	r4, r0
.Ltmp232:
	@DEBUG_VALUE: usmart_scan:pbuf <- $r4
	.loc	1 391 11                        @ ../Middlewares/USMART/usmart.c:391:11
	blx	r1
.Ltmp233:
	@DEBUG_VALUE: usmart_scan:sta <- $r0
	.loc	1 393 9 is_stmt 1               @ ../Middlewares/USMART/usmart.c:393:9
	cbz	r0, .LBB4_7
.Ltmp234:
@ %bb.2:
	@DEBUG_VALUE: usmart_scan:sta <- $r0
	@DEBUG_VALUE: usmart_scan:pbuf <- $r4
	.loc	1 0 0 is_stmt 0                 @ ../Middlewares/USMART/usmart.c:0:0
	mov	r5, r0
.Ltmp235:
	@DEBUG_VALUE: usmart_scan:sta <- $r5
	@DEBUG_VALUE: usmart_scan:sta <- $r5
	.loc	1 399 15 is_stmt 1              @ ../Middlewares/USMART/usmart.c:399:15
	mov	r0, r4
	bl	usmart_sys_cmd_exe
.Ltmp236:
	@DEBUG_VALUE: usmart_scan:len <- $r0
	.loc	1 401 13                        @ ../Middlewares/USMART/usmart.c:401:13
	cmp	r0, #1
	it	ne
	movne	r5, r0
.Ltmp237:
	@DEBUG_VALUE: usmart_scan:len <- $r5
	@DEBUG_VALUE: usmart_scan:sta <- $r5
	.loc	1 403 13                        @ ../Middlewares/USMART/usmart.c:403:13
	subs	r0, r5, #1
	cmp	r0, #3
.Ltmp238:
	.loc	1 426 1                         @ ../Middlewares/USMART/usmart.c:426:1
	it	hi
	pophi	{r4, r5, r6, pc}
.Ltmp239:
.LBB4_3:
	.loc	1 0 1 is_stmt 0                 @ ../Middlewares/USMART/usmart.c:0:1
.LCPI4_4:
	tbb	[pc, r0]
@ %bb.4:
.LJTI4_0:
	.byte	(.LBB4_5-(.LCPI4_4+4))/2
	.byte	(.LBB4_8-(.LCPI4_4+4))/2
	.byte	(.LBB4_9-(.LCPI4_4+4))/2
	.byte	(.LBB4_10-(.LCPI4_4+4))/2
	.p2align	1
.LBB4_5:
.Ltmp240:
	.loc	1 408 21 is_stmt 1              @ ../Middlewares/USMART/usmart.c:408:21
	adr	r0, .LCPI4_2
	pop.w	{r4, r5, r6, lr}
.Ltmp241:
	b	puts
.Ltmp242:
.LBB4_6:
	@DEBUG_VALUE: usmart_scan:pbuf <- $r0
	.loc	1 426 1                         @ ../Middlewares/USMART/usmart.c:426:1
	pop	{r4, r5, r6, pc}
.Ltmp243:
.LBB4_7:
	@DEBUG_VALUE: usmart_scan:sta <- $r0
	@DEBUG_VALUE: usmart_scan:pbuf <- $r4
	.loc	1 395 20                        @ ../Middlewares/USMART/usmart.c:395:20
	ldr	r0, [r6, #12]
.Ltmp244:
	.loc	1 395 9 is_stmt 0               @ ../Middlewares/USMART/usmart.c:395:9
	pop.w	{r4, r5, r6, lr}
.Ltmp245:
	bx	r0
.Ltmp246:
.LBB4_8:
	.loc	1 412 21 is_stmt 1              @ ../Middlewares/USMART/usmart.c:412:21
	adr	r0, .LCPI4_1
	pop.w	{r4, r5, r6, lr}
.Ltmp247:
	b	puts
.Ltmp248:
.LBB4_9:
	.loc	1 416 21                        @ ../Middlewares/USMART/usmart.c:416:21
	adr	r0, .LCPI4_0
	pop.w	{r4, r5, r6, lr}
.Ltmp249:
	b	puts
.Ltmp250:
.LBB4_10:
	.loc	1 420 21                        @ ../Middlewares/USMART/usmart.c:420:21
	adr	r0, .LCPI4_3
	pop.w	{r4, r5, r6, lr}
.Ltmp251:
	b	puts
.Ltmp252:
	.p2align	2
@ %bb.11:
	.loc	1 0 21 is_stmt 0                @ ../Middlewares/USMART/usmart.c:0:21
.LCPI4_0:
.Lstr.85:
	.asciz	"\262\316\312\375\314\253\266\340!\r\000"
.LCPI4_1:
.Lstr.86:
	.asciz	"\262\316\312\375\264\355\316\363!\r\000"
.LCPI4_2:
.Lstr.87:
	.asciz	"\272\257\312\375\264\355\316\363!\r\000"
.LCPI4_3:
.Lstr.84:
	.asciz	"\316\264\325\322\265\275\306\245\305\344\265\304\272\257\312\375!\r\000"
.Lfunc_end4:
	.size	usmart_scan, .Lfunc_end4-usmart_scan
	.cfi_endproc
	.cantunwind
	.fnend
                                        @ -- End function
	.section	.text.read_addr,"ax",%progbits
	.hidden	read_addr                       @ -- Begin function read_addr
	.globl	read_addr
	.p2align	2
	.type	read_addr,%function
	.code	16                              @ @read_addr
	.thumb_func
read_addr:
.Lfunc_begin5:
	.loc	1 436 0 is_stmt 1               @ ../Middlewares/USMART/usmart.c:436:0
	.fnstart
	.cfi_startproc
@ %bb.0:
	@DEBUG_VALUE: read_addr:addr <- $r0
	.loc	1 437 12 prologue_end           @ ../Middlewares/USMART/usmart.c:437:12
	ldr	r0, [r0]
.Ltmp253:
	@DEBUG_VALUE: read_addr:addr <- [DW_OP_LLVM_entry_value 1] $r0
	.loc	1 437 5 is_stmt 0               @ ../Middlewares/USMART/usmart.c:437:5
	bx	lr
.Ltmp254:
.Lfunc_end5:
	.size	read_addr, .Lfunc_end5-read_addr
	.cfi_endproc
	.cantunwind
	.fnend
                                        @ -- End function
	.section	.text.write_addr,"ax",%progbits
	.hidden	write_addr                      @ -- Begin function write_addr
	.globl	write_addr
	.p2align	2
	.type	write_addr,%function
	.code	16                              @ @write_addr
	.thumb_func
write_addr:
.Lfunc_begin6:
	.loc	1 446 0 is_stmt 1               @ ../Middlewares/USMART/usmart.c:446:0
	.fnstart
	.cfi_startproc
@ %bb.0:
	@DEBUG_VALUE: write_addr:addr <- $r0
	@DEBUG_VALUE: write_addr:val <- $r1
	.loc	1 447 23 prologue_end           @ ../Middlewares/USMART/usmart.c:447:23
	str	r1, [r0]
	.loc	1 448 1                         @ ../Middlewares/USMART/usmart.c:448:1
	bx	lr
.Ltmp255:
.Lfunc_end6:
	.size	write_addr, .Lfunc_end6-write_addr
	.cfi_endproc
	.cantunwind
	.fnend
                                        @ -- End function
	.type	.L.str,%object                  @ @.str
	.section	.rodata.str1.1,"aMS",%progbits,1
.L.str:
	.asciz	"?"
	.size	.L.str, 2

	.type	.L.str.1,%object                @ @.str.1
.L.str.1:
	.asciz	"help"
	.size	.L.str.1, 5

	.type	.L.str.2,%object                @ @.str.2
.L.str.2:
	.asciz	"list"
	.size	.L.str.2, 5

	.type	.L.str.3,%object                @ @.str.3
.L.str.3:
	.asciz	"id"
	.size	.L.str.3, 3

	.type	.L.str.4,%object                @ @.str.4
.L.str.4:
	.asciz	"hex"
	.size	.L.str.4, 4

	.type	.L.str.5,%object                @ @.str.5
.L.str.5:
	.asciz	"dec"
	.size	.L.str.5, 4

	.type	.L.str.6,%object                @ @.str.6
.L.str.6:
	.asciz	"runtime"
	.size	.L.str.6, 8

	.hidden	sys_cmd_tab                     @ @sys_cmd_tab
	.type	sys_cmd_tab,%object
	.section	.data.sys_cmd_tab,"aw",%progbits
	.globl	sys_cmd_tab
	.p2align	2, 0x0
sys_cmd_tab:
	.long	.L.str
	.long	.L.str.1
	.long	.L.str.2
	.long	.L.str.3
	.long	.L.str.4
	.long	.L.str.5
	.long	.L.str.6
	.size	sys_cmd_tab, 28

	.type	.Lstr.60,%object                @ @str.60
	.section	.rodata.str1.1,"aMS",%progbits,1
.Lstr.60:
	.asciz	"-------------------------\272\257\312\375 ID --------------------------- \r"
	.size	.Lstr.60, 63

	.type	.Lstr.63,%object                @ @str.63
.Lstr.63:
	.asciz	"-------------------------\272\257\312\375\307\345\265\245--------------------------- \r"
	.size	.Lstr.63, 63

	.type	.Lstr.65,%object                @ @str.65
.Lstr.65:
	.asciz	"\r"
	.size	.Lstr.65, 2

	.type	.Lstr.66,%object                @ @str.66
.Lstr.66:
	.asciz	"------------------------USMART V3.5------------------------ \r"
	.size	.Lstr.66, 62

	.type	.Lstr.67,%object                @ @str.67
.Lstr.67:
	.asciz	"    USMART\312\307\323\311ALIENTEK\277\252\267\242\265\304\322\273\270\366\301\351\307\311\265\304\264\256\277\332\265\367\312\324\273\245\275\273\327\351\274\376,\315\250\271\375 \r"
	.size	.Lstr.67, 62

	.type	.Lstr.68,%object                @ @str.68
.Lstr.68:
	.asciz	"\313\374,\304\343\277\311\322\324\315\250\271\375\264\256\277\332\326\372\312\326\265\367\323\303\263\314\320\362\300\357\303\346\265\304\310\316\272\316\272\257\312\375,\262\242\326\264\320\320.\322\362\264\313,\304\343\277\311\r"
	.size	.Lstr.68, 62

	.type	.Lstr.69,%object                @ @str.69
.Lstr.69:
	.asciz	"\322\324\313\346\322\342\270\374\270\304\272\257\312\375\265\304\312\344\310\353\262\316\312\375(\326\247\263\326\312\375\327\326(10/16\275\370\326\306,\326\247\263\326\270\272\312\375)\241\242\327\326\267\373\264\256\r"
	.size	.Lstr.69, 63

	.type	.Lstr.70,%object                @ @str.70
.Lstr.70:
	.asciz	"\241\242\272\257\312\375\310\353\277\332\265\330\326\267\265\310\327\367\316\252\262\316\312\375),\265\245\270\366\272\257\312\375\327\356\266\340\326\247\263\32610\270\366\312\344\310\353\262\316\312\375,\262\242\326\247\263\326\r"
	.size	.Lstr.70, 63

	.type	.Lstr.71,%object                @ @str.71
.Lstr.71:
	.asciz	"\272\257\312\375\267\265\273\330\326\265\317\324\312\276.\326\247\263\326\262\316\312\375\317\324\312\276\275\370\326\306\311\350\326\303\271\246\304\334,\326\247\263\326\275\370\326\306\327\252\273\273\271\246\304\334.\r"
	.size	.Lstr.71, 59

	.type	.Lstr.72,%object                @ @str.72
.Lstr.72:
	.asciz	"\274\274\312\365\326\247\263\326:www.openedv.com\r"
	.size	.Lstr.72, 26

	.type	.Lstr.73,%object                @ @str.73
.Lstr.73:
	.asciz	"USMART\323\3207\270\366\317\265\315\263\303\374\301\356(\261\330\320\353\320\241\320\264):\r"
	.size	.Lstr.73, 32

	.type	.Lstr.74,%object                @ @str.74
.Lstr.74:
	.asciz	"?:      \273\361\310\241\260\357\326\372\320\305\317\242\r"
	.size	.Lstr.74, 22

	.type	.Lstr.75,%object                @ @str.75
.Lstr.75:
	.asciz	"help:   \273\361\310\241\260\357\326\372\320\305\317\242\r"
	.size	.Lstr.75, 22

	.type	.Lstr.76,%object                @ @str.76
.Lstr.76:
	.asciz	"list:   \277\311\323\303\265\304\272\257\312\375\301\320\261\355\r\n"
	.size	.Lstr.76, 25

	.type	.Lstr.77,%object                @ @str.77
.Lstr.77:
	.asciz	"id:     \277\311\323\303\272\257\312\375\265\304ID\301\320\261\355\r\n"
	.size	.Lstr.77, 27

	.type	.Lstr.78,%object                @ @str.78
.Lstr.78:
	.asciz	"hex:    \262\316\312\37516\275\370\326\306\317\324\312\276,\272\363\270\372\277\325\270\361+\312\375\327\326\274\264\326\264\320\320\275\370\326\306\327\252\273\273\r\n"
	.size	.Lstr.78, 53

	.type	.Lstr.79,%object                @ @str.79
.Lstr.79:
	.asciz	"dec:    \262\316\312\37510\275\370\326\306\317\324\312\276,\272\363\270\372\277\325\270\361+\312\375\327\326\274\264\326\264\320\320\275\370\326\306\327\252\273\273\r\n"
	.size	.Lstr.79, 53

	.type	.Lstr.80,%object                @ @str.80
.Lstr.80:
	.asciz	"runtime:1,\277\252\306\364\272\257\312\375\324\313\320\320\274\306\312\261;0,\271\330\261\325\272\257\312\375\324\313\320\320\274\306\312\261;\r\n"
	.size	.Lstr.80, 49

	.type	.Lstr.81,%object                @ @str.81
.Lstr.81:
	.asciz	"\307\353\260\264\325\325\263\314\320\362\261\340\320\264\270\361\312\275\312\344\310\353\272\257\312\375\303\373\274\260\262\316\312\375\262\242\322\324\273\330\263\265\274\374\275\341\312\370.\r"
	.size	.Lstr.81, 51

	.type	.Lstr.82,%object                @ @str.82
.Lstr.82:
	.asciz	"--------------------------\325\375\265\343\324\255\327\323------------------------- \r"
	.size	.Lstr.82, 62

	.hidden	_printf_percent
	.hidden	_printf_flags
	.hidden	_printf_widthprec
	.hidden	_printf_pre_padding
	.hidden	_printf_sizespec
	.hidden	_printf_s
	.hidden	_printf_x
	.hidden	_printf_d
	.hidden	_printf_u
	.hidden	_printf_int_dec
	.hidden	_printf_longlong_hex
	.hidden	_printf_str
	.section	".note.GNU-stack","",%progbits
	.eabi_attribute	30, 1	@ Tag_ABI_optimization_goals
	.ARM_attribute	16, 1	@ Tag_AV_eba