	.text
	.syntax unified
	.eabi_attribute	67, "2.09"	@ Tag_conformance
	.cpu	cortex-m4
	.eabi_attribute	6, 13	@ Tag_CPU_arch
	.eabi_attribute	7, 77	@ Tag_CPU_arch_profile
	.eabi_attribute	8, 0	@ Tag_ARM_ISA_use
	.eabi_attribute	9, 2	@ Tag_THUMB_ISA_use
	.fpu	fpv4-sp-d16
	.eabi_attribute	27, 1	@ Tag_ABI_HardFP_use
	.eabi_attribute	36, 1	@ Tag_FP_HP_extension
	.eabi_attribute	34, 1	@ Tag_CPU_unaligned_access
	.eabi_attribute	17, 1	@ Tag_ABI_PCS_GOT_use
	.eabi_attribute	20, 2	@ Tag_ABI_FP_denormal
	.eabi_attribute	21, 0	@ Tag_ABI_FP_exceptions
	.eabi_attribute	23, 1	@ Tag_ABI_FP_number_model
	.eabi_attribute	24, 1	@ Tag_ABI_align_needed
	.eabi_attribute	25, 1	@ Tag_ABI_align_preserved
	.eabi_attribute	28, 1	@ Tag_ABI_VFP_args
	.eabi_attribute	38, 1	@ Tag_ABI_FP_16bit_format
	.eabi_attribute	18, 2	@ Tag_ABI_PCS_wchar_t
	.eabi_attribute	26, 1	@ Tag_ABI_enum_size
	.eabi_attribute	14, 0	@ Tag_ABI_PCS_R9_use
	.file	"key.c"
	.file	1 "E:\\dianzi\\MDKv5\\ARM\\ARMCLANG\\Bin\\..\\include" "stdint.h"
	.file	2 "E:\\StudyNote\\study_STM32-HAL\\STM32F4_Quick_Start_Guide_HAL\\2.code\\19.RTC-Alarms\\Project" "../User/BSP/key/key.c"
	.file	3 "E:\\StudyNote\\study_STM32-HAL\\STM32F4_Quick_Start_Guide_HAL\\2.code\\19.RTC-Alarms\\Project" "../Libraries/STM32F4xx_HAL_Driver/Inc\\stm32f4xx_hal_gpio.h"
	.file	4 "E:\\StudyNote\\study_STM32-HAL\\STM32F4_Quick_Start_Guide_HAL\\2.code\\19.RTC-Alarms\\Project" "../Libraries/CMSIS/Device/ST/STM32F4xx/Include/stm32f407xx.h"
	.section	.text.bsp_key_init,"ax",%progbits
	.hidden	bsp_key_init                    @ -- Begin function bsp_key_init
	.globl	bsp_key_init
	.p2align	2
	.type	bsp_key_init,%function
	.code	16                              @ @bsp_key_init
	.thumb_func
bsp_key_init:
.Lfunc_begin0:
	.loc	2 4 0                           @ ../User/BSP/key/key.c:4:0
	.fnstart
	.cfi_sections .debug_frame
	.cfi_startproc
@ %bb.0:
	.save	{r4, r5, r6, r7, r8, lr}
	push.w	{r4, r5, r6, r7, r8, lr}
	.cfi_def_cfa_offset 24
	.cfi_offset lr, -4
	.cfi_offset r8, -8
	.cfi_offset r7, -12
	.cfi_offset r6, -16
	.cfi_offset r5, -20
	.cfi_offset r4, -24
	.pad	#24
	sub	sp, #24
	.cfi_def_cfa_offset 48
	movs	r6, #0
	movw	r0, #14384
.Ltmp0:
	.loc	2 6 5 prologue_end              @ ../User/BSP/key/key.c:6:5
	str	r6, [sp, #4]
	movt	r0, #16386
	ldr	r1, [r0]
	movw	r5, #4096
	orr	r1, r1, #16
	str	r1, [r0]
	ldr	r1, [r0]
	movt	r5, #16386
	and	r1, r1, #16
	str	r1, [sp, #4]
	ldr	r1, [sp, #4]
.Ltmp1:
	.loc	2 7 5                           @ ../User/BSP/key/key.c:7:5
	str	r6, [sp, #4]
	ldr	r1, [r0]
	add.w	r8, sp, #4
	orr	r1, r1, #1
	str	r1, [r0]
	ldr	r0, [r0]
	movs	r4, #1
	and	r0, r0, #1
	str	r0, [sp, #4]
	ldr	r0, [sp, #4]
	movs	r0, #16
.Ltmp2:
	.loc	2 9 28                          @ ../User/BSP/key/key.c:9:28
	strd	r0, r6, [sp, #4]
	movs	r7, #2
	.loc	2 13 5                          @ ../User/BSP/key/key.c:13:5
	mov	r0, r5
	mov	r1, r8
	.loc	2 11 29                         @ ../User/BSP/key/key.c:11:29
	str	r4, [sp, #12]
	.loc	2 12 30                         @ ../User/BSP/key/key.c:12:30
	str	r7, [sp, #16]
	.loc	2 13 5                          @ ../User/BSP/key/key.c:13:5
	bl	HAL_GPIO_Init
.Ltmp3:
	.loc	2 0 5 is_stmt 0                 @ ../User/BSP/key/key.c:0:5
	movs	r0, #8
	.loc	2 15 28 is_stmt 1               @ ../User/BSP/key/key.c:15:28
	strd	r0, r6, [sp, #4]
	.loc	2 19 5                          @ ../User/BSP/key/key.c:19:5
	mov	r0, r5
	mov	r1, r8
	.loc	2 17 29                         @ ../User/BSP/key/key.c:17:29
	strd	r4, r7, [sp, #12]
	.loc	2 19 5                          @ ../User/BSP/key/key.c:19:5
	bl	HAL_GPIO_Init
.Ltmp4:
	.loc	2 0 5 is_stmt 0                 @ ../User/BSP/key/key.c:0:5
	movs	r0, #4
	.loc	2 21 28 is_stmt 1               @ ../User/BSP/key/key.c:21:28
	strd	r0, r6, [sp, #4]
	.loc	2 25 5                          @ ../User/BSP/key/key.c:25:5
	mov	r0, r5
	mov	r1, r8
	.loc	2 23 29                         @ ../User/BSP/key/key.c:23:29
	strd	r4, r7, [sp, #12]
	.loc	2 25 5                          @ ../User/BSP/key/key.c:25:5
	bl	HAL_GPIO_Init
.Ltmp5:
	.loc	2 27 28                         @ ../User/BSP/key/key.c:27:28
	add	r0, sp, #4
	stm	r0!, {r4, r6, r7}
	.loc	2 31 5                          @ ../User/BSP/key/key.c:31:5
	sub.w	r0, r5, #4096
	mov	r1, r8
	.loc	2 30 30                         @ ../User/BSP/key/key.c:30:30
	str	r7, [sp, #16]
	.loc	2 31 5                          @ ../User/BSP/key/key.c:31:5
	bl	HAL_GPIO_Init
.Ltmp6:
	.loc	2 32 1                          @ ../User/BSP/key/key.c:32:1
	add	sp, #24
	pop.w	{r4, r5, r6, r7, r8, pc}
.Ltmp7:
.Lfunc_end0:
	.size	bsp_key_init, .Lfunc_end0-bsp_key_init
	.cfi_endproc
	.cantunwind
	.fnend
                                        @ -- End function
	.section	.text.key_scan,"ax",%progbits
	.hidden	key_scan                        @ -- Begin function key_scan
	.globl	key_scan
	.p2align	2
	.type	key_scan,%function
	.code	16                              @ @key_scan
	.thumb_func
key_scan:
.Lfunc_begin1:
	.loc	2 35 0                          @ ../User/BSP/key/key.c:35:0
	.fnstart
	.cfi_startproc
@ %bb.0:
	@DEBUG_VALUE: key_scan:mode <- $r0
	.save	{r4, r5, r6, lr}
	push	{r4, r5, r6, lr}
	.cfi_def_cfa_offset 16
	.cfi_offset lr, -4
	.cfi_offset r6, -8
	.cfi_offset r5, -12
	.cfi_offset r4, -16
	movw	r4, #4096
	movw	r6, :lower16:key_scan.key_up
	movt	r4, #16386
.Ltmp8:
	@DEBUG_VALUE: key_scan:key_val <- 0
	movt	r6, :upper16:key_scan.key_up
.Ltmp9:
	.loc	2 38 8 prologue_end             @ ../User/BSP/key/key.c:38:8
	cbz	r0, .LBB1_2
.Ltmp10:
@ %bb.1:
	@DEBUG_VALUE: key_scan:key_val <- 0
	@DEBUG_VALUE: key_scan:mode <- $r0
	.loc	2 0 8 is_stmt 0                 @ ../User/BSP/key/key.c:0:8
	movs	r0, #0
.Ltmp11:
	@DEBUG_VALUE: key_scan:mode <- [DW_OP_LLVM_entry_value 1] $r0
	.loc	2 39 16 is_stmt 1               @ ../User/BSP/key/key.c:39:16
	strb	r0, [r6]
	b	.LBB1_3
.Ltmp12:
.LBB1_2:
	@DEBUG_VALUE: key_scan:key_val <- 0
	@DEBUG_VALUE: key_scan:mode <- $r0
	.loc	2 41 8                          @ ../User/BSP/key/key.c:41:8
	ldrb	r0, [r6]
.Ltmp13:
	@DEBUG_VALUE: key_scan:mode <- [DW_OP_LLVM_entry_value 1] $r0
	.loc	2 41 15 is_stmt 0               @ ../User/BSP/key/key.c:41:15
	cbnz	r0, .LBB1_11
.Ltmp14:
.LBB1_3:
	@DEBUG_VALUE: key_scan:mode <- [DW_OP_LLVM_entry_value 1] $r0
	@DEBUG_VALUE: key_scan:key_val <- 0
	.loc	2 41 19                         @ ../User/BSP/key/key.c:41:19
	mov	r0, r4
	movs	r1, #16
	bl	HAL_GPIO_ReadPin
.Ltmp15:
	.loc	2 41 33                         @ ../User/BSP/key/key.c:41:33
	cbz	r0, .LBB1_7
.Ltmp16:
@ %bb.4:
	@DEBUG_VALUE: key_scan:mode <- [DW_OP_LLVM_entry_value 1] $r0
	@DEBUG_VALUE: key_scan:key_val <- 0
	.loc	2 41 36                         @ ../User/BSP/key/key.c:41:36
	mov	r0, r4
	movs	r1, #8
	bl	HAL_GPIO_ReadPin
.Ltmp17:
	.loc	2 41 50                         @ ../User/BSP/key/key.c:41:50
	cbz	r0, .LBB1_7
.Ltmp18:
@ %bb.5:
	@DEBUG_VALUE: key_scan:mode <- [DW_OP_LLVM_entry_value 1] $r0
	@DEBUG_VALUE: key_scan:key_val <- 0
	.loc	2 41 53                         @ ../User/BSP/key/key.c:41:53
	mov	r0, r4
	movs	r1, #4
	bl	HAL_GPIO_ReadPin
.Ltmp19:
	.loc	2 41 67                         @ ../User/BSP/key/key.c:41:67
	cbz	r0, .LBB1_7
.Ltmp20:
@ %bb.6:
	@DEBUG_VALUE: key_scan:mode <- [DW_OP_LLVM_entry_value 1] $r0
	@DEBUG_VALUE: key_scan:key_val <- 0
	.loc	2 41 70                         @ ../User/BSP/key/key.c:41:70
	sub.w	r0, r4, #4096
	movs	r1, #1
	bl	HAL_GPIO_ReadPin
.Ltmp21:
	.loc	2 41 8                          @ ../User/BSP/key/key.c:41:8
	cmp	r0, #1
	bne	.LBB1_11
.Ltmp22:
.LBB1_7:
	@DEBUG_VALUE: key_scan:mode <- [DW_OP_LLVM_entry_value 1] $r0
	@DEBUG_VALUE: key_scan:key_val <- 0
	.loc	2 43 9 is_stmt 1                @ ../User/BSP/key/key.c:43:9
	movs	r0, #10
	bl	delay_ms
.Ltmp23:
	.loc	2 0 9 is_stmt 0                 @ ../User/BSP/key/key.c:0:9
	movs	r5, #1
.Ltmp24:
	.loc	2 45 12 is_stmt 1               @ ../User/BSP/key/key.c:45:12
	mov	r0, r4
	movs	r1, #16
.Ltmp25:
	.loc	2 44 16                         @ ../User/BSP/key/key.c:44:16
	strb	r5, [r6]
.Ltmp26:
	.loc	2 45 12                         @ ../User/BSP/key/key.c:45:12
	bl	HAL_GPIO_ReadPin
.Ltmp27:
	.loc	2 45 12 is_stmt 0               @ ../User/BSP/key/key.c:45:12
	cbz	r0, .LBB1_16
.Ltmp28:
@ %bb.8:
	@DEBUG_VALUE: key_scan:mode <- [DW_OP_LLVM_entry_value 1] $r0
	@DEBUG_VALUE: key_scan:key_val <- 0
	.loc	2 47 12 is_stmt 1               @ ../User/BSP/key/key.c:47:12
	mov	r0, r4
	movs	r1, #8
	bl	HAL_GPIO_ReadPin
.Ltmp29:
	.loc	2 47 12 is_stmt 0               @ ../User/BSP/key/key.c:47:12
	cbz	r0, .LBB1_17
.Ltmp30:
@ %bb.9:
	@DEBUG_VALUE: key_scan:mode <- [DW_OP_LLVM_entry_value 1] $r0
	@DEBUG_VALUE: key_scan:key_val <- 0
	.loc	2 49 12 is_stmt 1               @ ../User/BSP/key/key.c:49:12
	mov	r0, r4
	movs	r1, #4
	bl	HAL_GPIO_ReadPin
.Ltmp31:
	.loc	2 49 12 is_stmt 0               @ ../User/BSP/key/key.c:49:12
	cbz	r0, .LBB1_18
.Ltmp32:
@ %bb.10:
	@DEBUG_VALUE: key_scan:mode <- [DW_OP_LLVM_entry_value 1] $r0
	@DEBUG_VALUE: key_scan:key_val <- 0
	.loc	2 51 12 is_stmt 1               @ ../User/BSP/key/key.c:51:12
	sub.w	r0, r4, #4096
	movs	r1, #1
	bl	HAL_GPIO_ReadPin
.Ltmp33:
	.loc	2 51 12 is_stmt 0               @ ../User/BSP/key/key.c:51:12
	cmp	r0, #1
	itt	eq
	moveq	r0, #4
.Ltmp34:
	.loc	2 60 1 is_stmt 1                @ ../User/BSP/key/key.c:60:1
	popeq	{r4, r5, r6, pc}
	b	.LBB1_15
.Ltmp35:
.LBB1_11:
	@DEBUG_VALUE: key_scan:mode <- [DW_OP_LLVM_entry_value 1] $r0
	@DEBUG_VALUE: key_scan:key_val <- 0
	.loc	2 54 13                         @ ../User/BSP/key/key.c:54:13
	mov	r0, r4
	movs	r1, #16
	bl	HAL_GPIO_ReadPin
.Ltmp36:
	.loc	2 54 27 is_stmt 0               @ ../User/BSP/key/key.c:54:27
	cmp	r0, #1
	bne	.LBB1_15
.Ltmp37:
@ %bb.12:
	@DEBUG_VALUE: key_scan:mode <- [DW_OP_LLVM_entry_value 1] $r0
	@DEBUG_VALUE: key_scan:key_val <- 0
	.loc	2 54 30                         @ ../User/BSP/key/key.c:54:30
	mov	r0, r4
	movs	r1, #8
	bl	HAL_GPIO_ReadPin
.Ltmp38:
	.loc	2 54 44                         @ ../User/BSP/key/key.c:54:44
	cmp	r0, #1
	bne	.LBB1_15
.Ltmp39:
@ %bb.13:
	@DEBUG_VALUE: key_scan:mode <- [DW_OP_LLVM_entry_value 1] $r0
	@DEBUG_VALUE: key_scan:key_val <- 0
	.loc	2 54 47                         @ ../User/BSP/key/key.c:54:47
	mov	r0, r4
	movs	r1, #4
	bl	HAL_GPIO_ReadPin
.Ltmp40:
	.loc	2 54 61                         @ ../User/BSP/key/key.c:54:61
	cmp	r0, #1
	bne	.LBB1_15
.Ltmp41:
@ %bb.14:
	@DEBUG_VALUE: key_scan:mode <- [DW_OP_LLVM_entry_value 1] $r0
	@DEBUG_VALUE: key_scan:key_val <- 0
	.loc	2 54 64                         @ ../User/BSP/key/key.c:54:64
	sub.w	r0, r4, #4096
	movs	r1, #1
	bl	HAL_GPIO_ReadPin
.Ltmp42:
	.loc	2 54 13                         @ ../User/BSP/key/key.c:54:13
	cbz	r0, .LBB1_19
.Ltmp43:
.LBB1_15:
	@DEBUG_VALUE: key_scan:mode <- [DW_OP_LLVM_entry_value 1] $r0
	@DEBUG_VALUE: key_scan:key_val <- 0
	.loc	2 0 13                          @ ../User/BSP/key/key.c:0:13
	movs	r5, #0
.Ltmp44:
.LBB1_16:
	@DEBUG_VALUE: key_scan:mode <- [DW_OP_LLVM_entry_value 1] $r0
	@DEBUG_VALUE: key_scan:key_val <- 0
	.loc	2 60 1 is_stmt 1                @ ../User/BSP/key/key.c:60:1
	mov	r0, r5
	pop	{r4, r5, r6, pc}
.Ltmp45:
.LBB1_17:
	@DEBUG_VALUE: key_scan:mode <- [DW_OP_LLVM_entry_value 1] $r0
	@DEBUG_VALUE: key_scan:key_val <- 0
	.loc	2 0 1 is_stmt 0                 @ ../User/BSP/key/key.c:0:1
	movs	r0, #2
	.loc	2 60 1                          @ ../User/BSP/key/key.c:60:1
	pop	{r4, r5, r6, pc}
.Ltmp46:
.LBB1_18:
	@DEBUG_VALUE: key_scan:mode <- [DW_OP_LLVM_entry_value 1] $r0
	@DEBUG_VALUE: key_scan:key_val <- 0
	.loc	2 0 1                           @ ../User/BSP/key/key.c:0:1
	movs	r0, #3
	.loc	2 60 1                          @ ../User/BSP/key/key.c:60:1
	pop	{r4, r5, r6, pc}
.Ltmp47:
.LBB1_19:
	@DEBUG_VALUE: key_scan:mode <- [DW_OP_LLVM_entry_value 1] $r0
	@DEBUG_VALUE: key_scan:key_val <- 0
	.loc	2 0 1                           @ ../User/BSP/key/key.c:0:1
	movs	r5, #0
	.loc	2 60 1                          @ ../User/BSP/key/key.c:60:1
	mov	r0, r5
.Ltmp48:
	.loc	2 56 16 is_stmt 1               @ ../User/BSP/key/key.c:56:16
	strb	r5, [r6]
.Ltmp49:
	.loc	2 60 1                          @ ../User/BSP/key/key.c:60:1
	pop	{r4, r5, r6, pc}
.Ltmp50:
.Lfunc_end1:
	.size	key_scan, .Lfunc_end1-key_scan
	.cfi_endproc
	.cantunwind
	.fnend
                                        @ -- End function
	.type	key_scan.key_up,%object         @ @key_scan.key_up
	.section	.bss.key_scan.key_up,"aw",%nobits
key_scan.key_up:
	.byte	0                               @ 0x0
	.size	key_scan.key_up, 1

	.section	".note.GNU-stack","",%progbits
	.eabi_attribute	30, 1	@ Tag_ABI_optimization_goals
	.ARM_attribute	16, 1	@ Tag_AV_eba