	.text
	.syntax unified
	.eabi_attribute	67, "2.09"	@ Tag_conformance
	.cpu	cortex-m4
	.eabi_attribute	6, 13	@ Tag_CPU_arch
	.eabi_attribute	7, 77	@ Tag_CPU_arch_profile
	.eabi_attribute	8, 0	@ Tag_ARM_ISA_use
	.eabi_attribute	9, 2	@ Tag_THUMB_ISA_use
	.fpu	fpv4-sp-d16
	.eabi_attribute	27, 1	@ Tag_ABI_HardFP_use
	.eabi_attribute	36, 1	@ Tag_FP_HP_extension
	.eabi_attribute	34, 1	@ Tag_CPU_unaligned_access
	.eabi_attribute	17, 1	@ Tag_ABI_PCS_GOT_use
	.eabi_attribute	20, 2	@ Tag_ABI_FP_denormal
	.eabi_attribute	21, 0	@ Tag_ABI_FP_exceptions
	.eabi_attribute	23, 1	@ Tag_ABI_FP_number_model
	.eabi_attribute	24, 1	@ Tag_ABI_align_needed
	.eabi_attribute	25, 1	@ Tag_ABI_align_preserved
	.eabi_attribute	28, 1	@ Tag_ABI_VFP_args
	.eabi_attribute	38, 1	@ Tag_ABI_FP_16bit_format
	.eabi_attribute	18, 2	@ Tag_ABI_PCS_wchar_t
	.eabi_attribute	26, 1	@ Tag_ABI_enum_size
	.eabi_attribute	14, 0	@ Tag_ABI_PCS_R9_use
	.file	"lcd.c"
	.file	1 "E:\\StudyNote\\study_STM32-HAL\\STM32F4_Quick_Start_Guide_HAL\\2.code\\19.RTC-Alarms\\Project" "../User/BSP/lcd/font.h"
	.file	2 "E:\\dianzi\\MDKv5\\ARM\\ARMCLANG\\Bin\\..\\include" "stdint.h"
	.file	3 "E:\\StudyNote\\study_STM32-HAL\\STM32F4_Quick_Start_Guide_HAL\\2.code\\19.RTC-Alarms\\Project" "../User/SYSTEM/sys\\sys.h"
	.file	4 "E:\\StudyNote\\study_STM32-HAL\\STM32F4_Quick_Start_Guide_HAL\\2.code\\19.RTC-Alarms\\Project" "../User/BSP/lcd/lcd.c"
	.file	5 "E:\\StudyNote\\study_STM32-HAL\\STM32F4_Quick_Start_Guide_HAL\\2.code\\19.RTC-Alarms\\Project" "../Libraries/CMSIS/Device/ST/STM32F4xx/Include/stm32f407xx.h"
	.file	6 "E:\\StudyNote\\study_STM32-HAL\\STM32F4_Quick_Start_Guide_HAL\\2.code\\19.RTC-Alarms\\Project" "../Libraries/STM32F4xx_HAL_Driver/Inc\\stm32f4xx_hal_sram.h"
	.file	7 "E:\\StudyNote\\study_STM32-HAL\\STM32F4_Quick_Start_Guide_HAL\\2.code\\19.RTC-Alarms\\Project" "../Libraries/STM32F4xx_HAL_Driver/Inc/stm32f4xx_ll_fsmc.h"
	.file	8 "E:\\StudyNote\\study_STM32-HAL\\STM32F4_Quick_Start_Guide_HAL\\2.code\\19.RTC-Alarms\\Project" "../Libraries/STM32F4xx_HAL_Driver/Inc/stm32f4xx_hal_def.h"
	.file	9 "E:\\StudyNote\\study_STM32-HAL\\STM32F4_Quick_Start_Guide_HAL\\2.code\\19.RTC-Alarms\\Project" "../Libraries/STM32F4xx_HAL_Driver/Inc\\stm32f4xx_hal_dma.h"
	.file	10 "E:\\StudyNote\\study_STM32-HAL\\STM32F4_Quick_Start_Guide_HAL\\2.code\\19.RTC-Alarms\\Project" "../User/BSP/lcd/lcd.h"
	.section	.text.LCD_WR_REG,"ax",%progbits
	.hidden	LCD_WR_REG                      @ -- Begin function LCD_WR_REG
	.globl	LCD_WR_REG
	.p2align	2
	.type	LCD_WR_REG,%function
	.code	16                              @ @LCD_WR_REG
	.thumb_func
LCD_WR_REG:
.Lfunc_begin0:
	.loc	4 20 0                          @ ../User/BSP/lcd/lcd.c:20:0
	.fnstart
	.cfi_sections .debug_frame
	.cfi_startproc
@ %bb.0:
	.pad	#4
	sub	sp, #4
	.cfi_def_cfa_offset 4
	strh.w	r0, [sp, #2]
.Ltmp0:
	.loc	4 21 14 prologue_end            @ ../User/BSP/lcd/lcd.c:21:14
	ldrh.w	r0, [sp, #2]
	movs	r1, #126
	.loc	4 21 12 is_stmt 0               @ ../User/BSP/lcd/lcd.c:21:12
	strh.w	r0, [sp, #2]
	.loc	4 22 20 is_stmt 1               @ ../User/BSP/lcd/lcd.c:22:20
	ldrh.w	r0, [sp, #2]
	movt	r1, #27648
	.loc	4 22 18 is_stmt 0               @ ../User/BSP/lcd/lcd.c:22:18
	strh	r0, [r1]
	.loc	4 23 1 is_stmt 1                @ ../User/BSP/lcd/lcd.c:23:1
	add	sp, #4
	bx	lr
.Ltmp1:
.Lfunc_end0:
	.size	LCD_WR_REG, .Lfunc_end0-LCD_WR_REG
	.cfi_endproc
	.cantunwind
	.fnend
                                        @ -- End function
	.section	.text.LCD_WR_DATA,"ax",%progbits
	.hidden	LCD_WR_DATA                     @ -- Begin function LCD_WR_DATA
	.globl	LCD_WR_DATA
	.p2align	2
	.type	LCD_WR_DATA,%function
	.code	16                              @ @LCD_WR_DATA
	.thumb_func
LCD_WR_DATA:
.Lfunc_begin1:
	.loc	4 28 0                          @ ../User/BSP/lcd/lcd.c:28:0
	.fnstart
	.cfi_startproc
@ %bb.0:
	.pad	#4
	sub	sp, #4
	.cfi_def_cfa_offset 4
	strh.w	r0, [sp, #2]
.Ltmp2:
	.loc	4 29 12 prologue_end            @ ../User/BSP/lcd/lcd.c:29:12
	ldrh.w	r0, [sp, #2]
	movs	r1, #128
	.loc	4 29 10 is_stmt 0               @ ../User/BSP/lcd/lcd.c:29:10
	strh.w	r0, [sp, #2]
	.loc	4 30 20 is_stmt 1               @ ../User/BSP/lcd/lcd.c:30:20
	ldrh.w	r0, [sp, #2]
	movt	r1, #27648
	.loc	4 30 18 is_stmt 0               @ ../User/BSP/lcd/lcd.c:30:18
	strh	r0, [r1]
	.loc	4 31 1 is_stmt 1                @ ../User/BSP/lcd/lcd.c:31:1
	add	sp, #4
	bx	lr
.Ltmp3:
.Lfunc_end1:
	.size	LCD_WR_DATA, .Lfunc_end1-LCD_WR_DATA
	.cfi_endproc
	.cantunwind
	.fnend
                                        @ -- End function
	.section	.text.LCD_RD_DATA,"ax",%progbits
	.hidden	LCD_RD_DATA                     @ -- Begin function LCD_RD_DATA
	.globl	LCD_RD_DATA
	.p2align	2
	.type	LCD_RD_DATA,%function
	.code	16                              @ @LCD_RD_DATA
	.thumb_func
LCD_RD_DATA:
.Lfunc_begin2:
	.loc	4 36 0                          @ ../User/BSP/lcd/lcd.c:36:0
	.fnstart
	.cfi_startproc
@ %bb.0:
	.pad	#4
	sub	sp, #4
	.cfi_def_cfa_offset 4
	movs	r0, #128
	movt	r0, #27648
.Ltmp4:
	.loc	4 38 16 prologue_end            @ ../User/BSP/lcd/lcd.c:38:16
	ldrh	r0, [r0]
	.loc	4 38 9 is_stmt 0                @ ../User/BSP/lcd/lcd.c:38:9
	strh.w	r0, [sp, #2]
	.loc	4 39 12 is_stmt 1               @ ../User/BSP/lcd/lcd.c:39:12
	ldrh.w	r0, [sp, #2]
	.loc	4 39 5 is_stmt 0                @ ../User/BSP/lcd/lcd.c:39:5
	add	sp, #4
	bx	lr
.Ltmp5:
.Lfunc_end2:
	.size	LCD_RD_DATA, .Lfunc_end2-LCD_RD_DATA
	.cfi_endproc
	.cantunwind
	.fnend
                                        @ -- End function
	.section	.text.LCD_WriteReg,"ax",%progbits
	.hidden	LCD_WriteReg                    @ -- Begin function LCD_WriteReg
	.globl	LCD_WriteReg
	.p2align	2
	.type	LCD_WriteReg,%function
	.code	16                              @ @LCD_WriteReg
	.thumb_func
LCD_WriteReg:
.Lfunc_begin3:
	.loc	4 46 0 is_stmt 1                @ ../User/BSP/lcd/lcd.c:46:0
	.fnstart
	.cfi_startproc
@ %bb.0:
	@DEBUG_VALUE: LCD_WriteReg:LCD_Reg <- $r0
	@DEBUG_VALUE: LCD_WriteReg:LCD_RegValue <- $r1
	movs	r2, #126
	movt	r2, #27648
.Ltmp6:
	.loc	4 47 18 prologue_end            @ ../User/BSP/lcd/lcd.c:47:18
	strh	r0, [r2]
	.loc	4 48 18                         @ ../User/BSP/lcd/lcd.c:48:18
	strh	r1, [r2, #2]
	.loc	4 49 1                          @ ../User/BSP/lcd/lcd.c:49:1
	bx	lr
.Ltmp7:
.Lfunc_end3:
	.size	LCD_WriteReg, .Lfunc_end3-LCD_WriteReg
	.cfi_endproc
	.cantunwind
	.fnend
                                        @ -- End function
	.section	.text.LCD_ReadReg,"ax",%progbits
	.hidden	LCD_ReadReg                     @ -- Begin function LCD_ReadReg
	.globl	LCD_ReadReg
	.p2align	2
	.type	LCD_ReadReg,%function
	.code	16                              @ @LCD_ReadReg
	.thumb_func
LCD_ReadReg:
.Lfunc_begin4:
	.loc	4 55 0                          @ ../User/BSP/lcd/lcd.c:55:0
	.fnstart
	.cfi_startproc
@ %bb.0:
	@DEBUG_VALUE: LCD_ReadReg:LCD_Reg <- $r0
	.save	{r4, lr}
	push	{r4, lr}
	.cfi_def_cfa_offset 8
	.cfi_offset lr, -4
	.cfi_offset r4, -8
	.pad	#8
	sub	sp, #8
	.cfi_def_cfa_offset 16
	strh.w	r0, [sp, #4]
.Ltmp8:
	.loc	4 21 14 prologue_end            @ ../User/BSP/lcd/lcd.c:21:14
	ldrh.w	r0, [sp, #4]
.Ltmp9:
	@DEBUG_VALUE: LCD_ReadReg:LCD_Reg <- [DW_OP_LLVM_entry_value 1] $r0
	.loc	4 0 14 is_stmt 0                @ ../User/BSP/lcd/lcd.c:0:14
	movs	r4, #126
	.loc	4 21 12                         @ ../User/BSP/lcd/lcd.c:21:12
	strh.w	r0, [sp, #4]
	.loc	4 22 20 is_stmt 1               @ ../User/BSP/lcd/lcd.c:22:20
	ldrh.w	r0, [sp, #4]
	movt	r4, #27648
	.loc	4 22 18 is_stmt 0               @ ../User/BSP/lcd/lcd.c:22:18
	strh	r0, [r4]
.Ltmp10:
	.loc	4 57 5 is_stmt 1                @ ../User/BSP/lcd/lcd.c:57:5
	movs	r0, #5
	bl	delay_us
.Ltmp11:
	.loc	4 38 16                         @ ../User/BSP/lcd/lcd.c:38:16
	ldrh	r0, [r4, #2]
	.loc	4 38 9 is_stmt 0                @ ../User/BSP/lcd/lcd.c:38:9
	strh.w	r0, [sp, #6]
	.loc	4 39 12 is_stmt 1               @ ../User/BSP/lcd/lcd.c:39:12
	ldrh.w	r0, [sp, #6]
.Ltmp12:
	.loc	4 58 5                          @ ../User/BSP/lcd/lcd.c:58:5
	add	sp, #8
	pop	{r4, pc}
.Ltmp13:
.Lfunc_end4:
	.size	LCD_ReadReg, .Lfunc_end4-LCD_ReadReg
	.cfi_endproc
	.cantunwind
	.fnend
                                        @ -- End function
	.section	.text.LCD_WriteRAM_Prepare,"ax",%progbits
	.hidden	LCD_WriteRAM_Prepare            @ -- Begin function LCD_WriteRAM_Prepare
	.globl	LCD_WriteRAM_Prepare
	.p2align	2
	.type	LCD_WriteRAM_Prepare,%function
	.code	16                              @ @LCD_WriteRAM_Prepare
	.thumb_func
LCD_WriteRAM_Prepare:
.Lfunc_begin5:
	.loc	4 63 0                          @ ../User/BSP/lcd/lcd.c:63:0
	.fnstart
	.cfi_startproc
@ %bb.0:
	.loc	4 64 27 prologue_end            @ ../User/BSP/lcd/lcd.c:64:27
	movw	r0, :lower16:lcddev
	movt	r0, :upper16:lcddev
	ldrh	r0, [r0, #8]
	movs	r1, #126
	movt	r1, #27648
	.loc	4 64 18 is_stmt 0               @ ../User/BSP/lcd/lcd.c:64:18
	strh	r0, [r1]
	.loc	4 65 1 is_stmt 1                @ ../User/BSP/lcd/lcd.c:65:1
	bx	lr
.Ltmp14:
.Lfunc_end5:
	.size	LCD_WriteRAM_Prepare, .Lfunc_end5-LCD_WriteRAM_Prepare
	.cfi_endproc
	.cantunwind
	.fnend
                                        @ -- End function
	.section	.text.LCD_WriteRAM,"ax",%progbits
	.hidden	LCD_WriteRAM                    @ -- Begin function LCD_WriteRAM
	.globl	LCD_WriteRAM
	.p2align	2
	.type	LCD_WriteRAM,%function
	.code	16                              @ @LCD_WriteRAM
	.thumb_func
LCD_WriteRAM:
.Lfunc_begin6:
	.loc	4 70 0                          @ ../User/BSP/lcd/lcd.c:70:0
	.fnstart
	.cfi_startproc
@ %bb.0:
	@DEBUG_VALUE: LCD_WriteRAM:RGB_Code <- $r0
	movs	r1, #128
	movt	r1, #27648
.Ltmp15:
	.loc	4 71 18 prologue_end            @ ../User/BSP/lcd/lcd.c:71:18
	strh	r0, [r1]
	.loc	4 72 1                          @ ../User/BSP/lcd/lcd.c:72:1
	bx	lr
.Ltmp16:
.Lfunc_end6:
	.size	LCD_WriteRAM, .Lfunc_end6-LCD_WriteRAM
	.cfi_endproc
	.cantunwind
	.fnend
                                        @ -- End function
	.section	.text.LCD_BGR2RGB,"ax",%progbits
	.hidden	LCD_BGR2RGB                     @ -- Begin function LCD_BGR2RGB
	.globl	LCD_BGR2RGB
	.p2align	2
	.type	LCD_BGR2RGB,%function
	.code	16                              @ @LCD_BGR2RGB
	.thumb_func
LCD_BGR2RGB:
.Lfunc_begin7:
	.loc	4 78 0                          @ ../User/BSP/lcd/lcd.c:78:0
	.fnstart
	.cfi_startproc
@ %bb.0:
	@DEBUG_VALUE: LCD_BGR2RGB:c <- $r0
	@DEBUG_VALUE: LCD_BGR2RGB:b <- [DW_OP_constu 31, DW_OP_and, DW_OP_stack_value] $r0
	.loc	4 81 18 prologue_end            @ ../User/BSP/lcd/lcd.c:81:18
	and	r1, r0, #2016
.Ltmp17:
	@DEBUG_VALUE: LCD_BGR2RGB:r <- undef
	@DEBUG_VALUE: LCD_BGR2RGB:g <- $r1
	.loc	4 83 21                         @ ../User/BSP/lcd/lcd.c:83:21
	orr.w	r1, r1, r0, lsl #11
.Ltmp18:
	.loc	4 83 32 is_stmt 0               @ ../User/BSP/lcd/lcd.c:83:32
	orr.w	r0, r1, r0, lsr #11
.Ltmp19:
	@DEBUG_VALUE: LCD_BGR2RGB:c <- [DW_OP_LLVM_entry_value 1] $r0
	@DEBUG_VALUE: LCD_BGR2RGB:rgb <- $r0
	.loc	4 84 5 is_stmt 1                @ ../User/BSP/lcd/lcd.c:84:5
	uxth	r0, r0
.Ltmp20:
	bx	lr
.Ltmp21:
.Lfunc_end7:
	.size	LCD_BGR2RGB, .Lfunc_end7-LCD_BGR2RGB
	.cfi_endproc
	.cantunwind
	.fnend
                                        @ -- End function
	.section	.text.opt_delay,"ax",%progbits
	.hidden	opt_delay                       @ -- Begin function opt_delay
	.globl	opt_delay
	.p2align	2
	.type	opt_delay,%function
	.code	16                              @ @opt_delay
	.thumb_func
opt_delay:
.Lfunc_begin8:
	.loc	4 89 0                          @ ../User/BSP/lcd/lcd.c:89:0
	.fnstart
	.cfi_startproc
@ %bb.0:
	@DEBUG_VALUE: opt_delay:i <- [DW_OP_constu 1, DW_OP_minus, DW_OP_stack_value] undef
	.loc	4 91 1 prologue_end             @ ../User/BSP/lcd/lcd.c:91:1
	bx	lr
.Ltmp22:
.Lfunc_end8:
	.size	opt_delay, .Lfunc_end8-opt_delay
	.cfi_endproc
	.cantunwind
	.fnend
                                        @ -- End function
	.section	.text.LCD_ReadPoint,"ax",%progbits
	.hidden	LCD_ReadPoint                   @ -- Begin function LCD_ReadPoint
	.globl	LCD_ReadPoint
	.p2align	2
	.type	LCD_ReadPoint,%function
	.code	16                              @ @LCD_ReadPoint
	.thumb_func
LCD_ReadPoint:
.Lfunc_begin9:
	.loc	4 97 0                          @ ../User/BSP/lcd/lcd.c:97:0
	.fnstart
	.cfi_startproc
@ %bb.0:
	@DEBUG_VALUE: LCD_ReadPoint:x <- $r0
	@DEBUG_VALUE: LCD_ReadPoint:y <- $r1
	.save	{r7, lr}
	push	{r7, lr}
	.cfi_def_cfa_offset 8
	.cfi_offset lr, -4
	.cfi_offset r7, -8
	.pad	#8
	sub	sp, #8
	.cfi_def_cfa_offset 16
.Ltmp23:
	.loc	4 99 20 prologue_end            @ ../User/BSP/lcd/lcd.c:99:20
	movw	r12, :lower16:lcddev
	movt	r12, :upper16:lcddev
	ldrh.w	r3, [r12]
	mov	r2, r0
.Ltmp24:
	@DEBUG_VALUE: LCD_ReadPoint:b <- 0
	@DEBUG_VALUE: LCD_ReadPoint:g <- 0
	@DEBUG_VALUE: LCD_ReadPoint:r <- 0
	@DEBUG_VALUE: LCD_ReadPoint:x <- $r2
	.loc	4 99 26 is_stmt 0               @ ../User/BSP/lcd/lcd.c:99:26
	cmp	r3, r0
	mov.w	r0, #0
	bls	.LBB9_3
.Ltmp25:
@ %bb.1:
	@DEBUG_VALUE: LCD_ReadPoint:x <- $r2
	@DEBUG_VALUE: LCD_ReadPoint:r <- 0
	@DEBUG_VALUE: LCD_ReadPoint:g <- 0
	@DEBUG_VALUE: LCD_ReadPoint:b <- 0
	@DEBUG_VALUE: LCD_ReadPoint:y <- $r1
	@DEBUG_VALUE: LCD_ReadPoint:y <- $r1
	.loc	4 0 26                          @ ../User/BSP/lcd/lcd.c:0:26
	ldrh.w	r3, [r12, #2]
	.loc	4 99 26                         @ ../User/BSP/lcd/lcd.c:99:26
	cmp	r3, r1
	bls	.LBB9_3
.Ltmp26:
@ %bb.2:
	@DEBUG_VALUE: LCD_ReadPoint:x <- $r2
	@DEBUG_VALUE: LCD_ReadPoint:r <- 0
	@DEBUG_VALUE: LCD_ReadPoint:g <- 0
	@DEBUG_VALUE: LCD_ReadPoint:b <- 0
	@DEBUG_VALUE: LCD_ReadPoint:y <- $r1
	@DEBUG_VALUE: LCD_ReadPoint:y <- $r1
	.loc	4 101 5 is_stmt 1               @ ../User/BSP/lcd/lcd.c:101:5
	mov	r0, r2
	bl	LCD_SetCursor
.Ltmp27:
	.loc	4 0 5 is_stmt 0                 @ ../User/BSP/lcd/lcd.c:0:5
	movs	r0, #46
	strh.w	r0, [sp]
.Ltmp28:
	.loc	4 21 14 is_stmt 1               @ ../User/BSP/lcd/lcd.c:21:14
	ldrh.w	r0, [sp]
	movs	r1, #128
	.loc	4 21 12 is_stmt 0               @ ../User/BSP/lcd/lcd.c:21:12
	strh.w	r0, [sp]
	.loc	4 22 20 is_stmt 1               @ ../User/BSP/lcd/lcd.c:22:20
	ldrh.w	r0, [sp]
	movt	r1, #27648
	.loc	4 22 18 is_stmt 0               @ ../User/BSP/lcd/lcd.c:22:18
	strh	r0, [r1, #-2]
.Ltmp29:
	.loc	4 38 16 is_stmt 1               @ ../User/BSP/lcd/lcd.c:38:16
	ldrh	r0, [r1]
	.loc	4 38 9 is_stmt 0                @ ../User/BSP/lcd/lcd.c:38:9
	strh.w	r0, [sp, #2]
	.loc	4 39 12 is_stmt 1               @ ../User/BSP/lcd/lcd.c:39:12
	ldrh.w	r0, [sp, #2]
.Ltmp30:
	@DEBUG_VALUE: LCD_ReadPoint:r <- undef
	.loc	4 38 16                         @ ../User/BSP/lcd/lcd.c:38:16
	ldrh	r0, [r1]
	.loc	4 38 9 is_stmt 0                @ ../User/BSP/lcd/lcd.c:38:9
	strh.w	r0, [sp, #4]
	.loc	4 39 12 is_stmt 1               @ ../User/BSP/lcd/lcd.c:39:12
	ldrh.w	r0, [sp, #4]
.Ltmp31:
	@DEBUG_VALUE: LCD_ReadPoint:r <- $r0
	.loc	4 38 16                         @ ../User/BSP/lcd/lcd.c:38:16
	ldrh	r1, [r1]
.Ltmp32:
	.loc	4 111 24                        @ ../User/BSP/lcd/lcd.c:111:24
	and	r2, r0, #63488
.Ltmp33:
	.loc	4 38 9                          @ ../User/BSP/lcd/lcd.c:38:9
	strh.w	r1, [sp, #6]
	.loc	4 39 12                         @ ../User/BSP/lcd/lcd.c:39:12
	ldrh.w	r1, [sp, #6]
.Ltmp34:
	@DEBUG_VALUE: LCD_ReadPoint:b <- $r1
	@DEBUG_VALUE: LCD_ReadPoint:g <- [DW_OP_constu 8, DW_OP_shl, DW_OP_stack_value] $r0
	.loc	4 111 44                        @ ../User/BSP/lcd/lcd.c:111:44
	and	r0, r0, #252
.Ltmp35:
	.loc	4 111 31 is_stmt 0              @ ../User/BSP/lcd/lcd.c:111:31
	orr.w	r0, r2, r0, lsl #3
	.loc	4 111 50                        @ ../User/BSP/lcd/lcd.c:111:50
	orr.w	r0, r0, r1, lsr #11
.Ltmp36:
.LBB9_3:
	.loc	4 112 1 is_stmt 1               @ ../User/BSP/lcd/lcd.c:112:1
	add	sp, #8
	pop	{r7, pc}
.Ltmp37:
.Lfunc_end9:
	.size	LCD_ReadPoint, .Lfunc_end9-LCD_ReadPoint
	.cfi_endproc
	.cantunwind
	.fnend
                                        @ -- End function
	.section	.text.LCD_SetCursor,"ax",%progbits
	.hidden	LCD_SetCursor                   @ -- Begin function LCD_SetCursor
	.globl	LCD_SetCursor
	.p2align	2
	.type	LCD_SetCursor,%function
	.code	16                              @ @LCD_SetCursor
	.thumb_func
LCD_SetCursor:
.Lfunc_begin10:
	.loc	4 133 0                         @ ../User/BSP/lcd/lcd.c:133:0
	.fnstart
	.cfi_startproc
@ %bb.0:
	@DEBUG_VALUE: LCD_SetCursor:Xpos <- $r0
	@DEBUG_VALUE: LCD_SetCursor:Ypos <- $r1
	.save	{r4, lr}
	push	{r4, lr}
	.cfi_def_cfa_offset 8
	.cfi_offset lr, -4
	.cfi_offset r4, -8
	.pad	#4
	sub	sp, #4
	.cfi_def_cfa_offset 12
.Ltmp38:
	.loc	4 135 23 prologue_end           @ ../User/BSP/lcd/lcd.c:135:23
	movw	lr, :lower16:lcddev
	movt	lr, :upper16:lcddev
	ldrh.w	r3, [lr]
.Ltmp39:
	@DEBUG_VALUE: LCD_SetCursor:Ypos <- undef
	.loc	4 135 29 is_stmt 0              @ ../User/BSP/lcd/lcd.c:135:29
	cmp	r3, r0
.Ltmp40:
	@DEBUG_VALUE: LCD_SetCursor:Ypos <- $r1
	bls	.LBB10_3
.Ltmp41:
@ %bb.1:
	@DEBUG_VALUE: LCD_SetCursor:Ypos <- $r1
	@DEBUG_VALUE: LCD_SetCursor:Xpos <- $r0
	.loc	4 0 29                          @ ../User/BSP/lcd/lcd.c:0:29
	ldrh.w	r12, [lr, #2]
	.loc	4 135 29                        @ ../User/BSP/lcd/lcd.c:135:29
	cmp	r12, r1
	bls	.LBB10_3
.Ltmp42:
@ %bb.2:
	@DEBUG_VALUE: LCD_SetCursor:Ypos <- $r1
	@DEBUG_VALUE: LCD_SetCursor:Xpos <- $r0
	.loc	4 138 23 is_stmt 1              @ ../User/BSP/lcd/lcd.c:138:23
	ldrh.w	r2, [lr, #10]
	strh.w	r2, [sp, #2]
.Ltmp43:
	.loc	4 21 14                         @ ../User/BSP/lcd/lcd.c:21:14
	ldrh.w	r2, [sp, #2]
	.loc	4 21 12 is_stmt 0               @ ../User/BSP/lcd/lcd.c:21:12
	strh.w	r2, [sp, #2]
	.loc	4 22 20 is_stmt 1               @ ../User/BSP/lcd/lcd.c:22:20
	ldrh.w	r4, [sp, #2]
	movs	r2, #128
	movt	r2, #27648
	.loc	4 22 18 is_stmt 0               @ ../User/BSP/lcd/lcd.c:22:18
	strh	r4, [r2, #-2]
.Ltmp44:
	.loc	4 139 22 is_stmt 1              @ ../User/BSP/lcd/lcd.c:139:22
	lsrs	r4, r0, #8
	strh.w	r4, [sp, #2]
.Ltmp45:
	.loc	4 29 12                         @ ../User/BSP/lcd/lcd.c:29:12
	ldrh.w	r4, [sp, #2]
.Ltmp46:
	.loc	4 140 22                        @ ../User/BSP/lcd/lcd.c:140:22
	uxtb	r0, r0
.Ltmp47:
	@DEBUG_VALUE: LCD_SetCursor:Xpos <- [DW_OP_LLVM_entry_value 1] $r0
	.loc	4 29 10                         @ ../User/BSP/lcd/lcd.c:29:10
	strh.w	r4, [sp, #2]
	.loc	4 30 20                         @ ../User/BSP/lcd/lcd.c:30:20
	ldrh.w	r4, [sp, #2]
	.loc	4 30 18 is_stmt 0               @ ../User/BSP/lcd/lcd.c:30:18
	strh	r4, [r2]
	strh.w	r0, [sp, #2]
.Ltmp48:
	.loc	4 29 12 is_stmt 1               @ ../User/BSP/lcd/lcd.c:29:12
	ldrh.w	r0, [sp, #2]
	.loc	4 29 10 is_stmt 0               @ ../User/BSP/lcd/lcd.c:29:10
	strh.w	r0, [sp, #2]
	.loc	4 30 20 is_stmt 1               @ ../User/BSP/lcd/lcd.c:30:20
	ldrh.w	r0, [sp, #2]
	.loc	4 30 18 is_stmt 0               @ ../User/BSP/lcd/lcd.c:30:18
	strh	r0, [r2]
.Ltmp49:
	.loc	4 141 31 is_stmt 1              @ ../User/BSP/lcd/lcd.c:141:31
	subs	r0, r3, #1
	.loc	4 141 36 is_stmt 0              @ ../User/BSP/lcd/lcd.c:141:36
	lsrs	r3, r0, #8
	strh.w	r3, [sp, #2]
.Ltmp50:
	.loc	4 29 12 is_stmt 1               @ ../User/BSP/lcd/lcd.c:29:12
	ldrh.w	r3, [sp, #2]
.Ltmp51:
	.loc	4 142 36                        @ ../User/BSP/lcd/lcd.c:142:36
	uxtb	r0, r0
.Ltmp52:
	.loc	4 29 10                         @ ../User/BSP/lcd/lcd.c:29:10
	strh.w	r3, [sp, #2]
	.loc	4 30 20                         @ ../User/BSP/lcd/lcd.c:30:20
	ldrh.w	r3, [sp, #2]
	.loc	4 30 18 is_stmt 0               @ ../User/BSP/lcd/lcd.c:30:18
	strh	r3, [r2]
	strh.w	r0, [sp, #2]
.Ltmp53:
	.loc	4 29 12 is_stmt 1               @ ../User/BSP/lcd/lcd.c:29:12
	ldrh.w	r0, [sp, #2]
	.loc	4 29 10 is_stmt 0               @ ../User/BSP/lcd/lcd.c:29:10
	strh.w	r0, [sp, #2]
	.loc	4 30 20 is_stmt 1               @ ../User/BSP/lcd/lcd.c:30:20
	ldrh.w	r0, [sp, #2]
	.loc	4 30 18 is_stmt 0               @ ../User/BSP/lcd/lcd.c:30:18
	strh	r0, [r2]
.Ltmp54:
	.loc	4 145 23 is_stmt 1              @ ../User/BSP/lcd/lcd.c:145:23
	ldrh.w	r0, [lr, #12]
	strh.w	r0, [sp, #2]
.Ltmp55:
	.loc	4 21 14                         @ ../User/BSP/lcd/lcd.c:21:14
	ldrh.w	r0, [sp, #2]
	.loc	4 21 12 is_stmt 0               @ ../User/BSP/lcd/lcd.c:21:12
	strh.w	r0, [sp, #2]
	.loc	4 22 20 is_stmt 1               @ ../User/BSP/lcd/lcd.c:22:20
	ldrh.w	r0, [sp, #2]
	.loc	4 22 18 is_stmt 0               @ ../User/BSP/lcd/lcd.c:22:18
	strh	r0, [r2, #-2]
.Ltmp56:
	.loc	4 146 22 is_stmt 1              @ ../User/BSP/lcd/lcd.c:146:22
	lsrs	r0, r1, #8
	strh.w	r0, [sp, #2]
.Ltmp57:
	.loc	4 29 12                         @ ../User/BSP/lcd/lcd.c:29:12
	ldrh.w	r0, [sp, #2]
	.loc	4 29 10 is_stmt 0               @ ../User/BSP/lcd/lcd.c:29:10
	strh.w	r0, [sp, #2]
	.loc	4 30 20 is_stmt 1               @ ../User/BSP/lcd/lcd.c:30:20
	ldrh.w	r0, [sp, #2]
	.loc	4 30 18 is_stmt 0               @ ../User/BSP/lcd/lcd.c:30:18
	strh	r0, [r2]
.Ltmp58:
	.loc	4 147 22 is_stmt 1              @ ../User/BSP/lcd/lcd.c:147:22
	uxtb	r0, r1
	strh.w	r0, [sp, #2]
.Ltmp59:
	.loc	4 29 12                         @ ../User/BSP/lcd/lcd.c:29:12
	ldrh.w	r0, [sp, #2]
	.loc	4 29 10 is_stmt 0               @ ../User/BSP/lcd/lcd.c:29:10
	strh.w	r0, [sp, #2]
	.loc	4 30 20 is_stmt 1               @ ../User/BSP/lcd/lcd.c:30:20
	ldrh.w	r0, [sp, #2]
	.loc	4 30 18 is_stmt 0               @ ../User/BSP/lcd/lcd.c:30:18
	strh	r0, [r2]
.Ltmp60:
	.loc	4 148 32 is_stmt 1              @ ../User/BSP/lcd/lcd.c:148:32
	sub.w	r0, r12, #1
	.loc	4 148 37 is_stmt 0              @ ../User/BSP/lcd/lcd.c:148:37
	lsrs	r1, r0, #8
.Ltmp61:
	.loc	4 0 37                          @ ../User/BSP/lcd/lcd.c:0:37
	strh.w	r1, [sp, #2]
.Ltmp62:
	.loc	4 29 12 is_stmt 1               @ ../User/BSP/lcd/lcd.c:29:12
	ldrh.w	r1, [sp, #2]
.Ltmp63:
	.loc	4 149 37                        @ ../User/BSP/lcd/lcd.c:149:37
	uxtb	r0, r0
.Ltmp64:
	.loc	4 29 10                         @ ../User/BSP/lcd/lcd.c:29:10
	strh.w	r1, [sp, #2]
	.loc	4 30 20                         @ ../User/BSP/lcd/lcd.c:30:20
	ldrh.w	r1, [sp, #2]
	.loc	4 30 18 is_stmt 0               @ ../User/BSP/lcd/lcd.c:30:18
	strh	r1, [r2]
	strh.w	r0, [sp, #2]
.Ltmp65:
	.loc	4 29 12 is_stmt 1               @ ../User/BSP/lcd/lcd.c:29:12
	ldrh.w	r0, [sp, #2]
	.loc	4 29 10 is_stmt 0               @ ../User/BSP/lcd/lcd.c:29:10
	strh.w	r0, [sp, #2]
	.loc	4 30 20 is_stmt 1               @ ../User/BSP/lcd/lcd.c:30:20
	ldrh.w	r0, [sp, #2]
	.loc	4 30 18 is_stmt 0               @ ../User/BSP/lcd/lcd.c:30:18
	strh	r0, [r2]
.Ltmp66:
.LBB10_3:
	.loc	4 150 1 is_stmt 1               @ ../User/BSP/lcd/lcd.c:150:1
	add	sp, #4
	pop	{r4, pc}
.Ltmp67:
.Lfunc_end10:
	.size	LCD_SetCursor, .Lfunc_end10-LCD_SetCursor
	.cfi_endproc
	.cantunwind
	.fnend
                                        @ -- End function
	.section	.text.LCD_DisplayOn,"ax",%progbits
	.hidden	LCD_DisplayOn                   @ -- Begin function LCD_DisplayOn
	.globl	LCD_DisplayOn
	.p2align	2
	.type	LCD_DisplayOn,%function
	.code	16                              @ @LCD_DisplayOn
	.thumb_func
LCD_DisplayOn:
.Lfunc_begin11:
	.loc	4 116 0                         @ ../User/BSP/lcd/lcd.c:116:0
	.fnstart
	.cfi_startproc
@ %bb.0:
	.pad	#4
	sub	sp, #4
	.cfi_def_cfa_offset 4
	movs	r0, #41
	strh.w	r0, [sp, #2]
.Ltmp68:
	.loc	4 21 14 prologue_end            @ ../User/BSP/lcd/lcd.c:21:14
	ldrh.w	r0, [sp, #2]
	movs	r2, #126
	.loc	4 21 12 is_stmt 0               @ ../User/BSP/lcd/lcd.c:21:12
	strh.w	r0, [sp, #2]
	.loc	4 22 20 is_stmt 1               @ ../User/BSP/lcd/lcd.c:22:20
	ldrh.w	r1, [sp, #2]
	movt	r2, #27648
.Ltmp69:
	.loc	4 118 5                         @ ../User/BSP/lcd/lcd.c:118:5
	adr	r0, .LCPI11_0
.Ltmp70:
	.loc	4 22 18                         @ ../User/BSP/lcd/lcd.c:22:18
	strh	r1, [r2]
.Ltmp71:
	.loc	4 118 5                         @ ../User/BSP/lcd/lcd.c:118:5
	add	sp, #4
.Ltmp72:
	b	puts
.Ltmp73:
	.p2align	2
@ %bb.1:
	.loc	4 0 5 is_stmt 0                 @ ../User/BSP/lcd/lcd.c:0:5
.LCPI11_0:
.Lstr:
	.asciz	"LCD Display ON (0x29).\r"
.Lfunc_end11:
	.size	LCD_DisplayOn, .Lfunc_end11-LCD_DisplayOn
	.cfi_endproc
	.cantunwind
	.fnend
                                        @ -- End function
	.section	.text.LCD_DisplayOff,"ax",%progbits
	.hidden	LCD_DisplayOff                  @ -- Begin function LCD_DisplayOff
	.globl	LCD_DisplayOff
	.p2align	2
	.type	LCD_DisplayOff,%function
	.code	16                              @ @LCD_DisplayOff
	.thumb_func
LCD_DisplayOff:
.Lfunc_begin12:
	.loc	4 123 0 is_stmt 1               @ ../User/BSP/lcd/lcd.c:123:0
	.fnstart
	.cfi_startproc
@ %bb.0:
	.pad	#4
	sub	sp, #4
	.cfi_def_cfa_offset 4
	movs	r0, #40
	strh.w	r0, [sp, #2]
.Ltmp74:
	.loc	4 21 14 prologue_end            @ ../User/BSP/lcd/lcd.c:21:14
	ldrh.w	r0, [sp, #2]
	movs	r2, #126
	.loc	4 21 12 is_stmt 0               @ ../User/BSP/lcd/lcd.c:21:12
	strh.w	r0, [sp, #2]
	.loc	4 22 20 is_stmt 1               @ ../User/BSP/lcd/lcd.c:22:20
	ldrh.w	r1, [sp, #2]
	movt	r2, #27648
.Ltmp75:
	.loc	4 125 5                         @ ../User/BSP/lcd/lcd.c:125:5
	adr	r0, .LCPI12_0
.Ltmp76:
	.loc	4 22 18                         @ ../User/BSP/lcd/lcd.c:22:18
	strh	r1, [r2]
.Ltmp77:
	.loc	4 125 5                         @ ../User/BSP/lcd/lcd.c:125:5
	add	sp, #4
.Ltmp78:
	b	puts
.Ltmp79:
	.p2align	2
@ %bb.1:
	.loc	4 0 5 is_stmt 0                 @ ../User/BSP/lcd/lcd.c:0:5
.LCPI12_0:
.Lstr.22:
	.asciz	"LCD Display OFF (0x28).\r\000\000\000"
.Lfunc_end12:
	.size	LCD_DisplayOff, .Lfunc_end12-LCD_DisplayOff
	.cfi_endproc
	.cantunwind
	.fnend
                                        @ -- End function
	.section	.text.LCD_Scan_Dir,"ax",%progbits
	.hidden	LCD_Scan_Dir                    @ -- Begin function LCD_Scan_Dir
	.globl	LCD_Scan_Dir
	.p2align	2
	.type	LCD_Scan_Dir,%function
	.code	16                              @ @LCD_Scan_Dir
	.thumb_func
LCD_Scan_Dir:
.Lfunc_begin13:
	.loc	4 155 0 is_stmt 1               @ ../User/BSP/lcd/lcd.c:155:0
	.fnstart
	.cfi_startproc
@ %bb.0:
	@DEBUG_VALUE: LCD_Scan_Dir:dir <- $r0
	.save	{r4, r5, r6, lr}
	push	{r4, r5, r6, lr}
	.cfi_def_cfa_offset 16
	.cfi_offset lr, -4
	.cfi_offset r6, -8
	.cfi_offset r5, -12
	.cfi_offset r4, -16
	.pad	#8
	sub	sp, #8
	.cfi_def_cfa_offset 24
	mov	r12, r0
.Ltmp80:
	@DEBUG_VALUE: LCD_Scan_Dir:dir <- $r12
	movs	r0, #128
.Ltmp81:
	.loc	4 160 5 prologue_end            @ ../User/BSP/lcd/lcd.c:160:5
	sub.w	r3, r12, #1
	movw	r2, :lower16:lcddev
	movt	r0, #27648
.Ltmp82:
	@DEBUG_VALUE: LCD_Scan_Dir:dirreg <- 0
	@DEBUG_VALUE: LCD_Scan_Dir:regval <- 0
	cmp	r3, #6
	movt	r2, :upper16:lcddev
	bhi	.LBB13_4
.Ltmp83:
@ %bb.1:
	@DEBUG_VALUE: LCD_Scan_Dir:regval <- 0
	@DEBUG_VALUE: LCD_Scan_Dir:dirreg <- 0
	@DEBUG_VALUE: LCD_Scan_Dir:dir <- $r12
	.loc	4 0 5 is_stmt 0                 @ ../User/BSP/lcd/lcd.c:0:5
	movs	r1, #40
.LCPI13_1:
	tbb	[pc, r3]
.Ltmp84:
@ %bb.2:
.LJTI13_0:
	.byte	(.LBB13_3-(.LCPI13_1+4))/2
	.byte	(.LBB13_5-(.LCPI13_1+4))/2
	.byte	(.LBB13_6-(.LCPI13_1+4))/2
	.byte	(.LBB13_11-(.LCPI13_1+4))/2
	.byte	(.LBB13_8-(.LCPI13_1+4))/2
	.byte	(.LBB13_9-(.LCPI13_1+4))/2
	.byte	(.LBB13_10-(.LCPI13_1+4))/2
	.p2align	1
.LBB13_3:
.Ltmp85:
	@DEBUG_VALUE: LCD_Scan_Dir:regval <- 0
	@DEBUG_VALUE: LCD_Scan_Dir:dirreg <- 0
	@DEBUG_VALUE: LCD_Scan_Dir:dir <- $r12
	movs	r1, #136
.Ltmp86:
	@DEBUG_VALUE: LCD_Scan_Dir:regval <- 128
	b	.LBB13_7
.Ltmp87:
.LBB13_4:
	@DEBUG_VALUE: LCD_Scan_Dir:regval <- 0
	@DEBUG_VALUE: LCD_Scan_Dir:dirreg <- 0
	@DEBUG_VALUE: LCD_Scan_Dir:dir <- $r12
	movs	r1, #8
	b	.LBB13_7
.Ltmp88:
.LBB13_5:
	@DEBUG_VALUE: LCD_Scan_Dir:regval <- 0
	@DEBUG_VALUE: LCD_Scan_Dir:dirreg <- 0
	@DEBUG_VALUE: LCD_Scan_Dir:dir <- $r12
	movs	r1, #72
.Ltmp89:
	@DEBUG_VALUE: LCD_Scan_Dir:regval <- 64
	b	.LBB13_7
.Ltmp90:
.LBB13_6:
	@DEBUG_VALUE: LCD_Scan_Dir:regval <- 0
	@DEBUG_VALUE: LCD_Scan_Dir:dirreg <- 0
	@DEBUG_VALUE: LCD_Scan_Dir:dir <- $r12
	movs	r1, #200
.Ltmp91:
	@DEBUG_VALUE: LCD_Scan_Dir:regval <- 192
.LBB13_7:
	@DEBUG_VALUE: LCD_Scan_Dir:dirreg <- 0
	@DEBUG_VALUE: LCD_Scan_Dir:dir <- $r12
	@DEBUG_VALUE: LCD_Scan_Dir:dirreg <- 54
	movs	r3, #54
.Ltmp92:
	.loc	4 47 18 is_stmt 1               @ ../User/BSP/lcd/lcd.c:47:18
	strh	r3, [r0, #-2]
.Ltmp93:
	@DEBUG_VALUE: LCD_WriteReg:LCD_Reg <- 54
	.loc	4 48 18                         @ ../User/BSP/lcd/lcd.c:48:18
	strh	r1, [r0]
.Ltmp94:
	.loc	4 202 19                        @ ../User/BSP/lcd/lcd.c:202:19
	ldrh	r3, [r2]
	.loc	4 202 34 is_stmt 0              @ ../User/BSP/lcd/lcd.c:202:34
	ldrh.w	lr, [r2, #2]
.Ltmp95:
	.loc	4 202 12                        @ ../User/BSP/lcd/lcd.c:202:12
	cmp	r3, lr
	bls	.LBB13_13
	b	.LBB13_12
.Ltmp96:
.LBB13_8:
	@DEBUG_VALUE: LCD_Scan_Dir:regval <- 0
	@DEBUG_VALUE: LCD_Scan_Dir:dirreg <- 0
	@DEBUG_VALUE: LCD_Scan_Dir:dir <- $r12
	.loc	4 0 12                          @ ../User/BSP/lcd/lcd.c:0:12
	movs	r1, #104
.Ltmp97:
	@DEBUG_VALUE: LCD_Scan_Dir:regval <- 96
	b	.LBB13_11
.Ltmp98:
.LBB13_9:
	@DEBUG_VALUE: LCD_Scan_Dir:regval <- 0
	@DEBUG_VALUE: LCD_Scan_Dir:dirreg <- 0
	@DEBUG_VALUE: LCD_Scan_Dir:dir <- $r12
	movs	r1, #168
.Ltmp99:
	@DEBUG_VALUE: LCD_Scan_Dir:regval <- 160
	b	.LBB13_11
.Ltmp100:
.LBB13_10:
	@DEBUG_VALUE: LCD_Scan_Dir:regval <- 0
	@DEBUG_VALUE: LCD_Scan_Dir:dirreg <- 0
	@DEBUG_VALUE: LCD_Scan_Dir:dir <- $r12
	movs	r1, #232
.Ltmp101:
	@DEBUG_VALUE: LCD_Scan_Dir:regval <- 224
.LBB13_11:
	@DEBUG_VALUE: LCD_Scan_Dir:dirreg <- 0
	@DEBUG_VALUE: LCD_Scan_Dir:dir <- $r12
	@DEBUG_VALUE: LCD_Scan_Dir:regval <- $r1
	@DEBUG_VALUE: LCD_Scan_Dir:dirreg <- 54
	movs	r3, #54
.Ltmp102:
	@DEBUG_VALUE: LCD_WriteReg:LCD_Reg <- 54
	@DEBUG_VALUE: LCD_WriteReg:LCD_RegValue <- $r1
	.loc	4 47 18 is_stmt 1               @ ../User/BSP/lcd/lcd.c:47:18
	strh	r3, [r0, #-2]
	.loc	4 48 18                         @ ../User/BSP/lcd/lcd.c:48:18
	strh	r1, [r0]
.Ltmp103:
	.loc	4 193 19                        @ ../User/BSP/lcd/lcd.c:193:19
	ldrh	r3, [r2]
	.loc	4 193 34 is_stmt 0              @ ../User/BSP/lcd/lcd.c:193:34
	ldrh.w	lr, [r2, #2]
.Ltmp104:
	.loc	4 193 12                        @ ../User/BSP/lcd/lcd.c:193:12
	cmp	r3, lr
	bhs	.LBB13_13
.Ltmp105:
.LBB13_12:
	@DEBUG_VALUE: LCD_WriteReg:LCD_Reg <- 54
	@DEBUG_VALUE: LCD_Scan_Dir:dirreg <- 54
	@DEBUG_VALUE: LCD_Scan_Dir:dir <- $r12
	.loc	4 0 12                          @ ../User/BSP/lcd/lcd.c:0:12
	mov	r4, lr
	strh.w	lr, [r2]
	strh	r3, [r2, #2]
	mov	lr, r3
	mov	r3, r4
.Ltmp106:
.LBB13_13:
	@DEBUG_VALUE: LCD_Scan_Dir:dirreg <- 54
	@DEBUG_VALUE: LCD_Scan_Dir:dir <- $r12
	.loc	4 211 23 is_stmt 1              @ ../User/BSP/lcd/lcd.c:211:23
	ldrh	r4, [r2, #10]
	strh.w	r4, [sp, #6]
.Ltmp107:
	.loc	4 21 14                         @ ../User/BSP/lcd/lcd.c:21:14
	ldrh.w	r4, [sp, #6]
	.loc	4 21 12 is_stmt 0               @ ../User/BSP/lcd/lcd.c:21:12
	strh.w	r4, [sp, #6]
	.loc	4 22 20 is_stmt 1               @ ../User/BSP/lcd/lcd.c:22:20
	ldrh.w	r4, [sp, #6]
	.loc	4 22 18 is_stmt 0               @ ../User/BSP/lcd/lcd.c:22:18
	strh	r4, [r0, #-2]
	movs	r4, #0
	strh.w	r4, [sp, #6]
.Ltmp108:
	.loc	4 29 12 is_stmt 1               @ ../User/BSP/lcd/lcd.c:29:12
	ldrh.w	r5, [sp, #6]
	.loc	4 29 10 is_stmt 0               @ ../User/BSP/lcd/lcd.c:29:10
	strh.w	r5, [sp, #6]
	.loc	4 30 20 is_stmt 1               @ ../User/BSP/lcd/lcd.c:30:20
	ldrh.w	r5, [sp, #6]
	.loc	4 30 18 is_stmt 0               @ ../User/BSP/lcd/lcd.c:30:18
	strh	r5, [r0]
	strh.w	r4, [sp, #6]
.Ltmp109:
	.loc	4 29 12 is_stmt 1               @ ../User/BSP/lcd/lcd.c:29:12
	ldrh.w	r5, [sp, #6]
	.loc	4 29 10 is_stmt 0               @ ../User/BSP/lcd/lcd.c:29:10
	strh.w	r5, [sp, #6]
	.loc	4 30 20 is_stmt 1               @ ../User/BSP/lcd/lcd.c:30:20
	ldrh.w	r5, [sp, #6]
	.loc	4 30 18 is_stmt 0               @ ../User/BSP/lcd/lcd.c:30:18
	strh	r5, [r0]
.Ltmp110:
	.loc	4 214 31 is_stmt 1              @ ../User/BSP/lcd/lcd.c:214:31
	subs	r5, r3, #1
	.loc	4 214 36 is_stmt 0              @ ../User/BSP/lcd/lcd.c:214:36
	lsrs	r6, r5, #8
	strh.w	r6, [sp, #6]
.Ltmp111:
	.loc	4 29 12 is_stmt 1               @ ../User/BSP/lcd/lcd.c:29:12
	ldrh.w	r6, [sp, #6]
.Ltmp112:
	.loc	4 215 36                        @ ../User/BSP/lcd/lcd.c:215:36
	uxtb	r5, r5
.Ltmp113:
	.loc	4 29 10                         @ ../User/BSP/lcd/lcd.c:29:10
	strh.w	r6, [sp, #6]
	.loc	4 30 20                         @ ../User/BSP/lcd/lcd.c:30:20
	ldrh.w	r6, [sp, #6]
	.loc	4 30 18 is_stmt 0               @ ../User/BSP/lcd/lcd.c:30:18
	strh	r6, [r0]
	strh.w	r5, [sp, #6]
.Ltmp114:
	.loc	4 29 12 is_stmt 1               @ ../User/BSP/lcd/lcd.c:29:12
	ldrh.w	r5, [sp, #6]
	.loc	4 29 10 is_stmt 0               @ ../User/BSP/lcd/lcd.c:29:10
	strh.w	r5, [sp, #6]
	.loc	4 30 20 is_stmt 1               @ ../User/BSP/lcd/lcd.c:30:20
	ldrh.w	r5, [sp, #6]
	.loc	4 30 18 is_stmt 0               @ ../User/BSP/lcd/lcd.c:30:18
	strh	r5, [r0]
.Ltmp115:
	.loc	4 217 23 is_stmt 1              @ ../User/BSP/lcd/lcd.c:217:23
	ldrh	r2, [r2, #12]
	strh.w	r2, [sp, #6]
.Ltmp116:
	.loc	4 21 14                         @ ../User/BSP/lcd/lcd.c:21:14
	ldrh.w	r2, [sp, #6]
	.loc	4 21 12 is_stmt 0               @ ../User/BSP/lcd/lcd.c:21:12
	strh.w	r2, [sp, #6]
	.loc	4 22 20 is_stmt 1               @ ../User/BSP/lcd/lcd.c:22:20
	ldrh.w	r2, [sp, #6]
	.loc	4 22 18 is_stmt 0               @ ../User/BSP/lcd/lcd.c:22:18
	strh	r2, [r0, #-2]
	strh.w	r4, [sp, #6]
.Ltmp117:
	.loc	4 29 12 is_stmt 1               @ ../User/BSP/lcd/lcd.c:29:12
	ldrh.w	r2, [sp, #6]
	.loc	4 29 10 is_stmt 0               @ ../User/BSP/lcd/lcd.c:29:10
	strh.w	r2, [sp, #6]
	.loc	4 30 20 is_stmt 1               @ ../User/BSP/lcd/lcd.c:30:20
	ldrh.w	r2, [sp, #6]
	.loc	4 30 18 is_stmt 0               @ ../User/BSP/lcd/lcd.c:30:18
	strh	r2, [r0]
	strh.w	r4, [sp, #6]
.Ltmp118:
	.loc	4 29 12 is_stmt 1               @ ../User/BSP/lcd/lcd.c:29:12
	ldrh.w	r2, [sp, #6]
	.loc	4 29 10 is_stmt 0               @ ../User/BSP/lcd/lcd.c:29:10
	strh.w	r2, [sp, #6]
	.loc	4 30 20 is_stmt 1               @ ../User/BSP/lcd/lcd.c:30:20
	ldrh.w	r2, [sp, #6]
	.loc	4 30 18 is_stmt 0               @ ../User/BSP/lcd/lcd.c:30:18
	strh	r2, [r0]
.Ltmp119:
	.loc	4 220 32 is_stmt 1              @ ../User/BSP/lcd/lcd.c:220:32
	sub.w	r2, lr, #1
	.loc	4 220 37 is_stmt 0              @ ../User/BSP/lcd/lcd.c:220:37
	lsrs	r4, r2, #8
	strh.w	r4, [sp, #6]
.Ltmp120:
	.loc	4 29 12 is_stmt 1               @ ../User/BSP/lcd/lcd.c:29:12
	ldrh.w	r4, [sp, #6]
.Ltmp121:
	.loc	4 221 37                        @ ../User/BSP/lcd/lcd.c:221:37
	uxtb	r2, r2
.Ltmp122:
	.loc	4 29 10                         @ ../User/BSP/lcd/lcd.c:29:10
	strh.w	r4, [sp, #6]
	.loc	4 30 20                         @ ../User/BSP/lcd/lcd.c:30:20
	ldrh.w	r4, [sp, #6]
	.loc	4 30 18 is_stmt 0               @ ../User/BSP/lcd/lcd.c:30:18
	strh	r4, [r0]
	strh.w	r2, [sp, #6]
.Ltmp123:
	.loc	4 29 12 is_stmt 1               @ ../User/BSP/lcd/lcd.c:29:12
	ldrh.w	r2, [sp, #6]
	.loc	4 29 10 is_stmt 0               @ ../User/BSP/lcd/lcd.c:29:10
	strh.w	r2, [sp, #6]
	.loc	4 30 20 is_stmt 1               @ ../User/BSP/lcd/lcd.c:30:20
	ldrh.w	r2, [sp, #6]
	.loc	4 30 18 is_stmt 0               @ ../User/BSP/lcd/lcd.c:30:18
	strh	r2, [r0]
.Ltmp124:
	.loc	4 223 5 is_stmt 1               @ ../User/BSP/lcd/lcd.c:223:5
	adr	r0, .LCPI13_0
	mov	r2, r12
	str.w	lr, [sp]
	bl	__2printf
.Ltmp125:
	.loc	4 224 1                         @ ../User/BSP/lcd/lcd.c:224:1
	add	sp, #8
	pop	{r4, r5, r6, pc}
.Ltmp126:
	.p2align	2
@ %bb.14:
	.loc	4 0 1 is_stmt 0                 @ ../User/BSP/lcd/lcd.c:0:1
.LCPI13_0:
.L.str.2:
	.asciz	"Scan_Dir: 0x36 set to 0x%X (dir=%d), Current W:H = %d:%d.\r\n"
.Lfunc_end13:
	.size	LCD_Scan_Dir, .Lfunc_end13-LCD_Scan_Dir
	.cfi_endproc
	.cantunwind
	.fnend
                                        @ -- End function
	.section	.text.LCD_DrawPoint,"ax",%progbits
	.hidden	LCD_DrawPoint                   @ -- Begin function LCD_DrawPoint
	.globl	LCD_DrawPoint
	.p2align	2
	.type	LCD_DrawPoint,%function
	.code	16                              @ @LCD_DrawPoint
	.thumb_func
LCD_DrawPoint:
.Lfunc_begin14:
	.loc	4 230 0 is_stmt 1               @ ../User/BSP/lcd/lcd.c:230:0
	.fnstart
	.cfi_startproc
@ %bb.0:
	@DEBUG_VALUE: LCD_DrawPoint:x <- $r0
	@DEBUG_VALUE: LCD_DrawPoint:y <- $r1
	.save	{r4, lr}
	push	{r4, lr}
	.cfi_def_cfa_offset 8
	.cfi_offset lr, -4
	.cfi_offset r4, -8
.Ltmp127:
	.loc	4 232 20 prologue_end           @ ../User/BSP/lcd/lcd.c:232:20
	movw	r4, :lower16:lcddev
	movt	r4, :upper16:lcddev
	ldrh	r2, [r4]
.Ltmp128:
	@DEBUG_VALUE: LCD_DrawPoint:y <- undef
	.loc	4 232 26 is_stmt 0              @ ../User/BSP/lcd/lcd.c:232:26
	cmp	r2, r0
.Ltmp129:
	@DEBUG_VALUE: LCD_DrawPoint:y <- $r1
	bls	.LBB14_3
.Ltmp130:
@ %bb.1:
	@DEBUG_VALUE: LCD_DrawPoint:y <- $r1
	@DEBUG_VALUE: LCD_DrawPoint:x <- $r0
	@DEBUG_VALUE: LCD_DrawPoint:y <- $r1
	.loc	4 0 26                          @ ../User/BSP/lcd/lcd.c:0:26
	ldrh	r2, [r4, #2]
	.loc	4 232 26                        @ ../User/BSP/lcd/lcd.c:232:26
	cmp	r2, r1
.Ltmp131:
	.loc	4 237 1 is_stmt 1               @ ../User/BSP/lcd/lcd.c:237:1
	it	ls
	popls	{r4, pc}
.Ltmp132:
.LBB14_2:
	@DEBUG_VALUE: LCD_DrawPoint:y <- $r1
	@DEBUG_VALUE: LCD_DrawPoint:x <- $r0
	@DEBUG_VALUE: LCD_DrawPoint:y <- $r1
	.loc	4 234 5                         @ ../User/BSP/lcd/lcd.c:234:5
	bl	LCD_SetCursor
.Ltmp133:
	@DEBUG_VALUE: LCD_DrawPoint:x <- [DW_OP_LLVM_entry_value 1] $r0
	.loc	4 64 27                         @ ../User/BSP/lcd/lcd.c:64:27
	ldrh	r0, [r4, #8]
	movs	r1, #126
	movt	r1, #27648
	.loc	4 64 18 is_stmt 0               @ ../User/BSP/lcd/lcd.c:64:18
	strh	r0, [r1]
.Ltmp134:
	.loc	4 236 20 is_stmt 1              @ ../User/BSP/lcd/lcd.c:236:20
	movw	r0, :lower16:POINT_COLOR
	movt	r0, :upper16:POINT_COLOR
	ldr	r0, [r0]
	.loc	4 236 18 is_stmt 0              @ ../User/BSP/lcd/lcd.c:236:18
	strh	r0, [r1, #2]
.Ltmp135:
.LBB14_3:
	.loc	4 237 1 is_stmt 1               @ ../User/BSP/lcd/lcd.c:237:1
	pop	{r4, pc}
.Ltmp136:
.Lfunc_end14:
	.size	LCD_DrawPoint, .Lfunc_end14-LCD_DrawPoint
	.cfi_endproc
	.cantunwind
	.fnend
                                        @ -- End function
	.section	.text.LCD_Fast_DrawPoint,"ax",%progbits
	.hidden	LCD_Fast_DrawPoint              @ -- Begin function LCD_Fast_DrawPoint
	.globl	LCD_Fast_DrawPoint
	.p2align	2
	.type	LCD_Fast_DrawPoint,%function
	.code	16                              @ @LCD_Fast_DrawPoint
	.thumb_func
LCD_Fast_DrawPoint:
.Lfunc_begin15:
	.loc	4 243 0                         @ ../User/BSP/lcd/lcd.c:243:0
	.fnstart
	.cfi_startproc
@ %bb.0:
	@DEBUG_VALUE: LCD_Fast_DrawPoint:x <- $r0
	@DEBUG_VALUE: LCD_Fast_DrawPoint:y <- $r1
	@DEBUG_VALUE: LCD_Fast_DrawPoint:color <- $r2
	.save	{r4, r5, r6, lr}
	push	{r4, r5, r6, lr}
	.cfi_def_cfa_offset 16
	.cfi_offset lr, -4
	.cfi_offset r6, -8
	.cfi_offset r5, -12
	.cfi_offset r4, -16
	.pad	#4
	sub	sp, #4
	.cfi_def_cfa_offset 20
.Ltmp137:
	.loc	4 245 20 prologue_end           @ ../User/BSP/lcd/lcd.c:245:20
	movw	lr, :lower16:lcddev
	movt	lr, :upper16:lcddev
	mov	r12, r2
.Ltmp138:
	@DEBUG_VALUE: LCD_Fast_DrawPoint:color <- $r12
	ldrh.w	r2, [lr]
.Ltmp139:
	@DEBUG_VALUE: LCD_Fast_DrawPoint:y <- undef
	.loc	4 245 26 is_stmt 0              @ ../User/BSP/lcd/lcd.c:245:26
	cmp	r2, r0
.Ltmp140:
	@DEBUG_VALUE: LCD_Fast_DrawPoint:y <- $r1
	bls	.LBB15_3
.Ltmp141:
@ %bb.1:
	@DEBUG_VALUE: LCD_Fast_DrawPoint:color <- $r12
	@DEBUG_VALUE: LCD_Fast_DrawPoint:y <- $r1
	@DEBUG_VALUE: LCD_Fast_DrawPoint:x <- $r0
	.loc	4 0 26                          @ ../User/BSP/lcd/lcd.c:0:26
	ldrh.w	r3, [lr, #2]
	.loc	4 245 26                        @ ../User/BSP/lcd/lcd.c:245:26
	cmp	r3, r1
	bls	.LBB15_3
.Ltmp142:
@ %bb.2:
	@DEBUG_VALUE: LCD_Fast_DrawPoint:color <- $r12
	@DEBUG_VALUE: LCD_Fast_DrawPoint:y <- $r1
	@DEBUG_VALUE: LCD_Fast_DrawPoint:x <- $r0
	.loc	4 248 23 is_stmt 1              @ ../User/BSP/lcd/lcd.c:248:23
	ldrh.w	r4, [lr, #10]
	strh.w	r4, [sp, #2]
.Ltmp143:
	.loc	4 21 14                         @ ../User/BSP/lcd/lcd.c:21:14
	ldrh.w	r4, [sp, #2]
	.loc	4 21 12 is_stmt 0               @ ../User/BSP/lcd/lcd.c:21:12
	strh.w	r4, [sp, #2]
	.loc	4 22 20 is_stmt 1               @ ../User/BSP/lcd/lcd.c:22:20
	ldrh.w	r5, [sp, #2]
	movs	r4, #128
	movt	r4, #27648
	.loc	4 22 18 is_stmt 0               @ ../User/BSP/lcd/lcd.c:22:18
	strh	r5, [r4, #-2]
.Ltmp144:
	.loc	4 249 19 is_stmt 1              @ ../User/BSP/lcd/lcd.c:249:19
	lsrs	r5, r0, #8
	strh.w	r5, [sp, #2]
.Ltmp145:
	.loc	4 29 12                         @ ../User/BSP/lcd/lcd.c:29:12
	ldrh.w	r6, [sp, #2]
.Ltmp146:
	.loc	4 250 19                        @ ../User/BSP/lcd/lcd.c:250:19
	uxtb	r0, r0
.Ltmp147:
	@DEBUG_VALUE: LCD_Fast_DrawPoint:x <- [DW_OP_LLVM_entry_value 1] $r0
	.loc	4 29 10                         @ ../User/BSP/lcd/lcd.c:29:10
	strh.w	r6, [sp, #2]
	.loc	4 30 20                         @ ../User/BSP/lcd/lcd.c:30:20
	ldrh.w	r6, [sp, #2]
	.loc	4 30 18 is_stmt 0               @ ../User/BSP/lcd/lcd.c:30:18
	strh	r6, [r4]
	strh.w	r0, [sp, #2]
.Ltmp148:
	.loc	4 29 12 is_stmt 1               @ ../User/BSP/lcd/lcd.c:29:12
	ldrh.w	r6, [sp, #2]
	.loc	4 29 10 is_stmt 0               @ ../User/BSP/lcd/lcd.c:29:10
	strh.w	r6, [sp, #2]
	.loc	4 30 20 is_stmt 1               @ ../User/BSP/lcd/lcd.c:30:20
	ldrh.w	r6, [sp, #2]
	.loc	4 30 18 is_stmt 0               @ ../User/BSP/lcd/lcd.c:30:18
	strh	r6, [r4]
	strh.w	r5, [sp, #2]
.Ltmp149:
	.loc	4 29 12 is_stmt 1               @ ../User/BSP/lcd/lcd.c:29:12
	ldrh.w	r5, [sp, #2]
	.loc	4 29 10 is_stmt 0               @ ../User/BSP/lcd/lcd.c:29:10
	strh.w	r5, [sp, #2]
	.loc	4 30 20 is_stmt 1               @ ../User/BSP/lcd/lcd.c:30:20
	ldrh.w	r5, [sp, #2]
	.loc	4 30 18 is_stmt 0               @ ../User/BSP/lcd/lcd.c:30:18
	strh	r5, [r4]
	strh.w	r0, [sp, #2]
.Ltmp150:
	.loc	4 29 12 is_stmt 1               @ ../User/BSP/lcd/lcd.c:29:12
	ldrh.w	r0, [sp, #2]
	.loc	4 29 10 is_stmt 0               @ ../User/BSP/lcd/lcd.c:29:10
	strh.w	r0, [sp, #2]
	.loc	4 30 20 is_stmt 1               @ ../User/BSP/lcd/lcd.c:30:20
	ldrh.w	r0, [sp, #2]
	.loc	4 30 18 is_stmt 0               @ ../User/BSP/lcd/lcd.c:30:18
	strh	r0, [r4]
.Ltmp151:
	.loc	4 254 23 is_stmt 1              @ ../User/BSP/lcd/lcd.c:254:23
	ldrh.w	r0, [lr, #12]
	strh.w	r0, [sp, #2]
.Ltmp152:
	.loc	4 21 14                         @ ../User/BSP/lcd/lcd.c:21:14
	ldrh.w	r0, [sp, #2]
	.loc	4 21 12 is_stmt 0               @ ../User/BSP/lcd/lcd.c:21:12
	strh.w	r0, [sp, #2]
	.loc	4 22 20 is_stmt 1               @ ../User/BSP/lcd/lcd.c:22:20
	ldrh.w	r0, [sp, #2]
	.loc	4 22 18 is_stmt 0               @ ../User/BSP/lcd/lcd.c:22:18
	strh	r0, [r4, #-2]
.Ltmp153:
	.loc	4 255 19 is_stmt 1              @ ../User/BSP/lcd/lcd.c:255:19
	lsrs	r0, r1, #8
	strh.w	r0, [sp, #2]
.Ltmp154:
	.loc	4 29 12                         @ ../User/BSP/lcd/lcd.c:29:12
	ldrh.w	r5, [sp, #2]
.Ltmp155:
	.loc	4 256 19                        @ ../User/BSP/lcd/lcd.c:256:19
	uxtb	r1, r1
.Ltmp156:
	.loc	4 29 10                         @ ../User/BSP/lcd/lcd.c:29:10
	strh.w	r5, [sp, #2]
	.loc	4 30 20                         @ ../User/BSP/lcd/lcd.c:30:20
	ldrh.w	r5, [sp, #2]
	.loc	4 30 18 is_stmt 0               @ ../User/BSP/lcd/lcd.c:30:18
	strh	r5, [r4]
	strh.w	r1, [sp, #2]
.Ltmp157:
	.loc	4 29 12 is_stmt 1               @ ../User/BSP/lcd/lcd.c:29:12
	ldrh.w	r5, [sp, #2]
	.loc	4 29 10 is_stmt 0               @ ../User/BSP/lcd/lcd.c:29:10
	strh.w	r5, [sp, #2]
	.loc	4 30 20 is_stmt 1               @ ../User/BSP/lcd/lcd.c:30:20
	ldrh.w	r5, [sp, #2]
	.loc	4 30 18 is_stmt 0               @ ../User/BSP/lcd/lcd.c:30:18
	strh	r5, [r4]
	strh.w	r0, [sp, #2]
.Ltmp158:
	.loc	4 29 12 is_stmt 1               @ ../User/BSP/lcd/lcd.c:29:12
	ldrh.w	r0, [sp, #2]
	.loc	4 29 10 is_stmt 0               @ ../User/BSP/lcd/lcd.c:29:10
	strh.w	r0, [sp, #2]
	.loc	4 30 20 is_stmt 1               @ ../User/BSP/lcd/lcd.c:30:20
	ldrh.w	r0, [sp, #2]
	.loc	4 30 18 is_stmt 0               @ ../User/BSP/lcd/lcd.c:30:18
	strh	r0, [r4]
	strh.w	r1, [sp, #2]
.Ltmp159:
	.loc	4 29 12 is_stmt 1               @ ../User/BSP/lcd/lcd.c:29:12
	ldrh.w	r0, [sp, #2]
.Ltmp160:
	.loc	4 265 5                         @ ../User/BSP/lcd/lcd.c:265:5
	movs	r1, #0
.Ltmp161:
	.loc	4 29 10                         @ ../User/BSP/lcd/lcd.c:29:10
	strh.w	r0, [sp, #2]
	.loc	4 30 20                         @ ../User/BSP/lcd/lcd.c:30:20
	ldrh.w	r0, [sp, #2]
	.loc	4 30 18 is_stmt 0               @ ../User/BSP/lcd/lcd.c:30:18
	strh	r0, [r4]
.Ltmp162:
	.loc	4 260 27 is_stmt 1              @ ../User/BSP/lcd/lcd.c:260:27
	ldrh.w	r0, [lr, #8]
	.loc	4 260 18 is_stmt 0              @ ../User/BSP/lcd/lcd.c:260:18
	strh	r0, [r4, #-2]
	.loc	4 265 5 is_stmt 1               @ ../User/BSP/lcd/lcd.c:265:5
	movs	r0, #0
	.loc	4 261 18                        @ ../User/BSP/lcd/lcd.c:261:18
	strh.w	r12, [r4]
	.loc	4 265 5                         @ ../User/BSP/lcd/lcd.c:265:5
	add	sp, #4
	pop.w	{r4, r5, r6, lr}
.Ltmp163:
	b	LCD_Set_Window
.Ltmp164:
.LBB15_3:
	@DEBUG_VALUE: LCD_Fast_DrawPoint:color <- $r12
	@DEBUG_VALUE: LCD_Fast_DrawPoint:y <- $r1
	@DEBUG_VALUE: LCD_Fast_DrawPoint:x <- $r0
	.loc	4 266 1                         @ ../User/BSP/lcd/lcd.c:266:1
	add	sp, #4
	pop	{r4, r5, r6, pc}
.Ltmp165:
.Lfunc_end15:
	.size	LCD_Fast_DrawPoint, .Lfunc_end15-LCD_Fast_DrawPoint
	.cfi_endproc
	.cantunwind
	.fnend
                                        @ -- End function
	.section	.text.LCD_Set_Window,"ax",%progbits
	.hidden	LCD_Set_Window                  @ -- Begin function LCD_Set_Window
	.globl	LCD_Set_Window
	.p2align	2
	.type	LCD_Set_Window,%function
	.code	16                              @ @LCD_Set_Window
	.thumb_func
LCD_Set_Window:
.Lfunc_begin16:
	.loc	4 303 0                         @ ../User/BSP/lcd/lcd.c:303:0
	.fnstart
	.cfi_startproc
@ %bb.0:
	@DEBUG_VALUE: LCD_Set_Window:sx <- $r0
	@DEBUG_VALUE: LCD_Set_Window:sy <- $r1
	@DEBUG_VALUE: LCD_Set_Window:width <- $r2
	@DEBUG_VALUE: LCD_Set_Window:height <- $r3
	.save	{r4, r5, r6, r7, r8, lr}
	push.w	{r4, r5, r6, r7, r8, lr}
	.cfi_def_cfa_offset 24
	.cfi_offset lr, -4
	.cfi_offset r8, -8
	.cfi_offset r7, -12
	.cfi_offset r6, -16
	.cfi_offset r5, -20
	.cfi_offset r4, -24
	.pad	#4
	sub	sp, #4
	.cfi_def_cfa_offset 28
.Ltmp166:
	.loc	4 308 21 prologue_end           @ ../User/BSP/lcd/lcd.c:308:21
	movw	lr, :lower16:lcddev
	movt	lr, :upper16:lcddev
	ldrh.w	r5, [lr]
.Ltmp167:
	@DEBUG_VALUE: LCD_Set_Window:theight <- [DW_OP_LLVM_arg 0, DW_OP_LLVM_arg 1, DW_OP_plus, DW_OP_constu 1, DW_OP_minus, DW_OP_stack_value] undef
	@DEBUG_VALUE: LCD_Set_Window:twidth <- [DW_OP_LLVM_arg 0, DW_OP_LLVM_arg 1, DW_OP_plus, DW_OP_constu 1, DW_OP_minus, DW_OP_stack_value] undef
	@DEBUG_VALUE: LCD_Set_Window:sy <- undef
	.loc	4 308 27 is_stmt 0              @ ../User/BSP/lcd/lcd.c:308:27
	cmp	r5, r0
.Ltmp168:
	@DEBUG_VALUE: LCD_Set_Window:sy <- $r1
	bls	.LBB16_3
.Ltmp169:
@ %bb.1:
	@DEBUG_VALUE: LCD_Set_Window:height <- $r3
	@DEBUG_VALUE: LCD_Set_Window:width <- $r2
	@DEBUG_VALUE: LCD_Set_Window:sy <- $r1
	@DEBUG_VALUE: LCD_Set_Window:sx <- $r0
	.loc	4 0 27                          @ ../User/BSP/lcd/lcd.c:0:27
	ldrh.w	r6, [lr, #2]
	.loc	4 308 27                        @ ../User/BSP/lcd/lcd.c:308:27
	cmp	r6, r1
	bls	.LBB16_3
.Ltmp170:
@ %bb.2:
	@DEBUG_VALUE: LCD_Set_Window:height <- $r3
	@DEBUG_VALUE: LCD_Set_Window:width <- $r2
	@DEBUG_VALUE: LCD_Set_Window:sy <- $r1
	@DEBUG_VALUE: LCD_Set_Window:sx <- $r0
	@DEBUG_VALUE: LCD_Set_Window:theight <- [DW_OP_constu 1, DW_OP_minus, DW_OP_stack_value] undef
	.loc	4 305 22 is_stmt 1              @ ../User/BSP/lcd/lcd.c:305:22
	adds	r4, r1, r3
	.loc	4 305 31 is_stmt 0              @ ../User/BSP/lcd/lcd.c:305:31
	sub.w	r12, r4, #1
.Ltmp171:
	@DEBUG_VALUE: LCD_Set_Window:theight <- $r12
	.loc	4 304 21 is_stmt 1              @ ../User/BSP/lcd/lcd.c:304:21
	adds	r4, r0, r2
	.loc	4 304 29 is_stmt 0              @ ../User/BSP/lcd/lcd.c:304:29
	subs	r4, #1
.Ltmp172:
	@DEBUG_VALUE: LCD_Set_Window:twidth <- $r4
	uxth	r7, r4
	.loc	4 305 31 is_stmt 1              @ ../User/BSP/lcd/lcd.c:305:31
	uxth.w	r8, r12
.Ltmp173:
	@DEBUG_VALUE: LCD_Set_Window:twidth <- [DW_OP_constu 1, DW_OP_minus, DW_OP_stack_value] undef
	.loc	4 309 8                         @ ../User/BSP/lcd/lcd.c:309:8
	cmp	r7, r5
	it	hs
	subhs	r4, r5, #1
.Ltmp174:
	@DEBUG_VALUE: LCD_Set_Window:twidth <- $r4
	.loc	4 310 8                         @ ../User/BSP/lcd/lcd.c:310:8
	cmp	r8, r6
	it	hs
	subhs.w	r12, r6, #1
.Ltmp175:
	@DEBUG_VALUE: LCD_Set_Window:theight <- $r12
	.loc	4 311 19                        @ ../User/BSP/lcd/lcd.c:311:19
	cmp	r2, #0
	it	ne
	cmpne	r3, #0
	bne	.LBB16_4
.Ltmp176:
.LBB16_3:
	@DEBUG_VALUE: LCD_Set_Window:width <- $r2
	@DEBUG_VALUE: LCD_Set_Window:sy <- $r1
	@DEBUG_VALUE: LCD_Set_Window:sx <- $r0
	.loc	4 328 1                         @ ../User/BSP/lcd/lcd.c:328:1
	add	sp, #4
	pop.w	{r4, r5, r6, r7, r8, pc}
.Ltmp177:
.LBB16_4:
	@DEBUG_VALUE: LCD_Set_Window:twidth <- $r4
	@DEBUG_VALUE: LCD_Set_Window:theight <- $r12
	@DEBUG_VALUE: LCD_Set_Window:height <- $r3
	@DEBUG_VALUE: LCD_Set_Window:width <- $r2
	@DEBUG_VALUE: LCD_Set_Window:sy <- $r1
	@DEBUG_VALUE: LCD_Set_Window:sx <- $r0
	.loc	4 0 1 is_stmt 0                 @ ../User/BSP/lcd/lcd.c:0:1
	uxth	r5, r4
.Ltmp178:
	.loc	4 311 19 is_stmt 1              @ ../User/BSP/lcd/lcd.c:311:19
	cmp	r5, r0
	blo	.LBB16_3
.Ltmp179:
@ %bb.5:
	@DEBUG_VALUE: LCD_Set_Window:twidth <- $r4
	@DEBUG_VALUE: LCD_Set_Window:theight <- $r12
	@DEBUG_VALUE: LCD_Set_Window:height <- $r3
	@DEBUG_VALUE: LCD_Set_Window:width <- $r2
	@DEBUG_VALUE: LCD_Set_Window:sy <- $r1
	@DEBUG_VALUE: LCD_Set_Window:sx <- $r0
	.loc	4 0 19 is_stmt 0                @ ../User/BSP/lcd/lcd.c:0:19
	uxth.w	r3, r12
.Ltmp180:
	@DEBUG_VALUE: LCD_Set_Window:height <- [DW_OP_LLVM_entry_value 1] $r3
	.loc	4 311 19                        @ ../User/BSP/lcd/lcd.c:311:19
	cmp	r3, r1
	blo	.LBB16_3
.Ltmp181:
@ %bb.6:
	@DEBUG_VALUE: LCD_Set_Window:height <- [DW_OP_LLVM_entry_value 1] $r3
	@DEBUG_VALUE: LCD_Set_Window:twidth <- $r4
	@DEBUG_VALUE: LCD_Set_Window:theight <- $r12
	@DEBUG_VALUE: LCD_Set_Window:width <- $r2
	@DEBUG_VALUE: LCD_Set_Window:sy <- $r1
	@DEBUG_VALUE: LCD_Set_Window:sx <- $r0
	.loc	4 314 23 is_stmt 1              @ ../User/BSP/lcd/lcd.c:314:23
	ldrh.w	r2, [lr, #10]
.Ltmp182:
	@DEBUG_VALUE: LCD_Set_Window:width <- [DW_OP_LLVM_entry_value 1] $r2
	.loc	4 0 23 is_stmt 0                @ ../User/BSP/lcd/lcd.c:0:23
	strh.w	r2, [sp, #2]
.Ltmp183:
	.loc	4 21 14 is_stmt 1               @ ../User/BSP/lcd/lcd.c:21:14
	ldrh.w	r2, [sp, #2]
	.loc	4 21 12 is_stmt 0               @ ../User/BSP/lcd/lcd.c:21:12
	strh.w	r2, [sp, #2]
	.loc	4 22 20 is_stmt 1               @ ../User/BSP/lcd/lcd.c:22:20
	ldrh.w	r6, [sp, #2]
	movs	r2, #128
	movt	r2, #27648
	.loc	4 22 18 is_stmt 0               @ ../User/BSP/lcd/lcd.c:22:18
	strh	r6, [r2, #-2]
.Ltmp184:
	.loc	4 315 20 is_stmt 1              @ ../User/BSP/lcd/lcd.c:315:20
	lsrs	r6, r0, #8
	strh.w	r6, [sp, #2]
.Ltmp185:
	.loc	4 29 12                         @ ../User/BSP/lcd/lcd.c:29:12
	ldrh.w	r6, [sp, #2]
.Ltmp186:
	.loc	4 316 20                        @ ../User/BSP/lcd/lcd.c:316:20
	uxtb	r0, r0
.Ltmp187:
	@DEBUG_VALUE: LCD_Set_Window:sx <- [DW_OP_LLVM_entry_value 1] $r0
	.loc	4 29 10                         @ ../User/BSP/lcd/lcd.c:29:10
	strh.w	r6, [sp, #2]
	.loc	4 30 20                         @ ../User/BSP/lcd/lcd.c:30:20
	ldrh.w	r6, [sp, #2]
	.loc	4 30 18 is_stmt 0               @ ../User/BSP/lcd/lcd.c:30:18
	strh	r6, [r2]
	strh.w	r0, [sp, #2]
.Ltmp188:
	.loc	4 29 12 is_stmt 1               @ ../User/BSP/lcd/lcd.c:29:12
	ldrh.w	r0, [sp, #2]
	.loc	4 29 10 is_stmt 0               @ ../User/BSP/lcd/lcd.c:29:10
	strh.w	r0, [sp, #2]
	.loc	4 30 20 is_stmt 1               @ ../User/BSP/lcd/lcd.c:30:20
	ldrh.w	r0, [sp, #2]
	.loc	4 30 18 is_stmt 0               @ ../User/BSP/lcd/lcd.c:30:18
	strh	r0, [r2]
.Ltmp189:
	.loc	4 317 24 is_stmt 1              @ ../User/BSP/lcd/lcd.c:317:24
	lsrs	r0, r5, #8
	strh.w	r0, [sp, #2]
.Ltmp190:
	.loc	4 29 12                         @ ../User/BSP/lcd/lcd.c:29:12
	ldrh.w	r0, [sp, #2]
	.loc	4 29 10 is_stmt 0               @ ../User/BSP/lcd/lcd.c:29:10
	strh.w	r0, [sp, #2]
	.loc	4 30 20 is_stmt 1               @ ../User/BSP/lcd/lcd.c:30:20
	ldrh.w	r0, [sp, #2]
	.loc	4 30 18 is_stmt 0               @ ../User/BSP/lcd/lcd.c:30:18
	strh	r0, [r2]
.Ltmp191:
	.loc	4 318 24 is_stmt 1              @ ../User/BSP/lcd/lcd.c:318:24
	uxtb	r0, r4
	strh.w	r0, [sp, #2]
.Ltmp192:
	.loc	4 29 12                         @ ../User/BSP/lcd/lcd.c:29:12
	ldrh.w	r0, [sp, #2]
	.loc	4 29 10 is_stmt 0               @ ../User/BSP/lcd/lcd.c:29:10
	strh.w	r0, [sp, #2]
	.loc	4 30 20 is_stmt 1               @ ../User/BSP/lcd/lcd.c:30:20
	ldrh.w	r0, [sp, #2]
	.loc	4 30 18 is_stmt 0               @ ../User/BSP/lcd/lcd.c:30:18
	strh	r0, [r2]
.Ltmp193:
	.loc	4 321 23 is_stmt 1              @ ../User/BSP/lcd/lcd.c:321:23
	ldrh.w	r0, [lr, #12]
	strh.w	r0, [sp, #2]
.Ltmp194:
	.loc	4 21 14                         @ ../User/BSP/lcd/lcd.c:21:14
	ldrh.w	r0, [sp, #2]
	.loc	4 21 12 is_stmt 0               @ ../User/BSP/lcd/lcd.c:21:12
	strh.w	r0, [sp, #2]
	.loc	4 22 20 is_stmt 1               @ ../User/BSP/lcd/lcd.c:22:20
	ldrh.w	r0, [sp, #2]
	.loc	4 22 18 is_stmt 0               @ ../User/BSP/lcd/lcd.c:22:18
	strh	r0, [r2, #-2]
.Ltmp195:
	.loc	4 322 20 is_stmt 1              @ ../User/BSP/lcd/lcd.c:322:20
	lsrs	r0, r1, #8
	strh.w	r0, [sp, #2]
.Ltmp196:
	.loc	4 29 12                         @ ../User/BSP/lcd/lcd.c:29:12
	ldrh.w	r0, [sp, #2]
	.loc	4 29 10 is_stmt 0               @ ../User/BSP/lcd/lcd.c:29:10
	strh.w	r0, [sp, #2]
	.loc	4 30 20 is_stmt 1               @ ../User/BSP/lcd/lcd.c:30:20
	ldrh.w	r0, [sp, #2]
	.loc	4 30 18 is_stmt 0               @ ../User/BSP/lcd/lcd.c:30:18
	strh	r0, [r2]
.Ltmp197:
	.loc	4 323 20 is_stmt 1              @ ../User/BSP/lcd/lcd.c:323:20
	uxtb	r0, r1
	strh.w	r0, [sp, #2]
.Ltmp198:
	.loc	4 29 12                         @ ../User/BSP/lcd/lcd.c:29:12
	ldrh.w	r0, [sp, #2]
	.loc	4 29 10 is_stmt 0               @ ../User/BSP/lcd/lcd.c:29:10
	strh.w	r0, [sp, #2]
	.loc	4 30 20 is_stmt 1               @ ../User/BSP/lcd/lcd.c:30:20
	ldrh.w	r0, [sp, #2]
	.loc	4 30 18 is_stmt 0               @ ../User/BSP/lcd/lcd.c:30:18
	strh	r0, [r2]
.Ltmp199:
	.loc	4 324 25 is_stmt 1              @ ../User/BSP/lcd/lcd.c:324:25
	lsrs	r0, r3, #8
	strh.w	r0, [sp, #2]
.Ltmp200:
	.loc	4 29 12                         @ ../User/BSP/lcd/lcd.c:29:12
	ldrh.w	r0, [sp, #2]
	.loc	4 29 10 is_stmt 0               @ ../User/BSP/lcd/lcd.c:29:10
	strh.w	r0, [sp, #2]
	.loc	4 30 20 is_stmt 1               @ ../User/BSP/lcd/lcd.c:30:20
	ldrh.w	r0, [sp, #2]
	.loc	4 30 18 is_stmt 0               @ ../User/BSP/lcd/lcd.c:30:18
	strh	r0, [r2]
.Ltmp201:
	.loc	4 325 25 is_stmt 1              @ ../User/BSP/lcd/lcd.c:325:25
	uxtb.w	r0, r12
	strh.w	r0, [sp, #2]
.Ltmp202:
	.loc	4 29 12                         @ ../User/BSP/lcd/lcd.c:29:12
	ldrh.w	r0, [sp, #2]
	.loc	4 29 10 is_stmt 0               @ ../User/BSP/lcd/lcd.c:29:10
	strh.w	r0, [sp, #2]
	.loc	4 30 20 is_stmt 1               @ ../User/BSP/lcd/lcd.c:30:20
	ldrh.w	r0, [sp, #2]
	.loc	4 30 18 is_stmt 0               @ ../User/BSP/lcd/lcd.c:30:18
	strh	r0, [r2]
.Ltmp203:
	.loc	4 328 1 is_stmt 1               @ ../User/BSP/lcd/lcd.c:328:1
	add	sp, #4
	pop.w	{r4, r5, r6, r7, r8, pc}
.Ltmp204:
.Lfunc_end16:
	.size	LCD_Set_Window, .Lfunc_end16-LCD_Set_Window
	.cfi_endproc
	.cantunwind
	.fnend
                                        @ -- End function
	.section	.text.LCD_Display_Dir,"ax",%progbits
	.hidden	LCD_Display_Dir                 @ -- Begin function LCD_Display_Dir
	.globl	LCD_Display_Dir
	.p2align	2
	.type	LCD_Display_Dir,%function
	.code	16                              @ @LCD_Display_Dir
	.thumb_func
LCD_Display_Dir:
.Lfunc_begin17:
	.loc	4 271 0                         @ ../User/BSP/lcd/lcd.c:271:0
	.fnstart
	.cfi_startproc
@ %bb.0:
	@DEBUG_VALUE: LCD_Display_Dir:dir <- $r0
	.save	{r4, r5, r7, lr}
	push	{r4, r5, r7, lr}
	.cfi_def_cfa_offset 16
	.cfi_offset lr, -4
	.cfi_offset r7, -8
	.cfi_offset r5, -12
	.cfi_offset r4, -16
	mov	r4, r0
.Ltmp205:
	@DEBUG_VALUE: LCD_Display_Dir:dir <- $r4
	cmp	r0, #0
	mov	r5, r0
.Ltmp206:
	.loc	4 272 5 prologue_end            @ ../User/BSP/lcd/lcd.c:272:5
	movw	r0, :lower16:.L.str.3
	movt	r0, :upper16:.L.str.3
	mov	r1, r4
	it	ne
	movne	r5, #1
	bl	__2printf
.Ltmp207:
	.loc	4 0 5 is_stmt 0                 @ ../User/BSP/lcd/lcd.c:0:5
	mov.w	r0, #480
	cmp	r4, #0
.Ltmp208:
	movw	r4, :lower16:lcddev
.Ltmp209:
	@DEBUG_VALUE: LCD_Display_Dir:dir <- [DW_OP_LLVM_entry_value 1] $r0
	it	eq
	moveq.w	r0, #320
	mov.w	r1, #320
	movt	r4, :upper16:lcddev
	it	eq
	moveq.w	r1, #480
	strh	r0, [r4]
	movs	r0, #44
	movt	r0, #42
	str	r0, [r4, #8]
	movs	r0, #43
	strh	r0, [r4, #12]
	lsls	r0, r5, #2
	strb	r5, [r4, #6]
	strh	r1, [r4, #2]
	bl	LCD_Scan_Dir
.Ltmp210:
	.loc	4 295 33 is_stmt 1              @ ../User/BSP/lcd/lcd.c:295:33
	ldrh	r2, [r4]
	.loc	4 295 47 is_stmt 0              @ ../User/BSP/lcd/lcd.c:295:47
	ldrh	r3, [r4, #2]
	.loc	4 295 5                         @ ../User/BSP/lcd/lcd.c:295:5
	movs	r0, #0
	movs	r1, #0
	bl	LCD_Set_Window
.Ltmp211:
	.loc	4 296 74 is_stmt 1              @ ../User/BSP/lcd/lcd.c:296:74
	ldrh	r1, [r4]
	.loc	4 296 88 is_stmt 0              @ ../User/BSP/lcd/lcd.c:296:88
	ldrh	r2, [r4, #2]
	.loc	4 296 5                         @ ../User/BSP/lcd/lcd.c:296:5
	movw	r0, :lower16:.L.str.4
	movt	r0, :upper16:.L.str.4
	pop.w	{r4, r5, r7, lr}
.Ltmp212:
	b	__2printf
.Ltmp213:
.Lfunc_end17:
	.size	LCD_Display_Dir, .Lfunc_end17-LCD_Display_Dir
	.cfi_endproc
	.cantunwind
	.fnend
                                        @ -- End function
	.section	.text.HAL_SRAM_MspInit,"ax",%progbits
	.hidden	HAL_SRAM_MspInit                @ -- Begin function HAL_SRAM_MspInit
	.globl	HAL_SRAM_MspInit
	.p2align	2
	.type	HAL_SRAM_MspInit,%function
	.code	16                              @ @HAL_SRAM_MspInit
	.thumb_func
HAL_SRAM_MspInit:
.Lfunc_begin18:
	.loc	4 332 0 is_stmt 1               @ ../User/BSP/lcd/lcd.c:332:0
	.fnstart
	.cfi_startproc
@ %bb.0:
	@DEBUG_VALUE: HAL_SRAM_MspInit:hsram <- $r0
	.save	{r4, r5, r6, lr}
	push	{r4, r5, r6, lr}
	.cfi_def_cfa_offset 16
	.cfi_offset lr, -4
	.cfi_offset r6, -8
	.cfi_offset r5, -12
	.cfi_offset r4, -16
	.pad	#24
	sub	sp, #24
	.cfi_def_cfa_offset 40
	movs	r1, #0
	movw	r0, #14384
.Ltmp214:
	@DEBUG_VALUE: HAL_SRAM_MspInit:hsram <- [DW_OP_LLVM_entry_value 1] $r0
	.loc	4 334 5 prologue_end            @ ../User/BSP/lcd/lcd.c:334:5
	str	r1, [sp, #4]
	movt	r0, #16386
	ldr	r2, [r0, #8]
	movw	r4, #3072
	orr	r2, r2, #1
	str	r2, [r0, #8]
	ldr	r2, [r0, #8]
	movt	r4, #16386
	and	r2, r2, #1
	str	r2, [sp, #4]
	ldr	r2, [sp, #4]
.Ltmp215:
	.loc	4 335 5                         @ ../User/BSP/lcd/lcd.c:335:5
	str	r1, [sp, #4]
	ldr	r2, [r0]
	add	r5, sp, #4
	orr	r2, r2, #8
	str	r2, [r0]
	ldr	r2, [r0]
	and	r2, r2, #8
	str	r2, [sp, #4]
	ldr	r2, [sp, #4]
.Ltmp216:
	.loc	4 336 5                         @ ../User/BSP/lcd/lcd.c:336:5
	str	r1, [sp, #4]
	ldr	r2, [r0]
	orr	r2, r2, #16
	str	r2, [r0]
	ldr	r2, [r0]
	and	r2, r2, #16
	str	r2, [sp, #4]
	ldr	r2, [sp, #4]
.Ltmp217:
	.loc	4 337 5                         @ ../User/BSP/lcd/lcd.c:337:5
	str	r1, [sp, #4]
	ldr	r2, [r0]
	orr	r2, r2, #32
	str	r2, [r0]
	ldr	r2, [r0]
	and	r2, r2, #32
	str	r2, [sp, #4]
	ldr	r2, [sp, #4]
.Ltmp218:
	.loc	4 338 5                         @ ../User/BSP/lcd/lcd.c:338:5
	str	r1, [sp, #4]
	ldr	r1, [r0]
	orr	r1, r1, #64
	str	r1, [r0]
	ldr	r0, [r0]
.Ltmp219:
	.loc	4 345 5                         @ ../User/BSP/lcd/lcd.c:345:5
	mov	r1, r5
.Ltmp220:
	.loc	4 338 5                         @ ../User/BSP/lcd/lcd.c:338:5
	and	r0, r0, #64
	str	r0, [sp, #4]
	ldr	r0, [sp, #4]
	movw	r0, #50995
.Ltmp221:
	.loc	4 339 22                        @ ../User/BSP/lcd/lcd.c:339:22
	str	r0, [sp, #4]
	movs	r0, #2
	.loc	4 341 23                        @ ../User/BSP/lcd/lcd.c:341:23
	str	r0, [sp, #8]
	movs	r0, #1
	.loc	4 342 23                        @ ../User/BSP/lcd/lcd.c:342:23
	str	r0, [sp, #12]
	movs	r0, #3
	.loc	4 343 24                        @ ../User/BSP/lcd/lcd.c:343:24
	str	r0, [sp, #16]
	movs	r0, #12
	.loc	4 344 28                        @ ../User/BSP/lcd/lcd.c:344:28
	str	r0, [sp, #20]
	.loc	4 345 5                         @ ../User/BSP/lcd/lcd.c:345:5
	mov	r0, r4
	bl	HAL_GPIO_Init
.Ltmp222:
	.loc	4 0 5 is_stmt 0                 @ ../User/BSP/lcd/lcd.c:0:5
	movw	r0, #65408
	.loc	4 346 22 is_stmt 1              @ ../User/BSP/lcd/lcd.c:346:22
	str	r0, [sp, #4]
	.loc	4 348 5                         @ ../User/BSP/lcd/lcd.c:348:5
	add.w	r0, r4, #1024
	mov	r1, r5
	bl	HAL_GPIO_Init
.Ltmp223:
	.loc	4 0 5 is_stmt 0                 @ ../User/BSP/lcd/lcd.c:0:5
	mov.w	r6, #4096
	.loc	4 350 5 is_stmt 1               @ ../User/BSP/lcd/lcd.c:350:5
	add.w	r0, r4, #2048
	mov	r1, r5
	.loc	4 349 22                        @ ../User/BSP/lcd/lcd.c:349:22
	str	r6, [sp, #4]
	.loc	4 350 5                         @ ../User/BSP/lcd/lcd.c:350:5
	bl	HAL_GPIO_Init
.Ltmp224:
	.loc	4 352 5                         @ ../User/BSP/lcd/lcd.c:352:5
	add.w	r0, r4, #3072
	mov	r1, r5
	.loc	4 351 22                        @ ../User/BSP/lcd/lcd.c:351:22
	str	r6, [sp, #4]
	.loc	4 352 5                         @ ../User/BSP/lcd/lcd.c:352:5
	bl	HAL_GPIO_Init
.Ltmp225:
	.loc	4 353 5                         @ ../User/BSP/lcd/lcd.c:353:5
	adr	r0, .LCPI18_0
	bl	puts
.Ltmp226:
	.loc	4 354 1                         @ ../User/BSP/lcd/lcd.c:354:1
	add	sp, #24
	pop	{r4, r5, r6, pc}
.Ltmp227:
	.p2align	2
@ %bb.1:
	.loc	4 0 1 is_stmt 0                 @ ../User/BSP/lcd/lcd.c:0:1
.LCPI18_0:
.Lstr.23:
	.asciz	"HAL_SRAM_MspInit: FSMC GPIOs Configured.\r\000\000"
.Lfunc_end18:
	.size	HAL_SRAM_MspInit, .Lfunc_end18-HAL_SRAM_MspInit
	.cfi_endproc
	.cantunwind
	.fnend
                                        @ -- End function
	.section	.text.LCD_Init,"ax",%progbits
	.hidden	LCD_Init                        @ -- Begin function LCD_Init
	.globl	LCD_Init
	.p2align	2
	.type	LCD_Init,%function
	.code	16                              @ @LCD_Init
	.thumb_func
LCD_Init:
.Lfunc_begin19:
	.loc	4 357 0 is_stmt 1               @ ../User/BSP/lcd/lcd.c:357:0
	.fnstart
	.cfi_startproc
@ %bb.0:
	.save	{r4, r5, r6, r7, r8, r9, r10, r11, lr}
	push.w	{r4, r5, r6, r7, r8, r9, r10, r11, lr}
	.cfi_def_cfa_offset 36
	.cfi_offset lr, -4
	.cfi_offset r11, -8
	.cfi_offset r10, -12
	.cfi_offset r9, -16
	.cfi_offset r8, -20
	.cfi_offset r7, -24
	.cfi_offset r6, -28
	.cfi_offset r5, -32
	.cfi_offset r4, -36
	.pad	#84
	sub	sp, #84
	.cfi_def_cfa_offset 120
	movs	r7, #0
	movw	r0, #14384
.Ltmp228:
	.loc	4 362 5 prologue_end            @ ../User/BSP/lcd/lcd.c:362:5
	str	r7, [sp, #32]
	movt	r0, #16386
	ldr	r1, [r0]
	movw	r5, #284
	orr	r1, r1, #2
	str	r1, [r0]
	ldr	r0, [r0]
	movw	r4, #33468
	and	r0, r0, #2
	str	r0, [sp, #32]
	ldr	r0, [sp, #32]
	mov.w	r0, #32768
.Ltmp229:
	.loc	4 363 22                        @ ../User/BSP/lcd/lcd.c:363:22
	str	r0, [sp, #60]
	movs	r0, #1
	.loc	4 364 23                        @ ../User/BSP/lcd/lcd.c:364:23
	strd	r0, r0, [sp, #64]
	movs	r0, #3
	.loc	4 366 24                        @ ../User/BSP/lcd/lcd.c:366:24
	str	r0, [sp, #72]
	movw	r0, #1024
	movt	r0, #16386
	add	r1, sp, #60
	movt	r5, #40960
	movt	r4, #16960
	.loc	4 367 5                         @ ../User/BSP/lcd/lcd.c:367:5
	bl	HAL_GPIO_Init
.Ltmp230:
	.loc	4 369 5                         @ ../User/BSP/lcd/lcd.c:369:5
	adr.w	r0, .LCPI19_0
	.loc	4 368 13                        @ ../User/BSP/lcd/lcd.c:368:13
	str	r7, [r4]
	.loc	4 369 5                         @ ../User/BSP/lcd/lcd.c:369:5
	bl	puts
.Ltmp231:
	.loc	4 371 30                        @ ../User/BSP/lcd/lcd.c:371:30
	movw	r0, :lower16:TFTSRAM_Handler
	movt	r0, :upper16:TFTSRAM_Handler
	mov.w	r1, #-1610612736
	.loc	4 372 30                        @ ../User/BSP/lcd/lcd.c:372:30
	sub.w	r2, r5, #24
	movs	r3, #6
	.loc	4 371 30                        @ ../User/BSP/lcd/lcd.c:371:30
	stm.w	r0, {r1, r2, r3, r7}
	mov.w	r1, #4096
	.loc	4 379 43                        @ ../User/BSP/lcd/lcd.c:379:43
	strd	r7, r1, [r0, #36]
	movs	r1, #60
	.loc	4 389 37                        @ ../User/BSP/lcd/lcd.c:389:37
	str	r1, [sp, #40]
	movs	r1, #9
	mov.w	r2, #16384
	.loc	4 393 36                        @ ../User/BSP/lcd/lcd.c:393:36
	strd	r1, r7, [sp, #4]
	movs	r1, #17
	movs	r4, #16
	mov.w	r3, #1048576
	.loc	4 381 37                        @ ../User/BSP/lcd/lcd.c:381:37
	strd	r7, r2, [r0, #44]
	mov.w	r9, #15
	.loc	4 395 33                        @ ../User/BSP/lcd/lcd.c:395:33
	str	r1, [sp, #12]
	add	r1, sp, #32
	add	r2, sp, #4
	.loc	4 375 37                        @ ../User/BSP/lcd/lcd.c:375:37
	strd	r7, r4, [r0, #16]
	.loc	4 377 42                        @ ../User/BSP/lcd/lcd.c:377:42
	strd	r7, r7, [r0, #24]
	.loc	4 383 43                        @ ../User/BSP/lcd/lcd.c:383:43
	strd	r7, r7, [r0, #52]
	.loc	4 385 42                        @ ../User/BSP/lcd/lcd.c:385:42
	str	r3, [r0, #60]
	.loc	4 387 40                        @ ../User/BSP/lcd/lcd.c:387:40
	strd	r9, r7, [sp, #32]
	.loc	4 390 34                        @ ../User/BSP/lcd/lcd.c:390:34
	str	r7, [sp, #56]
	.loc	4 392 41                        @ ../User/BSP/lcd/lcd.c:392:41
	str	r7, [sp, #16]
	.loc	4 396 30                        @ ../User/BSP/lcd/lcd.c:396:30
	str	r7, [sp, #28]
.Ltmp232:
	.loc	4 398 9                         @ ../User/BSP/lcd/lcd.c:398:9
	bl	HAL_SRAM_Init
.Ltmp233:
	.loc	4 398 9 is_stmt 0               @ ../User/BSP/lcd/lcd.c:398:9
	cbz	r0, .LBB19_3
@ %bb.1:
.Ltmp234:
	.loc	4 400 9 is_stmt 1               @ ../User/BSP/lcd/lcd.c:400:9
	adr.w	r0, .LCPI19_1
	bl	puts
.Ltmp235:
	.p2align	2
.LBB19_2:                               @ =>This Inner Loop Header: Depth=1
	.loc	4 401 9                         @ ../User/BSP/lcd/lcd.c:401:9
	b	.LBB19_2
.Ltmp236:
.LBB19_3:
	.loc	4 0 9 is_stmt 0                 @ ../User/BSP/lcd/lcd.c:0:9
	movs	r6, #128
	.loc	4 403 5 is_stmt 1               @ ../User/BSP/lcd/lcd.c:403:5
	movs	r0, #50
	movt	r6, #27648
	bl	delay_ms
.Ltmp237:
	.loc	4 0 5 is_stmt 0                 @ ../User/BSP/lcd/lcd.c:0:5
	movs	r0, #211
	strh.w	r0, [sp, #82]
.Ltmp238:
	.loc	4 21 14 is_stmt 1               @ ../User/BSP/lcd/lcd.c:21:14
	ldrh.w	r0, [sp, #82]
.Ltmp239:
	.loc	4 411 15                        @ ../User/BSP/lcd/lcd.c:411:15
	movw	r11, :lower16:lcddev
.Ltmp240:
	.loc	4 21 12                         @ ../User/BSP/lcd/lcd.c:21:12
	strh.w	r0, [sp, #82]
	.loc	4 22 20                         @ ../User/BSP/lcd/lcd.c:22:20
	ldrh.w	r0, [sp, #82]
.Ltmp241:
	.loc	4 411 15                        @ ../User/BSP/lcd/lcd.c:411:15
	movt	r11, :upper16:lcddev
.Ltmp242:
	.loc	4 22 18                         @ ../User/BSP/lcd/lcd.c:22:18
	strh	r0, [r6, #-2]
.Ltmp243:
	.loc	4 38 16                         @ ../User/BSP/lcd/lcd.c:38:16
	ldrh	r0, [r6]
.Ltmp244:
	.loc	4 417 5                         @ ../User/BSP/lcd/lcd.c:417:5
	movw	r1, #38022
.Ltmp245:
	.loc	4 38 9                          @ ../User/BSP/lcd/lcd.c:38:9
	strh.w	r0, [sp, #82]
	.loc	4 39 12                         @ ../User/BSP/lcd/lcd.c:39:12
	ldrh.w	r0, [sp, #82]
.Ltmp246:
	.loc	4 38 16                         @ ../User/BSP/lcd/lcd.c:38:16
	ldrh	r0, [r6]
	.loc	4 38 9 is_stmt 0                @ ../User/BSP/lcd/lcd.c:38:9
	strh.w	r0, [sp, #82]
	.loc	4 39 12 is_stmt 1               @ ../User/BSP/lcd/lcd.c:39:12
	ldrh.w	r0, [sp, #82]
.Ltmp247:
	.loc	4 38 16                         @ ../User/BSP/lcd/lcd.c:38:16
	ldrh	r0, [r6]
	.loc	4 38 9 is_stmt 0                @ ../User/BSP/lcd/lcd.c:38:9
	strh.w	r0, [sp, #82]
	.loc	4 39 12 is_stmt 1               @ ../User/BSP/lcd/lcd.c:39:12
	ldrh.w	r0, [sp, #82]
.Ltmp248:
	@DEBUG_VALUE: LCD_Init:temp_id_high <- undef
	.loc	4 38 16                         @ ../User/BSP/lcd/lcd.c:38:16
	ldrh	r0, [r6]
	.loc	4 38 9 is_stmt 0                @ ../User/BSP/lcd/lcd.c:38:9
	strh.w	r0, [sp, #82]
	.loc	4 39 12 is_stmt 1               @ ../User/BSP/lcd/lcd.c:39:12
	ldrh.w	r0, [sp, #82]
.Ltmp249:
	@DEBUG_VALUE: LCD_Init:temp_id_low <- undef
	.loc	4 0 12 is_stmt 0                @ ../User/BSP/lcd/lcd.c:0:12
	movw	r0, #38022
.Ltmp250:
	.loc	4 411 15 is_stmt 1              @ ../User/BSP/lcd/lcd.c:411:15
	strh.w	r0, [r11, #4]
	.loc	4 413 26                        @ ../User/BSP/lcd/lcd.c:413:26
	ldr	r0, [r5]
	bic	r0, r0, #15
	str	r0, [r5]
	.loc	4 414 26                        @ ../User/BSP/lcd/lcd.c:414:26
	ldr	r0, [r5]
	bic	r0, r0, #3840
	str	r0, [r5]
	.loc	4 415 26                        @ ../User/BSP/lcd/lcd.c:415:26
	ldr	r0, [r5]
	orr	r0, r0, #3
	str	r0, [r5]
	.loc	4 416 26                        @ ../User/BSP/lcd/lcd.c:416:26
	ldr	r0, [r5]
	orr	r0, r0, #512
	str	r0, [r5]
	.loc	4 417 5                         @ ../User/BSP/lcd/lcd.c:417:5
	adr.w	r0, .LCPI19_2
	bl	__2printf
.Ltmp251:
	.loc	4 419 5                         @ ../User/BSP/lcd/lcd.c:419:5
	movw	r0, :lower16:.Lstr.25
	movt	r0, :upper16:.Lstr.25
	bl	puts
.Ltmp252:
	.loc	4 0 5 is_stmt 0                 @ ../User/BSP/lcd/lcd.c:0:5
	movs	r0, #242
	strh.w	r0, [sp, #82]
.Ltmp253:
	.loc	4 21 14 is_stmt 1               @ ../User/BSP/lcd/lcd.c:21:14
	ldrh.w	r0, [sp, #82]
	mov.w	r10, #2
	.loc	4 21 12 is_stmt 0               @ ../User/BSP/lcd/lcd.c:21:12
	strh.w	r0, [sp, #82]
	.loc	4 22 20 is_stmt 1               @ ../User/BSP/lcd/lcd.c:22:20
	ldrh.w	r0, [sp, #82]
	movs	r5, #4
	.loc	4 22 18 is_stmt 0               @ ../User/BSP/lcd/lcd.c:22:18
	strh	r0, [r6, #-2]
	movs	r0, #24
	strh.w	r0, [sp, #82]
.Ltmp254:
	.loc	4 29 12 is_stmt 1               @ ../User/BSP/lcd/lcd.c:29:12
	ldrh.w	r0, [sp, #82]
	mov.w	r8, #8
	.loc	4 29 10 is_stmt 0               @ ../User/BSP/lcd/lcd.c:29:10
	strh.w	r0, [sp, #82]
	.loc	4 30 20 is_stmt 1               @ ../User/BSP/lcd/lcd.c:30:20
	ldrh.w	r0, [sp, #82]
	.loc	4 30 18 is_stmt 0               @ ../User/BSP/lcd/lcd.c:30:18
	strh	r0, [r6]
	movs	r0, #163
	strh.w	r0, [sp, #82]
.Ltmp255:
	.loc	4 29 12 is_stmt 1               @ ../User/BSP/lcd/lcd.c:29:12
	ldrh.w	r0, [sp, #82]
	.loc	4 29 10 is_stmt 0               @ ../User/BSP/lcd/lcd.c:29:10
	strh.w	r0, [sp, #82]
	.loc	4 30 20 is_stmt 1               @ ../User/BSP/lcd/lcd.c:30:20
	ldrh.w	r0, [sp, #82]
	.loc	4 30 18 is_stmt 0               @ ../User/BSP/lcd/lcd.c:30:18
	strh	r0, [r6]
	movs	r0, #18
	strh.w	r0, [sp, #82]
.Ltmp256:
	.loc	4 29 12 is_stmt 1               @ ../User/BSP/lcd/lcd.c:29:12
	ldrh.w	r1, [sp, #82]
	.loc	4 29 10 is_stmt 0               @ ../User/BSP/lcd/lcd.c:29:10
	strh.w	r1, [sp, #82]
	.loc	4 30 20 is_stmt 1               @ ../User/BSP/lcd/lcd.c:30:20
	ldrh.w	r1, [sp, #82]
	.loc	4 30 18 is_stmt 0               @ ../User/BSP/lcd/lcd.c:30:18
	strh	r1, [r6]
	strh.w	r10, [sp, #82]
.Ltmp257:
	.loc	4 29 12 is_stmt 1               @ ../User/BSP/lcd/lcd.c:29:12
	ldrh.w	r1, [sp, #82]
	.loc	4 29 10 is_stmt 0               @ ../User/BSP/lcd/lcd.c:29:10
	strh.w	r1, [sp, #82]
	.loc	4 30 20 is_stmt 1               @ ../User/BSP/lcd/lcd.c:30:20
	ldrh.w	r1, [sp, #82]
	.loc	4 30 18 is_stmt 0               @ ../User/BSP/lcd/lcd.c:30:18
	strh	r1, [r6]
	movs	r1, #178
	strh.w	r1, [sp, #82]
.Ltmp258:
	.loc	4 29 12 is_stmt 1               @ ../User/BSP/lcd/lcd.c:29:12
	ldrh.w	r1, [sp, #82]
	.loc	4 29 10 is_stmt 0               @ ../User/BSP/lcd/lcd.c:29:10
	strh.w	r1, [sp, #82]
	.loc	4 30 20 is_stmt 1               @ ../User/BSP/lcd/lcd.c:30:20
	ldrh.w	r1, [sp, #82]
	.loc	4 30 18 is_stmt 0               @ ../User/BSP/lcd/lcd.c:30:18
	strh	r1, [r6]
	strh.w	r0, [sp, #82]
.Ltmp259:
	.loc	4 29 12 is_stmt 1               @ ../User/BSP/lcd/lcd.c:29:12
	ldrh.w	r0, [sp, #82]
	.loc	4 29 10 is_stmt 0               @ ../User/BSP/lcd/lcd.c:29:10
	strh.w	r0, [sp, #82]
	.loc	4 30 20 is_stmt 1               @ ../User/BSP/lcd/lcd.c:30:20
	ldrh.w	r0, [sp, #82]
	.loc	4 30 18 is_stmt 0               @ ../User/BSP/lcd/lcd.c:30:18
	strh	r0, [r6]
	movs	r0, #255
	strh.w	r0, [sp, #82]
.Ltmp260:
	.loc	4 29 12 is_stmt 1               @ ../User/BSP/lcd/lcd.c:29:12
	ldrh.w	r0, [sp, #82]
	.loc	4 29 10 is_stmt 0               @ ../User/BSP/lcd/lcd.c:29:10
	strh.w	r0, [sp, #82]
	.loc	4 30 20 is_stmt 1               @ ../User/BSP/lcd/lcd.c:30:20
	ldrh.w	r0, [sp, #82]
	.loc	4 30 18 is_stmt 0               @ ../User/BSP/lcd/lcd.c:30:18
	strh	r0, [r6]
	strh.w	r4, [sp, #82]
.Ltmp261:
	.loc	4 29 12 is_stmt 1               @ ../User/BSP/lcd/lcd.c:29:12
	ldrh.w	r0, [sp, #82]
	.loc	4 29 10 is_stmt 0               @ ../User/BSP/lcd/lcd.c:29:10
	strh.w	r0, [sp, #82]
	.loc	4 30 20 is_stmt 1               @ ../User/BSP/lcd/lcd.c:30:20
	ldrh.w	r0, [sp, #82]
	.loc	4 30 18 is_stmt 0               @ ../User/BSP/lcd/lcd.c:30:18
	strh	r0, [r6]
	strh.w	r7, [sp, #82]
.Ltmp262:
	.loc	4 29 12 is_stmt 1               @ ../User/BSP/lcd/lcd.c:29:12
	ldrh.w	r0, [sp, #82]
	.loc	4 29 10 is_stmt 0               @ ../User/BSP/lcd/lcd.c:29:10
	strh.w	r0, [sp, #82]
	.loc	4 30 20 is_stmt 1               @ ../User/BSP/lcd/lcd.c:30:20
	ldrh.w	r0, [sp, #82]
	.loc	4 30 18 is_stmt 0               @ ../User/BSP/lcd/lcd.c:30:18
	strh	r0, [r6]
	movs	r0, #248
	strh.w	r0, [sp, #82]
.Ltmp263:
	.loc	4 21 14 is_stmt 1               @ ../User/BSP/lcd/lcd.c:21:14
	ldrh.w	r0, [sp, #82]
	.loc	4 21 12 is_stmt 0               @ ../User/BSP/lcd/lcd.c:21:12
	strh.w	r0, [sp, #82]
	.loc	4 22 20 is_stmt 1               @ ../User/BSP/lcd/lcd.c:22:20
	ldrh.w	r0, [sp, #82]
	.loc	4 22 18 is_stmt 0               @ ../User/BSP/lcd/lcd.c:22:18
	strh	r0, [r6, #-2]
	movs	r0, #33
	strh.w	r0, [sp, #82]
.Ltmp264:
	.loc	4 29 12 is_stmt 1               @ ../User/BSP/lcd/lcd.c:29:12
	ldrh.w	r0, [sp, #82]
	.loc	4 29 10 is_stmt 0               @ ../User/BSP/lcd/lcd.c:29:10
	strh.w	r0, [sp, #82]
	.loc	4 30 20 is_stmt 1               @ ../User/BSP/lcd/lcd.c:30:20
	ldrh.w	r0, [sp, #82]
	.loc	4 30 18 is_stmt 0               @ ../User/BSP/lcd/lcd.c:30:18
	strh	r0, [r6]
	strh.w	r5, [sp, #82]
.Ltmp265:
	.loc	4 29 12 is_stmt 1               @ ../User/BSP/lcd/lcd.c:29:12
	ldrh.w	r0, [sp, #82]
	.loc	4 29 10 is_stmt 0               @ ../User/BSP/lcd/lcd.c:29:10
	strh.w	r0, [sp, #82]
	.loc	4 30 20 is_stmt 1               @ ../User/BSP/lcd/lcd.c:30:20
	ldrh.w	r0, [sp, #82]
	.loc	4 30 18 is_stmt 0               @ ../User/BSP/lcd/lcd.c:30:18
	strh	r0, [r6]
	movs	r0, #249
	strh.w	r0, [sp, #82]
.Ltmp266:
	.loc	4 21 14 is_stmt 1               @ ../User/BSP/lcd/lcd.c:21:14
	ldrh.w	r0, [sp, #82]
	.loc	4 21 12 is_stmt 0               @ ../User/BSP/lcd/lcd.c:21:12
	strh.w	r0, [sp, #82]
	.loc	4 22 20 is_stmt 1               @ ../User/BSP/lcd/lcd.c:22:20
	ldrh.w	r0, [sp, #82]
	.loc	4 22 18 is_stmt 0               @ ../User/BSP/lcd/lcd.c:22:18
	strh	r0, [r6, #-2]
	strh.w	r7, [sp, #82]
.Ltmp267:
	.loc	4 29 12 is_stmt 1               @ ../User/BSP/lcd/lcd.c:29:12
	ldrh.w	r0, [sp, #82]
	.loc	4 29 10 is_stmt 0               @ ../User/BSP/lcd/lcd.c:29:10
	strh.w	r0, [sp, #82]
	.loc	4 30 20 is_stmt 1               @ ../User/BSP/lcd/lcd.c:30:20
	ldrh.w	r0, [sp, #82]
	.loc	4 30 18 is_stmt 0               @ ../User/BSP/lcd/lcd.c:30:18
	strh	r0, [r6]
	strh.w	r8, [sp, #82]
.Ltmp268:
	.loc	4 29 12 is_stmt 1               @ ../User/BSP/lcd/lcd.c:29:12
	ldrh.w	r0, [sp, #82]
	.loc	4 29 10 is_stmt 0               @ ../User/BSP/lcd/lcd.c:29:10
	strh.w	r0, [sp, #82]
	.loc	4 30 20 is_stmt 1               @ ../User/BSP/lcd/lcd.c:30:20
	ldrh.w	r0, [sp, #82]
	.loc	4 30 18 is_stmt 0               @ ../User/BSP/lcd/lcd.c:30:18
	strh	r0, [r6]
	movs	r0, #54
	strh.w	r0, [sp, #82]
.Ltmp269:
	.loc	4 21 14 is_stmt 1               @ ../User/BSP/lcd/lcd.c:21:14
	ldrh.w	r0, [sp, #82]
	.loc	4 21 12 is_stmt 0               @ ../User/BSP/lcd/lcd.c:21:12
	strh.w	r0, [sp, #82]
	.loc	4 22 20 is_stmt 1               @ ../User/BSP/lcd/lcd.c:22:20
	ldrh.w	r0, [sp, #82]
	.loc	4 22 18 is_stmt 0               @ ../User/BSP/lcd/lcd.c:22:18
	strh	r0, [r6, #-2]
	strh.w	r8, [sp, #82]
.Ltmp270:
	.loc	4 29 12 is_stmt 1               @ ../User/BSP/lcd/lcd.c:29:12
	ldrh.w	r0, [sp, #82]
	.loc	4 29 10 is_stmt 0               @ ../User/BSP/lcd/lcd.c:29:10
	strh.w	r0, [sp, #82]
	.loc	4 30 20 is_stmt 1               @ ../User/BSP/lcd/lcd.c:30:20
	ldrh.w	r0, [sp, #82]
	.loc	4 30 18 is_stmt 0               @ ../User/BSP/lcd/lcd.c:30:18
	strh	r0, [r6]
.Ltmp271:
	.loc	4 441 5 is_stmt 1               @ ../User/BSP/lcd/lcd.c:441:5
	movw	r0, :lower16:.Lstr.26
	movt	r0, :upper16:.Lstr.26
	bl	puts
.Ltmp272:
	.loc	4 0 5 is_stmt 0                 @ ../User/BSP/lcd/lcd.c:0:5
	movs	r0, #58
	strh.w	r0, [sp, #82]
.Ltmp273:
	.loc	4 21 14 is_stmt 1               @ ../User/BSP/lcd/lcd.c:21:14
	ldrh.w	r0, [sp, #82]
	movs	r4, #5
	.loc	4 21 12 is_stmt 0               @ ../User/BSP/lcd/lcd.c:21:12
	strh.w	r0, [sp, #82]
	.loc	4 22 20 is_stmt 1               @ ../User/BSP/lcd/lcd.c:22:20
	ldrh.w	r0, [sp, #82]
	.loc	4 22 18 is_stmt 0               @ ../User/BSP/lcd/lcd.c:22:18
	strh	r0, [r6, #-2]
	movs	r0, #5
	strh.w	r0, [sp, #82]
.Ltmp274:
	.loc	4 29 12 is_stmt 1               @ ../User/BSP/lcd/lcd.c:29:12
	ldrh.w	r0, [sp, #82]
	.loc	4 29 10 is_stmt 0               @ ../User/BSP/lcd/lcd.c:29:10
	strh.w	r0, [sp, #82]
	.loc	4 30 20 is_stmt 1               @ ../User/BSP/lcd/lcd.c:30:20
	ldrh.w	r0, [sp, #82]
	.loc	4 30 18 is_stmt 0               @ ../User/BSP/lcd/lcd.c:30:18
	strh	r0, [r6]
.Ltmp275:
	.loc	4 445 5 is_stmt 1               @ ../User/BSP/lcd/lcd.c:445:5
	movw	r0, :lower16:.Lstr.27
	movt	r0, :upper16:.Lstr.27
	bl	puts
.Ltmp276:
	.loc	4 0 5 is_stmt 0                 @ ../User/BSP/lcd/lcd.c:0:5
	movs	r0, #180
	strh.w	r0, [sp, #82]
.Ltmp277:
	.loc	4 21 14 is_stmt 1               @ ../User/BSP/lcd/lcd.c:21:14
	ldrh.w	r0, [sp, #82]
	.loc	4 21 12 is_stmt 0               @ ../User/BSP/lcd/lcd.c:21:12
	strh.w	r0, [sp, #82]
	.loc	4 22 20 is_stmt 1               @ ../User/BSP/lcd/lcd.c:22:20
	ldrh.w	r0, [sp, #82]
	.loc	4 22 18 is_stmt 0               @ ../User/BSP/lcd/lcd.c:22:18
	strh	r0, [r6, #-2]
	movs	r0, #1
	strh.w	r0, [sp, #82]
.Ltmp278:
	.loc	4 29 12 is_stmt 1               @ ../User/BSP/lcd/lcd.c:29:12
	ldrh.w	r0, [sp, #82]
	.loc	4 29 10 is_stmt 0               @ ../User/BSP/lcd/lcd.c:29:10
	strh.w	r0, [sp, #82]
	.loc	4 30 20 is_stmt 1               @ ../User/BSP/lcd/lcd.c:30:20
	ldrh.w	r0, [sp, #82]
	.loc	4 30 18 is_stmt 0               @ ../User/BSP/lcd/lcd.c:30:18
	strh	r0, [r6]
	movs	r0, #182
	strh.w	r0, [sp, #82]
.Ltmp279:
	.loc	4 21 14 is_stmt 1               @ ../User/BSP/lcd/lcd.c:21:14
	ldrh.w	r0, [sp, #82]
	.loc	4 21 12 is_stmt 0               @ ../User/BSP/lcd/lcd.c:21:12
	strh.w	r0, [sp, #82]
	.loc	4 22 20 is_stmt 1               @ ../User/BSP/lcd/lcd.c:22:20
	ldrh.w	r0, [sp, #82]
	.loc	4 22 18 is_stmt 0               @ ../User/BSP/lcd/lcd.c:22:18
	strh	r0, [r6, #-2]
	strh.w	r10, [sp, #82]
.Ltmp280:
	.loc	4 29 12 is_stmt 1               @ ../User/BSP/lcd/lcd.c:29:12
	ldrh.w	r0, [sp, #82]
	.loc	4 29 10 is_stmt 0               @ ../User/BSP/lcd/lcd.c:29:10
	strh.w	r0, [sp, #82]
	.loc	4 30 20 is_stmt 1               @ ../User/BSP/lcd/lcd.c:30:20
	ldrh.w	r0, [sp, #82]
	.loc	4 30 18 is_stmt 0               @ ../User/BSP/lcd/lcd.c:30:18
	strh	r0, [r6]
	movs	r0, #34
	strh.w	r0, [sp, #82]
.Ltmp281:
	.loc	4 29 12 is_stmt 1               @ ../User/BSP/lcd/lcd.c:29:12
	ldrh.w	r0, [sp, #82]
	.loc	4 29 10 is_stmt 0               @ ../User/BSP/lcd/lcd.c:29:10
	strh.w	r0, [sp, #82]
	.loc	4 30 20 is_stmt 1               @ ../User/BSP/lcd/lcd.c:30:20
	ldrh.w	r0, [sp, #82]
	.loc	4 30 18 is_stmt 0               @ ../User/BSP/lcd/lcd.c:30:18
	strh	r0, [r6]
	movs	r0, #193
	strh.w	r0, [sp, #82]
.Ltmp282:
	.loc	4 21 14 is_stmt 1               @ ../User/BSP/lcd/lcd.c:21:14
	ldrh.w	r0, [sp, #82]
	.loc	4 21 12 is_stmt 0               @ ../User/BSP/lcd/lcd.c:21:12
	strh.w	r0, [sp, #82]
	.loc	4 22 20 is_stmt 1               @ ../User/BSP/lcd/lcd.c:22:20
	ldrh.w	r0, [sp, #82]
	.loc	4 22 18 is_stmt 0               @ ../User/BSP/lcd/lcd.c:22:18
	strh	r0, [r6, #-2]
	movs	r0, #65
	strh.w	r0, [sp, #82]
.Ltmp283:
	.loc	4 29 12 is_stmt 1               @ ../User/BSP/lcd/lcd.c:29:12
	ldrh.w	r0, [sp, #82]
	.loc	4 29 10 is_stmt 0               @ ../User/BSP/lcd/lcd.c:29:10
	strh.w	r0, [sp, #82]
	.loc	4 30 20 is_stmt 1               @ ../User/BSP/lcd/lcd.c:30:20
	ldrh.w	r0, [sp, #82]
	.loc	4 30 18 is_stmt 0               @ ../User/BSP/lcd/lcd.c:30:18
	strh	r0, [r6]
	movs	r0, #197
	strh.w	r0, [sp, #82]
.Ltmp284:
	.loc	4 21 14 is_stmt 1               @ ../User/BSP/lcd/lcd.c:21:14
	ldrh.w	r0, [sp, #82]
	.loc	4 21 12 is_stmt 0               @ ../User/BSP/lcd/lcd.c:21:12
	strh.w	r0, [sp, #82]
	.loc	4 22 20 is_stmt 1               @ ../User/BSP/lcd/lcd.c:22:20
	ldrh.w	r0, [sp, #82]
	.loc	4 22 18 is_stmt 0               @ ../User/BSP/lcd/lcd.c:22:18
	strh	r0, [r6, #-2]
	strh.w	r7, [sp, #82]
.Ltmp285:
	.loc	4 29 12 is_stmt 1               @ ../User/BSP/lcd/lcd.c:29:12
	ldrh.w	r0, [sp, #82]
	.loc	4 29 10 is_stmt 0               @ ../User/BSP/lcd/lcd.c:29:10
	strh.w	r0, [sp, #82]
	.loc	4 30 20 is_stmt 1               @ ../User/BSP/lcd/lcd.c:30:20
	ldrh.w	r0, [sp, #82]
	.loc	4 30 18 is_stmt 0               @ ../User/BSP/lcd/lcd.c:30:18
	strh	r0, [r6]
	movs	r0, #7
	strh.w	r0, [sp, #82]
.Ltmp286:
	.loc	4 29 12 is_stmt 1               @ ../User/BSP/lcd/lcd.c:29:12
	ldrh.w	r0, [sp, #82]
	.loc	4 29 10 is_stmt 0               @ ../User/BSP/lcd/lcd.c:29:10
	strh.w	r0, [sp, #82]
	.loc	4 30 20 is_stmt 1               @ ../User/BSP/lcd/lcd.c:30:20
	ldrh.w	r0, [sp, #82]
	.loc	4 30 18 is_stmt 0               @ ../User/BSP/lcd/lcd.c:30:18
	strh	r0, [r6]
	movs	r0, #224
	strh.w	r0, [sp, #82]
.Ltmp287:
	.loc	4 21 14 is_stmt 1               @ ../User/BSP/lcd/lcd.c:21:14
	ldrh.w	r0, [sp, #82]
	.loc	4 21 12 is_stmt 0               @ ../User/BSP/lcd/lcd.c:21:12
	strh.w	r0, [sp, #82]
	.loc	4 22 20 is_stmt 1               @ ../User/BSP/lcd/lcd.c:22:20
	ldrh.w	r0, [sp, #82]
	.loc	4 22 18 is_stmt 0               @ ../User/BSP/lcd/lcd.c:22:18
	strh	r0, [r6, #-2]
	strh.w	r9, [sp, #82]
.Ltmp288:
	.loc	4 29 12 is_stmt 1               @ ../User/BSP/lcd/lcd.c:29:12
	ldrh.w	r0, [sp, #82]
	.loc	4 29 10 is_stmt 0               @ ../User/BSP/lcd/lcd.c:29:10
	strh.w	r0, [sp, #82]
	.loc	4 30 20 is_stmt 1               @ ../User/BSP/lcd/lcd.c:30:20
	ldrh.w	r0, [sp, #82]
	.loc	4 30 18 is_stmt 0               @ ../User/BSP/lcd/lcd.c:30:18
	strh	r0, [r6]
	movs	r0, #31
	strh.w	r0, [sp, #82]
.Ltmp289:
	.loc	4 29 12 is_stmt 1               @ ../User/BSP/lcd/lcd.c:29:12
	ldrh.w	r0, [sp, #82]
	.loc	4 29 10 is_stmt 0               @ ../User/BSP/lcd/lcd.c:29:10
	strh.w	r0, [sp, #82]
	.loc	4 30 20 is_stmt 1               @ ../User/BSP/lcd/lcd.c:30:20
	ldrh.w	r0, [sp, #82]
	.loc	4 30 18 is_stmt 0               @ ../User/BSP/lcd/lcd.c:30:18
	strh	r0, [r6]
	movs	r0, #28
	strh.w	r0, [sp, #82]
.Ltmp290:
	.loc	4 29 12 is_stmt 1               @ ../User/BSP/lcd/lcd.c:29:12
	ldrh.w	r0, [sp, #82]
	.loc	4 29 10 is_stmt 0               @ ../User/BSP/lcd/lcd.c:29:10
	strh.w	r0, [sp, #82]
	.loc	4 30 20 is_stmt 1               @ ../User/BSP/lcd/lcd.c:30:20
	ldrh.w	r0, [sp, #82]
	.loc	4 30 18 is_stmt 0               @ ../User/BSP/lcd/lcd.c:30:18
	strh	r0, [r6]
	movs	r0, #12
	strh.w	r0, [sp, #82]
.Ltmp291:
	.loc	4 29 12 is_stmt 1               @ ../User/BSP/lcd/lcd.c:29:12
	ldrh.w	r0, [sp, #82]
	.loc	4 29 10 is_stmt 0               @ ../User/BSP/lcd/lcd.c:29:10
	strh.w	r0, [sp, #82]
	.loc	4 30 20 is_stmt 1               @ ../User/BSP/lcd/lcd.c:30:20
	ldrh.w	r0, [sp, #82]
	.loc	4 30 18 is_stmt 0               @ ../User/BSP/lcd/lcd.c:30:18
	strh	r0, [r6]
	strh.w	r9, [sp, #82]
.Ltmp292:
	.loc	4 29 12 is_stmt 1               @ ../User/BSP/lcd/lcd.c:29:12
	ldrh.w	r0, [sp, #82]
	.loc	4 29 10 is_stmt 0               @ ../User/BSP/lcd/lcd.c:29:10
	strh.w	r0, [sp, #82]
	.loc	4 30 20 is_stmt 1               @ ../User/BSP/lcd/lcd.c:30:20
	ldrh.w	r0, [sp, #82]
	.loc	4 30 18 is_stmt 0               @ ../User/BSP/lcd/lcd.c:30:18
	strh	r0, [r6]
	strh.w	r8, [sp, #82]
.Ltmp293:
	.loc	4 29 12 is_stmt 1               @ ../User/BSP/lcd/lcd.c:29:12
	ldrh.w	r0, [sp, #82]
	.loc	4 29 10 is_stmt 0               @ ../User/BSP/lcd/lcd.c:29:10
	strh.w	r0, [sp, #82]
	.loc	4 30 20 is_stmt 1               @ ../User/BSP/lcd/lcd.c:30:20
	ldrh.w	r0, [sp, #82]
	.loc	4 30 18 is_stmt 0               @ ../User/BSP/lcd/lcd.c:30:18
	strh	r0, [r6]
	movs	r0, #72
	strh.w	r0, [sp, #82]
.Ltmp294:
	.loc	4 29 12 is_stmt 1               @ ../User/BSP/lcd/lcd.c:29:12
	ldrh.w	r0, [sp, #82]
	.loc	4 29 10 is_stmt 0               @ ../User/BSP/lcd/lcd.c:29:10
	strh.w	r0, [sp, #82]
	.loc	4 30 20 is_stmt 1               @ ../User/BSP/lcd/lcd.c:30:20
	ldrh.w	r0, [sp, #82]
	.loc	4 30 18 is_stmt 0               @ ../User/BSP/lcd/lcd.c:30:18
	strh	r0, [r6]
	movs	r0, #152
	strh.w	r0, [sp, #82]
.Ltmp295:
	.loc	4 29 12 is_stmt 1               @ ../User/BSP/lcd/lcd.c:29:12
	ldrh.w	r0, [sp, #82]
	.loc	4 29 10 is_stmt 0               @ ../User/BSP/lcd/lcd.c:29:10
	strh.w	r0, [sp, #82]
	.loc	4 30 20 is_stmt 1               @ ../User/BSP/lcd/lcd.c:30:20
	ldrh.w	r0, [sp, #82]
	.loc	4 30 18 is_stmt 0               @ ../User/BSP/lcd/lcd.c:30:18
	strh	r0, [r6]
	movs	r0, #55
	strh.w	r0, [sp, #82]
.Ltmp296:
	.loc	4 29 12 is_stmt 1               @ ../User/BSP/lcd/lcd.c:29:12
	ldrh.w	r1, [sp, #82]
	.loc	4 29 10 is_stmt 0               @ ../User/BSP/lcd/lcd.c:29:10
	strh.w	r1, [sp, #82]
	.loc	4 30 20 is_stmt 1               @ ../User/BSP/lcd/lcd.c:30:20
	ldrh.w	r1, [sp, #82]
	.loc	4 30 18 is_stmt 0               @ ../User/BSP/lcd/lcd.c:30:18
	strh	r1, [r6]
	movs	r1, #10
	strh.w	r1, [sp, #82]
.Ltmp297:
	.loc	4 29 12 is_stmt 1               @ ../User/BSP/lcd/lcd.c:29:12
	ldrh.w	r1, [sp, #82]
	.loc	4 29 10 is_stmt 0               @ ../User/BSP/lcd/lcd.c:29:10
	strh.w	r1, [sp, #82]
	.loc	4 30 20 is_stmt 1               @ ../User/BSP/lcd/lcd.c:30:20
	ldrh.w	r1, [sp, #82]
	.loc	4 30 18 is_stmt 0               @ ../User/BSP/lcd/lcd.c:30:18
	strh	r1, [r6]
	movs	r1, #19
	strh.w	r1, [sp, #82]
.Ltmp298:
	.loc	4 29 12 is_stmt 1               @ ../User/BSP/lcd/lcd.c:29:12
	ldrh.w	r1, [sp, #82]
	.loc	4 29 10 is_stmt 0               @ ../User/BSP/lcd/lcd.c:29:10
	strh.w	r1, [sp, #82]
	.loc	4 30 20 is_stmt 1               @ ../User/BSP/lcd/lcd.c:30:20
	ldrh.w	r1, [sp, #82]
	.loc	4 30 18 is_stmt 0               @ ../User/BSP/lcd/lcd.c:30:18
	strh	r1, [r6]
	strh.w	r5, [sp, #82]
.Ltmp299:
	.loc	4 29 12 is_stmt 1               @ ../User/BSP/lcd/lcd.c:29:12
	ldrh.w	r1, [sp, #82]
	movs	r5, #17
	.loc	4 29 10 is_stmt 0               @ ../User/BSP/lcd/lcd.c:29:10
	strh.w	r1, [sp, #82]
	.loc	4 30 20 is_stmt 1               @ ../User/BSP/lcd/lcd.c:30:20
	ldrh.w	r1, [sp, #82]
	.loc	4 30 18 is_stmt 0               @ ../User/BSP/lcd/lcd.c:30:18
	strh	r1, [r6]
	strh.w	r5, [sp, #82]
.Ltmp300:
	.loc	4 29 12 is_stmt 1               @ ../User/BSP/lcd/lcd.c:29:12
	ldrh.w	r1, [sp, #82]
	.loc	4 29 10 is_stmt 0               @ ../User/BSP/lcd/lcd.c:29:10
	strh.w	r1, [sp, #82]
	.loc	4 30 20 is_stmt 1               @ ../User/BSP/lcd/lcd.c:30:20
	ldrh.w	r1, [sp, #82]
	.loc	4 30 18 is_stmt 0               @ ../User/BSP/lcd/lcd.c:30:18
	strh	r1, [r6]
	movs	r1, #13
	strh.w	r1, [sp, #82]
.Ltmp301:
	.loc	4 29 12 is_stmt 1               @ ../User/BSP/lcd/lcd.c:29:12
	ldrh.w	r2, [sp, #82]
	.loc	4 29 10 is_stmt 0               @ ../User/BSP/lcd/lcd.c:29:10
	strh.w	r2, [sp, #82]
	.loc	4 30 20 is_stmt 1               @ ../User/BSP/lcd/lcd.c:30:20
	ldrh.w	r2, [sp, #82]
	.loc	4 30 18 is_stmt 0               @ ../User/BSP/lcd/lcd.c:30:18
	strh	r2, [r6]
	strh.w	r7, [sp, #82]
.Ltmp302:
	.loc	4 29 12 is_stmt 1               @ ../User/BSP/lcd/lcd.c:29:12
	ldrh.w	r2, [sp, #82]
	.loc	4 29 10 is_stmt 0               @ ../User/BSP/lcd/lcd.c:29:10
	strh.w	r2, [sp, #82]
	.loc	4 30 20 is_stmt 1               @ ../User/BSP/lcd/lcd.c:30:20
	ldrh.w	r2, [sp, #82]
	.loc	4 30 18 is_stmt 0               @ ../User/BSP/lcd/lcd.c:30:18
	strh	r2, [r6]
	movs	r2, #225
	strh.w	r2, [sp, #82]
.Ltmp303:
	.loc	4 21 14 is_stmt 1               @ ../User/BSP/lcd/lcd.c:21:14
	ldrh.w	r2, [sp, #82]
	.loc	4 21 12 is_stmt 0               @ ../User/BSP/lcd/lcd.c:21:12
	strh.w	r2, [sp, #82]
	.loc	4 22 20 is_stmt 1               @ ../User/BSP/lcd/lcd.c:22:20
	ldrh.w	r2, [sp, #82]
	.loc	4 22 18 is_stmt 0               @ ../User/BSP/lcd/lcd.c:22:18
	strh	r2, [r6, #-2]
	strh.w	r9, [sp, #82]
.Ltmp304:
	.loc	4 29 12 is_stmt 1               @ ../User/BSP/lcd/lcd.c:29:12
	ldrh.w	r2, [sp, #82]
	.loc	4 29 10 is_stmt 0               @ ../User/BSP/lcd/lcd.c:29:10
	strh.w	r2, [sp, #82]
	.loc	4 30 20 is_stmt 1               @ ../User/BSP/lcd/lcd.c:30:20
	ldrh.w	r2, [sp, #82]
	.loc	4 30 18 is_stmt 0               @ ../User/BSP/lcd/lcd.c:30:18
	strh	r2, [r6]
	movs	r2, #50
	strh.w	r2, [sp, #82]
.Ltmp305:
	.loc	4 29 12 is_stmt 1               @ ../User/BSP/lcd/lcd.c:29:12
	ldrh.w	r2, [sp, #82]
	.loc	4 29 10 is_stmt 0               @ ../User/BSP/lcd/lcd.c:29:10
	strh.w	r2, [sp, #82]
	.loc	4 30 20 is_stmt 1               @ ../User/BSP/lcd/lcd.c:30:20
	ldrh.w	r2, [sp, #82]
	.loc	4 30 18 is_stmt 0               @ ../User/BSP/lcd/lcd.c:30:18
	strh	r2, [r6]
	movs	r2, #46
	strh.w	r2, [sp, #82]
.Ltmp306:
	.loc	4 29 12 is_stmt 1               @ ../User/BSP/lcd/lcd.c:29:12
	ldrh.w	r2, [sp, #82]
	.loc	4 29 10 is_stmt 0               @ ../User/BSP/lcd/lcd.c:29:10
	strh.w	r2, [sp, #82]
	.loc	4 30 20 is_stmt 1               @ ../User/BSP/lcd/lcd.c:30:20
	ldrh.w	r2, [sp, #82]
	.loc	4 30 18 is_stmt 0               @ ../User/BSP/lcd/lcd.c:30:18
	strh	r2, [r6]
	movs	r2, #11
	strh.w	r2, [sp, #82]
.Ltmp307:
	.loc	4 29 12 is_stmt 1               @ ../User/BSP/lcd/lcd.c:29:12
	ldrh.w	r2, [sp, #82]
	.loc	4 29 10 is_stmt 0               @ ../User/BSP/lcd/lcd.c:29:10
	strh.w	r2, [sp, #82]
	.loc	4 30 20 is_stmt 1               @ ../User/BSP/lcd/lcd.c:30:20
	ldrh.w	r2, [sp, #82]
	.loc	4 30 18 is_stmt 0               @ ../User/BSP/lcd/lcd.c:30:18
	strh	r2, [r6]
	strh.w	r1, [sp, #82]
.Ltmp308:
	.loc	4 29 12 is_stmt 1               @ ../User/BSP/lcd/lcd.c:29:12
	ldrh.w	r1, [sp, #82]
	.loc	4 29 10 is_stmt 0               @ ../User/BSP/lcd/lcd.c:29:10
	strh.w	r1, [sp, #82]
	.loc	4 30 20 is_stmt 1               @ ../User/BSP/lcd/lcd.c:30:20
	ldrh.w	r1, [sp, #82]
	.loc	4 30 18 is_stmt 0               @ ../User/BSP/lcd/lcd.c:30:18
	strh	r1, [r6]
	strh.w	r4, [sp, #82]
.Ltmp309:
	.loc	4 29 12 is_stmt 1               @ ../User/BSP/lcd/lcd.c:29:12
	ldrh.w	r1, [sp, #82]
	.loc	4 29 10 is_stmt 0               @ ../User/BSP/lcd/lcd.c:29:10
	strh.w	r1, [sp, #82]
	.loc	4 30 20 is_stmt 1               @ ../User/BSP/lcd/lcd.c:30:20
	ldrh.w	r1, [sp, #82]
	.loc	4 30 18 is_stmt 0               @ ../User/BSP/lcd/lcd.c:30:18
	strh	r1, [r6]
	movs	r1, #71
	strh.w	r1, [sp, #82]
.Ltmp310:
	.loc	4 29 12 is_stmt 1               @ ../User/BSP/lcd/lcd.c:29:12
	ldrh.w	r1, [sp, #82]
	.loc	4 29 10 is_stmt 0               @ ../User/BSP/lcd/lcd.c:29:10
	strh.w	r1, [sp, #82]
	.loc	4 30 20 is_stmt 1               @ ../User/BSP/lcd/lcd.c:30:20
	ldrh.w	r1, [sp, #82]
	.loc	4 30 18 is_stmt 0               @ ../User/BSP/lcd/lcd.c:30:18
	strh	r1, [r6]
	movs	r1, #117
	strh.w	r1, [sp, #82]
.Ltmp311:
	.loc	4 29 12 is_stmt 1               @ ../User/BSP/lcd/lcd.c:29:12
	ldrh.w	r1, [sp, #82]
	.loc	4 29 10 is_stmt 0               @ ../User/BSP/lcd/lcd.c:29:10
	strh.w	r1, [sp, #82]
	.loc	4 30 20 is_stmt 1               @ ../User/BSP/lcd/lcd.c:30:20
	ldrh.w	r1, [sp, #82]
	.loc	4 30 18 is_stmt 0               @ ../User/BSP/lcd/lcd.c:30:18
	strh	r1, [r6]
	strh.w	r0, [sp, #82]
.Ltmp312:
	.loc	4 29 12 is_stmt 1               @ ../User/BSP/lcd/lcd.c:29:12
	ldrh.w	r0, [sp, #82]
	.loc	4 29 10 is_stmt 0               @ ../User/BSP/lcd/lcd.c:29:10
	strh.w	r0, [sp, #82]
	.loc	4 30 20 is_stmt 1               @ ../User/BSP/lcd/lcd.c:30:20
	ldrh.w	r0, [sp, #82]
	.loc	4 30 18 is_stmt 0               @ ../User/BSP/lcd/lcd.c:30:18
	strh	r0, [r6]
	movs	r0, #6
	strh.w	r0, [sp, #82]
.Ltmp313:
	.loc	4 29 12 is_stmt 1               @ ../User/BSP/lcd/lcd.c:29:12
	ldrh.w	r0, [sp, #82]
	.loc	4 29 10 is_stmt 0               @ ../User/BSP/lcd/lcd.c:29:10
	strh.w	r0, [sp, #82]
	.loc	4 30 20 is_stmt 1               @ ../User/BSP/lcd/lcd.c:30:20
	ldrh.w	r0, [sp, #82]
	.loc	4 30 18 is_stmt 0               @ ../User/BSP/lcd/lcd.c:30:18
	strh	r0, [r6]
	movs	r0, #16
	strh.w	r0, [sp, #82]
.Ltmp314:
	.loc	4 29 12 is_stmt 1               @ ../User/BSP/lcd/lcd.c:29:12
	ldrh.w	r0, [sp, #82]
	.loc	4 29 10 is_stmt 0               @ ../User/BSP/lcd/lcd.c:29:10
	strh.w	r0, [sp, #82]
	.loc	4 30 20 is_stmt 1               @ ../User/BSP/lcd/lcd.c:30:20
	ldrh.w	r0, [sp, #82]
	.loc	4 30 18 is_stmt 0               @ ../User/BSP/lcd/lcd.c:30:18
	strh	r0, [r6]
	movs	r0, #3
	strh.w	r0, [sp, #82]
.Ltmp315:
	.loc	4 29 12 is_stmt 1               @ ../User/BSP/lcd/lcd.c:29:12
	ldrh.w	r0, [sp, #82]
	.loc	4 29 10 is_stmt 0               @ ../User/BSP/lcd/lcd.c:29:10
	strh.w	r0, [sp, #82]
	.loc	4 30 20 is_stmt 1               @ ../User/BSP/lcd/lcd.c:30:20
	ldrh.w	r0, [sp, #82]
	.loc	4 30 18 is_stmt 0               @ ../User/BSP/lcd/lcd.c:30:18
	strh	r0, [r6]
	movs	r0, #36
	strh.w	r0, [sp, #82]
.Ltmp316:
	.loc	4 29 12 is_stmt 1               @ ../User/BSP/lcd/lcd.c:29:12
	ldrh.w	r0, [sp, #82]
	.loc	4 29 10 is_stmt 0               @ ../User/BSP/lcd/lcd.c:29:10
	strh.w	r0, [sp, #82]
	.loc	4 30 20 is_stmt 1               @ ../User/BSP/lcd/lcd.c:30:20
	ldrh.w	r0, [sp, #82]
	.loc	4 30 18 is_stmt 0               @ ../User/BSP/lcd/lcd.c:30:18
	strh	r0, [r6]
	movs	r0, #32
	strh.w	r0, [sp, #82]
.Ltmp317:
	.loc	4 29 12 is_stmt 1               @ ../User/BSP/lcd/lcd.c:29:12
	ldrh.w	r0, [sp, #82]
	.loc	4 29 10 is_stmt 0               @ ../User/BSP/lcd/lcd.c:29:10
	strh.w	r0, [sp, #82]
	.loc	4 30 20 is_stmt 1               @ ../User/BSP/lcd/lcd.c:30:20
	ldrh.w	r0, [sp, #82]
	.loc	4 30 18 is_stmt 0               @ ../User/BSP/lcd/lcd.c:30:18
	strh	r0, [r6]
	strh.w	r7, [sp, #82]
.Ltmp318:
	.loc	4 29 12 is_stmt 1               @ ../User/BSP/lcd/lcd.c:29:12
	ldrh.w	r0, [sp, #82]
	.loc	4 29 10 is_stmt 0               @ ../User/BSP/lcd/lcd.c:29:10
	strh.w	r0, [sp, #82]
	.loc	4 30 20 is_stmt 1               @ ../User/BSP/lcd/lcd.c:30:20
	ldrh.w	r0, [sp, #82]
	.loc	4 30 18 is_stmt 0               @ ../User/BSP/lcd/lcd.c:30:18
	strh	r0, [r6]
.Ltmp319:
	.loc	4 494 5 is_stmt 1               @ ../User/BSP/lcd/lcd.c:494:5
	movw	r0, :lower16:.Lstr.28
	movt	r0, :upper16:.Lstr.28
	bl	puts
.Ltmp320:
	.loc	4 0 5 is_stmt 0                 @ ../User/BSP/lcd/lcd.c:0:5
	strh.w	r5, [sp, #82]
.Ltmp321:
	.loc	4 21 14 is_stmt 1               @ ../User/BSP/lcd/lcd.c:21:14
	ldrh.w	r0, [sp, #82]
	.loc	4 21 12 is_stmt 0               @ ../User/BSP/lcd/lcd.c:21:12
	strh.w	r0, [sp, #82]
	.loc	4 22 20 is_stmt 1               @ ../User/BSP/lcd/lcd.c:22:20
	ldrh.w	r0, [sp, #82]
	.loc	4 22 18 is_stmt 0               @ ../User/BSP/lcd/lcd.c:22:18
	strh	r0, [r6, #-2]
.Ltmp322:
	.loc	4 497 5 is_stmt 1               @ ../User/BSP/lcd/lcd.c:497:5
	movs	r0, #120
	bl	delay_ms
.Ltmp323:
	.loc	4 498 5                         @ ../User/BSP/lcd/lcd.c:498:5
	movw	r0, :lower16:.Lstr.29
	movt	r0, :upper16:.Lstr.29
	bl	puts
.Ltmp324:
	.loc	4 0 5 is_stmt 0                 @ ../User/BSP/lcd/lcd.c:0:5
	movs	r0, #41
	strh.w	r0, [sp, #82]
.Ltmp325:
	.loc	4 21 14 is_stmt 1               @ ../User/BSP/lcd/lcd.c:21:14
	ldrh.w	r0, [sp, #82]
	.loc	4 21 12 is_stmt 0               @ ../User/BSP/lcd/lcd.c:21:12
	strh.w	r0, [sp, #82]
	.loc	4 22 20 is_stmt 1               @ ../User/BSP/lcd/lcd.c:22:20
	ldrh.w	r0, [sp, #82]
	.loc	4 22 18 is_stmt 0               @ ../User/BSP/lcd/lcd.c:22:18
	strh	r0, [r6, #-2]
.Ltmp326:
	.loc	4 501 5 is_stmt 1               @ ../User/BSP/lcd/lcd.c:501:5
	movw	r0, :lower16:.Lstr.30
	movt	r0, :upper16:.Lstr.30
	bl	puts
.Ltmp327:
	@DEBUG_VALUE: LCD_Display_Dir:dir <- 0
	.loc	4 272 5                         @ ../User/BSP/lcd/lcd.c:272:5
	movw	r0, :lower16:.L.str.3
	movt	r0, :upper16:.L.str.3
	movs	r1, #0
	bl	__2printf
.Ltmp328:
	.loc	4 0 5 is_stmt 0                 @ ../User/BSP/lcd/lcd.c:0:5
	movw	r0, #320
	movt	r0, #480
.Ltmp329:
	str.w	r0, [r11]
	movs	r0, #44
	movt	r0, #42
	str.w	r0, [r11, #8]
	movs	r0, #43
	strh.w	r0, [r11, #12]
	movs	r0, #0
	strb.w	r7, [r11, #6]
	bl	LCD_Scan_Dir
.Ltmp330:
	.loc	4 295 33 is_stmt 1              @ ../User/BSP/lcd/lcd.c:295:33
	ldrh.w	r2, [r11]
	.loc	4 295 47 is_stmt 0              @ ../User/BSP/lcd/lcd.c:295:47
	ldrh.w	r3, [r11, #2]
	.loc	4 295 5                         @ ../User/BSP/lcd/lcd.c:295:5
	movs	r0, #0
	movs	r1, #0
	bl	LCD_Set_Window
.Ltmp331:
	.loc	4 296 74 is_stmt 1              @ ../User/BSP/lcd/lcd.c:296:74
	ldrh.w	r1, [r11]
	.loc	4 296 88 is_stmt 0              @ ../User/BSP/lcd/lcd.c:296:88
	ldrh.w	r2, [r11, #2]
	.loc	4 296 5                         @ ../User/BSP/lcd/lcd.c:296:5
	movw	r0, :lower16:.L.str.4
	movt	r0, :upper16:.L.str.4
	bl	__2printf
.Ltmp332:
	.loc	4 504 5 is_stmt 1               @ ../User/BSP/lcd/lcd.c:504:5
	movw	r0, :lower16:.Lstr.31
	movt	r0, :upper16:.Lstr.31
	bl	puts
.Ltmp333:
	.loc	4 506 13                        @ ../User/BSP/lcd/lcd.c:506:13
	movw	r0, #33468
	movt	r0, #16960
	movs	r1, #1
	str	r1, [r0]
	.loc	4 507 5                         @ ../User/BSP/lcd/lcd.c:507:5
	adr	r0, .LCPI19_3
	bl	puts
.Ltmp334:
	@DEBUG_VALUE: LCD_Clear:color <- 65535
	.loc	4 517 34                        @ ../User/BSP/lcd/lcd.c:517:34
	ldrh.w	r2, [r11]
	.loc	4 517 49 is_stmt 0              @ ../User/BSP/lcd/lcd.c:517:49
	ldrh.w	r3, [r11, #2]
	.loc	4 519 5 is_stmt 1               @ ../User/BSP/lcd/lcd.c:519:5
	movs	r0, #0
	movs	r1, #0
	.loc	4 517 40                        @ ../User/BSP/lcd/lcd.c:517:40
	mul	r5, r3, r2
.Ltmp335:
	@DEBUG_VALUE: LCD_Clear:totalpoint <- $r5
	.loc	4 519 5                         @ ../User/BSP/lcd/lcd.c:519:5
	bl	LCD_Set_Window
.Ltmp336:
	.loc	4 64 27                         @ ../User/BSP/lcd/lcd.c:64:27
	ldrh.w	r0, [r11, #8]
	.loc	4 64 18 is_stmt 0               @ ../User/BSP/lcd/lcd.c:64:18
	strh	r0, [r6, #-2]
.Ltmp337:
	@DEBUG_VALUE: index <- 0
	.loc	4 521 5 is_stmt 1               @ ../User/BSP/lcd/lcd.c:521:5
	cbz	r5, .LBB19_10
.Ltmp338:
@ %bb.4:
	@DEBUG_VALUE: index <- 0
	@DEBUG_VALUE: LCD_Clear:totalpoint <- $r5
	@DEBUG_VALUE: LCD_Clear:color <- 65535
	subs	r1, r5, #1
	movw	r0, #65535
	cmp	r1, #3
	and	r1, r5, #3
	blo	.LBB19_7
.Ltmp339:
@ %bb.5:
	@DEBUG_VALUE: index <- 0
	@DEBUG_VALUE: LCD_Clear:totalpoint <- $r5
	@DEBUG_VALUE: LCD_Clear:color <- 65535
	bic	r2, r5, #3
.Ltmp340:
	.p2align	2
.LBB19_6:                               @ =>This Inner Loop Header: Depth=1
	@DEBUG_VALUE: LCD_Clear:totalpoint <- $r5
	@DEBUG_VALUE: LCD_Clear:color <- 65535
	@DEBUG_VALUE: index <- undef
	subs	r2, #4
.Ltmp341:
	.loc	4 523 22                        @ ../User/BSP/lcd/lcd.c:523:22
	strh	r0, [r6]
.Ltmp342:
	@DEBUG_VALUE: index <- [DW_OP_plus_uconst 1, DW_OP_stack_value] undef
	strh	r0, [r6]
.Ltmp343:
	@DEBUG_VALUE: index <- [DW_OP_plus_uconst 2, DW_OP_stack_value] undef
	strh	r0, [r6]
.Ltmp344:
	@DEBUG_VALUE: index <- [DW_OP_plus_uconst 3, DW_OP_stack_value] undef
	strh	r0, [r6]
.Ltmp345:
	@DEBUG_VALUE: index <- [DW_OP_plus_uconst 4, DW_OP_stack_value] undef
	.loc	4 521 5                         @ ../User/BSP/lcd/lcd.c:521:5
	bne	.LBB19_6
.Ltmp346:
.LBB19_7:
	@DEBUG_VALUE: LCD_Clear:totalpoint <- $r5
	@DEBUG_VALUE: LCD_Clear:color <- 65535
	cbz	r1, .LBB19_10
.Ltmp347:
@ %bb.8:
	@DEBUG_VALUE: LCD_Clear:totalpoint <- $r5
	@DEBUG_VALUE: LCD_Clear:color <- 65535
	@DEBUG_VALUE: index <- undef
	cmp	r1, #1
.Ltmp348:
	.loc	4 523 22                        @ ../User/BSP/lcd/lcd.c:523:22
	strh	r0, [r6]
.Ltmp349:
	@DEBUG_VALUE: index <- [DW_OP_plus_uconst 1, DW_OP_stack_value] undef
	.loc	4 521 5                         @ ../User/BSP/lcd/lcd.c:521:5
	beq	.LBB19_10
.Ltmp350:
@ %bb.9:
	@DEBUG_VALUE: LCD_Clear:totalpoint <- $r5
	@DEBUG_VALUE: LCD_Clear:color <- 65535
	@DEBUG_VALUE: index <- [DW_OP_plus_uconst 1, DW_OP_stack_value] undef
	cmp	r1, #2
.Ltmp351:
	.loc	4 523 22                        @ ../User/BSP/lcd/lcd.c:523:22
	strh	r0, [r6]
.Ltmp352:
	@DEBUG_VALUE: index <- [DW_OP_plus_uconst 1, DW_OP_plus_uconst 1, DW_OP_stack_value] undef
	@DEBUG_VALUE: index <- [DW_OP_plus_uconst 1, DW_OP_plus_uconst 1, DW_OP_stack_value] undef
	it	ne
	strhne	r0, [r6]
.Ltmp353:
	@DEBUG_VALUE: index <- [DW_OP_plus_uconst 1, DW_OP_plus_uconst 1, DW_OP_plus_uconst 1, DW_OP_stack_value] undef
.LBB19_10:
	@DEBUG_VALUE: LCD_Clear:totalpoint <- $r5
	@DEBUG_VALUE: LCD_Clear:color <- 65535
	.loc	4 526 76                        @ ../User/BSP/lcd/lcd.c:526:76
	ldrh.w	r2, [r11]
	.loc	4 526 90 is_stmt 0              @ ../User/BSP/lcd/lcd.c:526:90
	ldrh.w	r3, [r11, #2]
	.loc	4 526 5                         @ ../User/BSP/lcd/lcd.c:526:5
	movw	r0, :lower16:.L.str.19
	movt	r0, :upper16:.L.str.19
	movw	r1, #65535
	bl	__2printf
.Ltmp354:
	.loc	4 510 5 is_stmt 1               @ ../User/BSP/lcd/lcd.c:510:5
	movw	r0, :lower16:.Lstr.33
	movt	r0, :upper16:.Lstr.33
	bl	puts
.Ltmp355:
	.loc	4 511 5                         @ ../User/BSP/lcd/lcd.c:511:5
	movw	r0, :lower16:.Lstr.34
	movt	r0, :upper16:.Lstr.34
	bl	puts
.Ltmp356:
	.loc	4 512 1                         @ ../User/BSP/lcd/lcd.c:512:1
	add	sp, #84
	pop.w	{r4, r5, r6, r7, r8, r9, r10, r11, pc}
.Ltmp357:
	.p2align	2
@ %bb.11:
	.loc	4 0 1 is_stmt 0                 @ ../User/BSP/lcd/lcd.c:0:1
.LCPI19_0:
.Lstr.24:
	.asciz	"LCD_Init: Starting LCD Initialization...\r\000\000"
.LCPI19_1:
.Lstr.35:
	.asciz	"HAL_SRAM_Init FAILED! Program halted.\r\000"
.LCPI19_2:
.L.str.8:
	.asciz	"LCD ID:%x\r\n"
.LCPI19_3:
.Lstr.32:
	.asciz	"LCD_LED set to HIGH (Backlight ON).\r\000\000\000"
.Lfunc_end19:
	.size	LCD_Init, .Lfunc_end19-LCD_Init
	.cfi_endproc
	.cantunwind
	.fnend
                                        @ -- End function
	.section	.text.LCD_Clear,"ax",%progbits
	.hidden	LCD_Clear                       @ -- Begin function LCD_Clear
	.globl	LCD_Clear
	.p2align	2
	.type	LCD_Clear,%function
	.code	16                              @ @LCD_Clear
	.thumb_func
LCD_Clear:
.Lfunc_begin20:
	.loc	4 516 0 is_stmt 1               @ ../User/BSP/lcd/lcd.c:516:0
	.fnstart
	.cfi_startproc
@ %bb.0:
	@DEBUG_VALUE: LCD_Clear:color <- $r0
	.save	{r4, r5, r6, r7, lr}
	push	{r4, r5, r6, r7, lr}
	.cfi_def_cfa_offset 20
	.cfi_offset lr, -4
	.cfi_offset r7, -8
	.cfi_offset r6, -12
	.cfi_offset r5, -16
	.cfi_offset r4, -20
	.pad	#4
	sub	sp, #4
	.cfi_def_cfa_offset 24
.Ltmp358:
	.loc	4 517 34 prologue_end           @ ../User/BSP/lcd/lcd.c:517:34
	movw	r5, :lower16:lcddev
	movt	r5, :upper16:lcddev
	ldrh	r2, [r5]
	.loc	4 517 49 is_stmt 0              @ ../User/BSP/lcd/lcd.c:517:49
	ldrh	r3, [r5, #2]
	mov	r4, r0
.Ltmp359:
	@DEBUG_VALUE: LCD_Clear:color <- $r4
	@DEBUG_VALUE: LCD_Clear:color <- $r4
	.loc	4 0 49                          @ ../User/BSP/lcd/lcd.c:0:49
	movs	r6, #128
	.loc	4 519 5 is_stmt 1               @ ../User/BSP/lcd/lcd.c:519:5
	movs	r0, #0
	movs	r1, #0
	movt	r6, #27648
	.loc	4 517 40                        @ ../User/BSP/lcd/lcd.c:517:40
	mul	r7, r3, r2
.Ltmp360:
	@DEBUG_VALUE: LCD_Clear:totalpoint <- $r7
	.loc	4 519 5                         @ ../User/BSP/lcd/lcd.c:519:5
	bl	LCD_Set_Window
.Ltmp361:
	.loc	4 64 27                         @ ../User/BSP/lcd/lcd.c:64:27
	ldrh	r0, [r5, #8]
	.loc	4 64 18 is_stmt 0               @ ../User/BSP/lcd/lcd.c:64:18
	strh	r0, [r6, #-2]
.Ltmp362:
	@DEBUG_VALUE: index <- 0
	.loc	4 521 5 is_stmt 1               @ ../User/BSP/lcd/lcd.c:521:5
	cbz	r7, .LBB20_7
.Ltmp363:
@ %bb.1:
	@DEBUG_VALUE: index <- 0
	@DEBUG_VALUE: LCD_Clear:totalpoint <- $r7
	@DEBUG_VALUE: LCD_Clear:color <- $r4
	subs	r0, r7, #1
	cmp	r0, #3
	and	r0, r7, #3
	blo	.LBB20_4
.Ltmp364:
@ %bb.2:
	@DEBUG_VALUE: index <- 0
	@DEBUG_VALUE: LCD_Clear:totalpoint <- $r7
	@DEBUG_VALUE: LCD_Clear:color <- $r4
	bic	r1, r7, #3
.Ltmp365:
	.p2align	2
.LBB20_3:                               @ =>This Inner Loop Header: Depth=1
	@DEBUG_VALUE: LCD_Clear:totalpoint <- $r7
	@DEBUG_VALUE: LCD_Clear:color <- $r4
	@DEBUG_VALUE: index <- undef
	subs	r1, #4
.Ltmp366:
	.loc	4 523 22                        @ ../User/BSP/lcd/lcd.c:523:22
	strh	r4, [r6]
.Ltmp367:
	@DEBUG_VALUE: index <- [DW_OP_plus_uconst 1, DW_OP_stack_value] undef
	strh	r4, [r6]
.Ltmp368:
	@DEBUG_VALUE: index <- [DW_OP_plus_uconst 2, DW_OP_stack_value] undef
	strh	r4, [r6]
.Ltmp369:
	@DEBUG_VALUE: index <- [DW_OP_plus_uconst 3, DW_OP_stack_value] undef
	strh	r4, [r6]
.Ltmp370:
	@DEBUG_VALUE: index <- [DW_OP_plus_uconst 4, DW_OP_stack_value] undef
	.loc	4 521 5                         @ ../User/BSP/lcd/lcd.c:521:5
	bne	.LBB20_3
.Ltmp371:
.LBB20_4:
	@DEBUG_VALUE: LCD_Clear:totalpoint <- $r7
	@DEBUG_VALUE: LCD_Clear:color <- $r4
	cbz	r0, .LBB20_7
.Ltmp372:
@ %bb.5:
	@DEBUG_VALUE: LCD_Clear:totalpoint <- $r7
	@DEBUG_VALUE: LCD_Clear:color <- $r4
	@DEBUG_VALUE: index <- undef
	cmp	r0, #1
.Ltmp373:
	.loc	4 523 22                        @ ../User/BSP/lcd/lcd.c:523:22
	strh	r4, [r6]
.Ltmp374:
	@DEBUG_VALUE: index <- [DW_OP_plus_uconst 1, DW_OP_stack_value] undef
	.loc	4 521 5                         @ ../User/BSP/lcd/lcd.c:521:5
	beq	.LBB20_7
.Ltmp375:
@ %bb.6:
	@DEBUG_VALUE: LCD_Clear:totalpoint <- $r7
	@DEBUG_VALUE: LCD_Clear:color <- $r4
	@DEBUG_VALUE: index <- [DW_OP_plus_uconst 1, DW_OP_stack_value] undef
	cmp	r0, #2
.Ltmp376:
	.loc	4 523 22                        @ ../User/BSP/lcd/lcd.c:523:22
	strh	r4, [r6]
.Ltmp377:
	@DEBUG_VALUE: index <- [DW_OP_plus_uconst 1, DW_OP_plus_uconst 1, DW_OP_stack_value] undef
	@DEBUG_VALUE: index <- [DW_OP_plus_uconst 1, DW_OP_plus_uconst 1, DW_OP_stack_value] undef
	it	ne
	strhne	r4, [r6]
.Ltmp378:
	@DEBUG_VALUE: index <- [DW_OP_plus_uconst 1, DW_OP_plus_uconst 1, DW_OP_plus_uconst 1, DW_OP_stack_value] undef
.LBB20_7:
	@DEBUG_VALUE: LCD_Clear:totalpoint <- $r7
	@DEBUG_VALUE: LCD_Clear:color <- $r4
	.loc	4 526 76                        @ ../User/BSP/lcd/lcd.c:526:76
	ldrh	r2, [r5]
	.loc	4 526 90 is_stmt 0              @ ../User/BSP/lcd/lcd.c:526:90
	ldrh	r3, [r5, #2]
	.loc	4 526 5                         @ ../User/BSP/lcd/lcd.c:526:5
	movw	r0, :lower16:.L.str.19
	movt	r0, :upper16:.L.str.19
	mov	r1, r4
	add	sp, #4
	pop.w	{r4, r5, r6, r7, lr}
.Ltmp379:
	@DEBUG_VALUE: LCD_Clear:color <- [DW_OP_LLVM_entry_value 1] $r0
	b	__2printf
.Ltmp380:
.Lfunc_end20:
	.size	LCD_Clear, .Lfunc_end20-LCD_Clear
	.cfi_endproc
	.cantunwind
	.fnend
                                        @ -- End function
	.section	.text.LCD_Fill,"ax",%progbits
	.hidden	LCD_Fill                        @ -- Begin function LCD_Fill
	.globl	LCD_Fill
	.p2align	2
	.type	LCD_Fill,%function
	.code	16                              @ @LCD_Fill
	.thumb_func
LCD_Fill:
.Lfunc_begin21:
	.loc	4 531 0 is_stmt 1               @ ../User/BSP/lcd/lcd.c:531:0
	.fnstart
	.cfi_startproc
@ %bb.0:
	@DEBUG_VALUE: LCD_Fill:sx <- $r0
	@DEBUG_VALUE: LCD_Fill:sy <- $r1
	@DEBUG_VALUE: LCD_Fill:ex <- $r2
	@DEBUG_VALUE: LCD_Fill:ey <- $r3
	.save	{r4, r5, r6, r7, r8, r9, r10, r11, lr}
	push.w	{r4, r5, r6, r7, r8, r9, r10, r11, lr}
	.cfi_def_cfa_offset 36
	.cfi_offset lr, -4
	.cfi_offset r11, -8
	.cfi_offset r10, -12
	.cfi_offset r9, -16
	.cfi_offset r8, -20
	.cfi_offset r7, -24
	.cfi_offset r6, -28
	.cfi_offset r5, -32
	.cfi_offset r4, -36
	.pad	#12
	sub	sp, #12
	.cfi_def_cfa_offset 48
.Ltmp381:
	@DEBUG_VALUE: LCD_Fill:color <- [DW_OP_plus_uconst 48] [$sp+0]
	.loc	4 532 21 prologue_end           @ ../User/BSP/lcd/lcd.c:532:21
	movw	r10, :lower16:lcddev
	movt	r10, :upper16:lcddev
	ldrh.w	r7, [r10]
.Ltmp382:
	@DEBUG_VALUE: LCD_Fill:sy <- undef
	@DEBUG_VALUE: LCD_Fill:sx <- $r0
	.loc	4 532 27 is_stmt 0              @ ../User/BSP/lcd/lcd.c:532:27
	cmp	r7, r0
.Ltmp383:
	@DEBUG_VALUE: LCD_Fill:sy <- $r1
	bls	.LBB21_12
.Ltmp384:
@ %bb.1:
	@DEBUG_VALUE: LCD_Fill:color <- [DW_OP_plus_uconst 48] [$sp+0]
	@DEBUG_VALUE: LCD_Fill:ey <- $r3
	@DEBUG_VALUE: LCD_Fill:ex <- $r2
	@DEBUG_VALUE: LCD_Fill:sy <- $r1
	@DEBUG_VALUE: LCD_Fill:sx <- $r0
	@DEBUG_VALUE: LCD_Fill:sx <- $r0
	.loc	4 0 27                          @ ../User/BSP/lcd/lcd.c:0:27
	mov	r5, r1
.Ltmp385:
	@DEBUG_VALUE: LCD_Fill:sy <- $r5
	@DEBUG_VALUE: LCD_Fill:sy <- $r5
	.loc	4 532 50                        @ ../User/BSP/lcd/lcd.c:532:50
	cmp	r1, r3
	bhi	.LBB21_12
.Ltmp386:
@ %bb.2:
	@DEBUG_VALUE: LCD_Fill:sy <- $r5
	@DEBUG_VALUE: LCD_Fill:color <- [DW_OP_plus_uconst 48] [$sp+0]
	@DEBUG_VALUE: LCD_Fill:ey <- $r3
	@DEBUG_VALUE: LCD_Fill:ex <- $r2
	@DEBUG_VALUE: LCD_Fill:sx <- $r0
	.loc	4 0 50                          @ ../User/BSP/lcd/lcd.c:0:50
	mov	r4, r0
.Ltmp387:
	@DEBUG_VALUE: LCD_Fill:sx <- $r4
	@DEBUG_VALUE: LCD_Fill:sy <- $r5
	.loc	4 532 50                        @ ../User/BSP/lcd/lcd.c:532:50
	cmp	r0, r2
	bhi	.LBB21_12
.Ltmp388:
@ %bb.3:
	@DEBUG_VALUE: LCD_Fill:sx <- $r4
	@DEBUG_VALUE: LCD_Fill:sy <- $r5
	@DEBUG_VALUE: LCD_Fill:color <- [DW_OP_plus_uconst 48] [$sp+0]
	@DEBUG_VALUE: LCD_Fill:ey <- $r3
	@DEBUG_VALUE: LCD_Fill:ex <- $r2
	@DEBUG_VALUE: LCD_Fill:sy <- $r5
	.loc	4 0 0                           @ ../User/BSP/lcd/lcd.c:0:0
	ldrh.w	r0, [r10, #2]
	.loc	4 532 50                        @ ../User/BSP/lcd/lcd.c:532:50
	cmp	r0, r5
	bls	.LBB21_12
.Ltmp389:
@ %bb.4:
	@DEBUG_VALUE: LCD_Fill:sx <- $r4
	@DEBUG_VALUE: LCD_Fill:sy <- $r5
	@DEBUG_VALUE: LCD_Fill:color <- [DW_OP_plus_uconst 48] [$sp+0]
	@DEBUG_VALUE: LCD_Fill:ey <- $r3
	@DEBUG_VALUE: LCD_Fill:ex <- $r2
	@DEBUG_VALUE: LCD_Fill:sy <- $r5
	.loc	4 533 8 is_stmt 1               @ ../User/BSP/lcd/lcd.c:533:8
	cmp	r7, r2
	it	ls
	subls	r2, r7, #1
.Ltmp390:
	@DEBUG_VALUE: LCD_Fill:ex <- $r2
	.loc	4 534 8                         @ ../User/BSP/lcd/lcd.c:534:8
	cmp	r0, r3
	it	ls
	subls	r3, r0, #1
.Ltmp391:
	@DEBUG_VALUE: LCD_Fill:ey <- $r3
	.loc	4 536 30                        @ ../User/BSP/lcd/lcd.c:536:30
	uxth.w	r8, r2
	.loc	4 536 46 is_stmt 0              @ ../User/BSP/lcd/lcd.c:536:46
	uxth.w	r9, r3
	.loc	4 536 33                        @ ../User/BSP/lcd/lcd.c:536:33
	sub.w	r0, r8, r4
	.loc	4 536 49                        @ ../User/BSP/lcd/lcd.c:536:49
	sub.w	r1, r9, r5
	.loc	4 536 38                        @ ../User/BSP/lcd/lcd.c:536:38
	adds	r0, #1
	.loc	4 536 54                        @ ../User/BSP/lcd/lcd.c:536:54
	adds	r1, #1
	.loc	4 536 43                        @ ../User/BSP/lcd/lcd.c:536:43
	mul	r11, r1, r0
.Ltmp392:
	@DEBUG_VALUE: LCD_Fill:total_pixels <- $r11
	.loc	4 537 8 is_stmt 1               @ ../User/BSP/lcd/lcd.c:537:8
	cmp.w	r11, #0
	beq	.LBB21_12
.Ltmp393:
@ %bb.5:
	@DEBUG_VALUE: LCD_Fill:total_pixels <- $r11
	@DEBUG_VALUE: LCD_Fill:sx <- $r4
	@DEBUG_VALUE: LCD_Fill:sy <- $r5
	@DEBUG_VALUE: LCD_Fill:color <- [DW_OP_plus_uconst 48] [$sp+0]
	@DEBUG_VALUE: LCD_Fill:ey <- $r3
	@DEBUG_VALUE: LCD_Fill:ex <- $r2
	.loc	4 0 8 is_stmt 0                 @ ../User/BSP/lcd/lcd.c:0:8
	ldr	r6, [sp, #48]
	movs	r7, #128
	.loc	4 539 5 is_stmt 1               @ ../User/BSP/lcd/lcd.c:539:5
	uxth	r2, r0
.Ltmp394:
	uxth	r3, r1
.Ltmp395:
	mov	r0, r4
	mov	r1, r5
	movt	r7, #27648
	bl	LCD_Set_Window
.Ltmp396:
	.loc	4 64 27                         @ ../User/BSP/lcd/lcd.c:64:27
	ldrh.w	r0, [r10, #8]
	.loc	4 64 18 is_stmt 0               @ ../User/BSP/lcd/lcd.c:64:18
	strh	r0, [r7, #-2]
.Ltmp397:
	@DEBUG_VALUE: i <- 0
	.loc	4 541 5 is_stmt 1               @ ../User/BSP/lcd/lcd.c:541:5
	sub.w	r0, r11, #1
	cmp	r0, #3
	and	r0, r11, #3
	blo	.LBB21_8
.Ltmp398:
@ %bb.6:
	@DEBUG_VALUE: i <- 0
	@DEBUG_VALUE: LCD_Fill:total_pixels <- $r11
	@DEBUG_VALUE: LCD_Fill:sx <- $r4
	@DEBUG_VALUE: LCD_Fill:sy <- $r5
	@DEBUG_VALUE: LCD_Fill:color <- [DW_OP_plus_uconst 48] [$sp+0]
	bic	r1, r11, #3
.Ltmp399:
	.p2align	2
.LBB21_7:                               @ =>This Inner Loop Header: Depth=1
	@DEBUG_VALUE: LCD_Fill:total_pixels <- $r11
	@DEBUG_VALUE: LCD_Fill:sx <- $r4
	@DEBUG_VALUE: LCD_Fill:sy <- $r5
	@DEBUG_VALUE: LCD_Fill:color <- [DW_OP_plus_uconst 48] [$sp+0]
	@DEBUG_VALUE: i <- undef
	subs	r1, #4
.Ltmp400:
	.loc	4 543 22                        @ ../User/BSP/lcd/lcd.c:543:22
	strh	r6, [r7]
.Ltmp401:
	@DEBUG_VALUE: i <- [DW_OP_plus_uconst 1, DW_OP_stack_value] undef
	strh	r6, [r7]
.Ltmp402:
	@DEBUG_VALUE: i <- [DW_OP_plus_uconst 2, DW_OP_stack_value] undef
	strh	r6, [r7]
.Ltmp403:
	@DEBUG_VALUE: i <- [DW_OP_plus_uconst 3, DW_OP_stack_value] undef
	strh	r6, [r7]
.Ltmp404:
	@DEBUG_VALUE: i <- [DW_OP_plus_uconst 4, DW_OP_stack_value] undef
	.loc	4 541 5                         @ ../User/BSP/lcd/lcd.c:541:5
	bne	.LBB21_7
.Ltmp405:
.LBB21_8:
	@DEBUG_VALUE: LCD_Fill:total_pixels <- $r11
	@DEBUG_VALUE: LCD_Fill:sx <- $r4
	@DEBUG_VALUE: LCD_Fill:sy <- $r5
	@DEBUG_VALUE: LCD_Fill:color <- [DW_OP_plus_uconst 48] [$sp+0]
	cbz	r0, .LBB21_11
.Ltmp406:
@ %bb.9:
	@DEBUG_VALUE: LCD_Fill:total_pixels <- $r11
	@DEBUG_VALUE: LCD_Fill:sx <- $r4
	@DEBUG_VALUE: LCD_Fill:sy <- $r5
	@DEBUG_VALUE: LCD_Fill:color <- [DW_OP_plus_uconst 48] [$sp+0]
	@DEBUG_VALUE: i <- undef
	cmp	r0, #1
.Ltmp407:
	.loc	4 543 22                        @ ../User/BSP/lcd/lcd.c:543:22
	strh	r6, [r7]
.Ltmp408:
	@DEBUG_VALUE: i <- [DW_OP_plus_uconst 1, DW_OP_stack_value] undef
	.loc	4 541 5                         @ ../User/BSP/lcd/lcd.c:541:5
	beq	.LBB21_11
.Ltmp409:
@ %bb.10:
	@DEBUG_VALUE: LCD_Fill:total_pixels <- $r11
	@DEBUG_VALUE: LCD_Fill:sx <- $r4
	@DEBUG_VALUE: LCD_Fill:sy <- $r5
	@DEBUG_VALUE: LCD_Fill:color <- [DW_OP_plus_uconst 48] [$sp+0]
	@DEBUG_VALUE: i <- [DW_OP_plus_uconst 1, DW_OP_stack_value] undef
	cmp	r0, #2
.Ltmp410:
	.loc	4 543 22                        @ ../User/BSP/lcd/lcd.c:543:22
	strh	r6, [r7]
.Ltmp411:
	@DEBUG_VALUE: i <- [DW_OP_plus_uconst 1, DW_OP_plus_uconst 1, DW_OP_stack_value] undef
	@DEBUG_VALUE: i <- [DW_OP_plus_uconst 1, DW_OP_plus_uconst 1, DW_OP_stack_value] undef
	it	ne
	strhne	r6, [r7]
.Ltmp412:
	@DEBUG_VALUE: i <- [DW_OP_plus_uconst 1, DW_OP_plus_uconst 1, DW_OP_plus_uconst 1, DW_OP_stack_value] undef
.LBB21_11:
	@DEBUG_VALUE: LCD_Fill:total_pixels <- $r11
	@DEBUG_VALUE: LCD_Fill:sx <- $r4
	@DEBUG_VALUE: LCD_Fill:sy <- $r5
	@DEBUG_VALUE: LCD_Fill:color <- [DW_OP_plus_uconst 48] [$sp+0]
	.loc	4 546 33                        @ ../User/BSP/lcd/lcd.c:546:33
	ldrh.w	r2, [r10]
	.loc	4 546 47 is_stmt 0              @ ../User/BSP/lcd/lcd.c:546:47
	ldrh.w	r3, [r10, #2]
	.loc	4 546 5                         @ ../User/BSP/lcd/lcd.c:546:5
	movs	r0, #0
	movs	r1, #0
	bl	LCD_Set_Window
.Ltmp413:
	.loc	4 547 5 is_stmt 1               @ ../User/BSP/lcd/lcd.c:547:5
	adr	r0, .LCPI21_0
	mov	r1, r4
	mov	r2, r5
	mov	r3, r8
	str.w	r9, [sp]
	str	r6, [sp, #4]
	bl	__2printf
.Ltmp414:
.LBB21_12:
	@DEBUG_VALUE: LCD_Fill:color <- [DW_OP_plus_uconst 48] [$sp+0]
	.loc	4 548 1                         @ ../User/BSP/lcd/lcd.c:548:1
	add	sp, #12
	pop.w	{r4, r5, r6, r7, r8, r9, r10, r11, pc}
.Ltmp415:
	.p2align	2
@ %bb.13:
	.loc	4 0 1 is_stmt 0                 @ ../User/BSP/lcd/lcd.c:0:1
.LCPI21_0:
.L.str.20:
	.asciz	"Filled rectangle (%d,%d) to (%d,%d) with color 0x%X.\r\n\000"
.Lfunc_end21:
	.size	LCD_Fill, .Lfunc_end21-LCD_Fill
	.cfi_endproc
	.cantunwind
	.fnend
                                        @ -- End function
	.section	.text.LCD_Color_Fill,"ax",%progbits
	.hidden	LCD_Color_Fill                  @ -- Begin function LCD_Color_Fill
	.globl	LCD_Color_Fill
	.p2align	2
	.type	LCD_Color_Fill,%function
	.code	16                              @ @LCD_Color_Fill
	.thumb_func
LCD_Color_Fill:
.Lfunc_begin22:
	.loc	4 552 0 is_stmt 1               @ ../User/BSP/lcd/lcd.c:552:0
	.fnstart
	.cfi_startproc
@ %bb.0:
	@DEBUG_VALUE: LCD_Color_Fill:sx <- $r0
	@DEBUG_VALUE: LCD_Color_Fill:sy <- $r1
	@DEBUG_VALUE: LCD_Color_Fill:ex <- $r2
	@DEBUG_VALUE: LCD_Color_Fill:ey <- $r3
	.save	{r4, r5, r6, r7, r8, r9, r10, r11, lr}
	push.w	{r4, r5, r6, r7, r8, r9, r10, r11, lr}
	.cfi_def_cfa_offset 36
	.cfi_offset lr, -4
	.cfi_offset r11, -8
	.cfi_offset r10, -12
	.cfi_offset r9, -16
	.cfi_offset r8, -20
	.cfi_offset r7, -24
	.cfi_offset r6, -28
	.cfi_offset r5, -32
	.cfi_offset r4, -36
	.pad	#4
	sub	sp, #4
	.cfi_def_cfa_offset 40
.Ltmp416:
	@DEBUG_VALUE: LCD_Color_Fill:color <- [DW_OP_plus_uconst 40] [$sp+0]
	.loc	4 553 21 prologue_end           @ ../User/BSP/lcd/lcd.c:553:21
	movw	r11, :lower16:lcddev
	movt	r11, :upper16:lcddev
	ldrh.w	r7, [r11]
.Ltmp417:
	@DEBUG_VALUE: LCD_Color_Fill:sy <- undef
	@DEBUG_VALUE: LCD_Color_Fill:sx <- $r0
	.loc	4 553 27 is_stmt 0              @ ../User/BSP/lcd/lcd.c:553:27
	cmp	r7, r0
.Ltmp418:
	@DEBUG_VALUE: LCD_Color_Fill:sy <- $r1
	bls	.LBB22_7
.Ltmp419:
@ %bb.1:
	@DEBUG_VALUE: LCD_Color_Fill:color <- [DW_OP_plus_uconst 40] [$sp+0]
	@DEBUG_VALUE: LCD_Color_Fill:ey <- $r3
	@DEBUG_VALUE: LCD_Color_Fill:ex <- $r2
	@DEBUG_VALUE: LCD_Color_Fill:sy <- $r1
	@DEBUG_VALUE: LCD_Color_Fill:sx <- $r0
	@DEBUG_VALUE: LCD_Color_Fill:sx <- $r0
	.loc	4 0 27                          @ ../User/BSP/lcd/lcd.c:0:27
	mov	r5, r1
.Ltmp420:
	@DEBUG_VALUE: LCD_Color_Fill:sy <- $r5
	@DEBUG_VALUE: LCD_Color_Fill:sy <- $r5
	.loc	4 553 50                        @ ../User/BSP/lcd/lcd.c:553:50
	cmp	r1, r3
	bhi	.LBB22_7
.Ltmp421:
@ %bb.2:
	@DEBUG_VALUE: LCD_Color_Fill:sy <- $r5
	@DEBUG_VALUE: LCD_Color_Fill:color <- [DW_OP_plus_uconst 40] [$sp+0]
	@DEBUG_VALUE: LCD_Color_Fill:ey <- $r3
	@DEBUG_VALUE: LCD_Color_Fill:ex <- $r2
	@DEBUG_VALUE: LCD_Color_Fill:sx <- $r0
	.loc	4 0 50                          @ ../User/BSP/lcd/lcd.c:0:50
	mov	r4, r0
.Ltmp422:
	@DEBUG_VALUE: LCD_Color_Fill:sx <- $r4
	@DEBUG_VALUE: LCD_Color_Fill:sy <- $r5
	.loc	4 553 50                        @ ../User/BSP/lcd/lcd.c:553:50
	cmp	r0, r2
	bhi	.LBB22_7
.Ltmp423:
@ %bb.3:
	@DEBUG_VALUE: LCD_Color_Fill:sx <- $r4
	@DEBUG_VALUE: LCD_Color_Fill:sy <- $r5
	@DEBUG_VALUE: LCD_Color_Fill:color <- [DW_OP_plus_uconst 40] [$sp+0]
	@DEBUG_VALUE: LCD_Color_Fill:ey <- $r3
	@DEBUG_VALUE: LCD_Color_Fill:ex <- $r2
	@DEBUG_VALUE: LCD_Color_Fill:sy <- $r5
	.loc	4 0 0                           @ ../User/BSP/lcd/lcd.c:0:0
	ldrh.w	r0, [r11, #2]
	.loc	4 553 50                        @ ../User/BSP/lcd/lcd.c:553:50
	cmp	r0, r5
	bls	.LBB22_7
.Ltmp424:
@ %bb.4:
	@DEBUG_VALUE: LCD_Color_Fill:sx <- $r4
	@DEBUG_VALUE: LCD_Color_Fill:sy <- $r5
	@DEBUG_VALUE: LCD_Color_Fill:color <- [DW_OP_plus_uconst 40] [$sp+0]
	@DEBUG_VALUE: LCD_Color_Fill:ey <- $r3
	@DEBUG_VALUE: LCD_Color_Fill:ex <- $r2
	@DEBUG_VALUE: LCD_Color_Fill:sy <- $r5
	.loc	4 554 8 is_stmt 1               @ ../User/BSP/lcd/lcd.c:554:8
	cmp	r7, r2
	it	ls
	subls	r2, r7, #1
.Ltmp425:
	@DEBUG_VALUE: LCD_Color_Fill:ex <- $r2
	.loc	4 555 8                         @ ../User/BSP/lcd/lcd.c:555:8
	cmp	r0, r3
	it	ls
	subls	r3, r0, #1
.Ltmp426:
	@DEBUG_VALUE: LCD_Color_Fill:ey <- $r3
	.loc	4 557 30                        @ ../User/BSP/lcd/lcd.c:557:30
	uxth.w	r8, r2
	.loc	4 557 46 is_stmt 0              @ ../User/BSP/lcd/lcd.c:557:46
	uxth.w	r9, r3
	.loc	4 557 33                        @ ../User/BSP/lcd/lcd.c:557:33
	sub.w	r0, r8, r4
	.loc	4 557 49                        @ ../User/BSP/lcd/lcd.c:557:49
	sub.w	r1, r9, r5
	.loc	4 557 38                        @ ../User/BSP/lcd/lcd.c:557:38
	adds	r0, #1
	.loc	4 557 54                        @ ../User/BSP/lcd/lcd.c:557:54
	adds	r1, #1
	.loc	4 557 43                        @ ../User/BSP/lcd/lcd.c:557:43
	mul	r7, r1, r0
.Ltmp427:
	@DEBUG_VALUE: LCD_Color_Fill:total_pixels <- $r7
	.loc	4 558 8 is_stmt 1               @ ../User/BSP/lcd/lcd.c:558:8
	cbz	r7, .LBB22_7
.Ltmp428:
@ %bb.5:
	@DEBUG_VALUE: LCD_Color_Fill:total_pixels <- $r7
	@DEBUG_VALUE: LCD_Color_Fill:sx <- $r4
	@DEBUG_VALUE: LCD_Color_Fill:sy <- $r5
	@DEBUG_VALUE: LCD_Color_Fill:color <- [DW_OP_plus_uconst 40] [$sp+0]
	@DEBUG_VALUE: LCD_Color_Fill:ey <- $r3
	@DEBUG_VALUE: LCD_Color_Fill:ex <- $r2
	.loc	4 0 8 is_stmt 0                 @ ../User/BSP/lcd/lcd.c:0:8
	ldr.w	r10, [sp, #40]
	movs	r6, #128
	.loc	4 560 5 is_stmt 1               @ ../User/BSP/lcd/lcd.c:560:5
	uxth	r2, r0
.Ltmp429:
	uxth	r3, r1
.Ltmp430:
	mov	r0, r4
	mov	r1, r5
	movt	r6, #27648
	bl	LCD_Set_Window
.Ltmp431:
	.loc	4 64 27                         @ ../User/BSP/lcd/lcd.c:64:27
	ldrh.w	r0, [r11, #8]
	.loc	4 64 18 is_stmt 0               @ ../User/BSP/lcd/lcd.c:64:18
	strh	r0, [r6, #-2]
.Ltmp432:
	@DEBUG_VALUE: k <- 0
	.loc	4 562 5 is_stmt 1               @ ../User/BSP/lcd/lcd.c:562:5
	subs	r0, r7, #1
	cmp	r0, #3
	and	r0, r7, #3
	bhs	.LBB22_8
.Ltmp433:
@ %bb.6:
	@DEBUG_VALUE: k <- 0
	@DEBUG_VALUE: LCD_Color_Fill:total_pixels <- $r7
	@DEBUG_VALUE: LCD_Color_Fill:sx <- $r4
	@DEBUG_VALUE: LCD_Color_Fill:sy <- $r5
	@DEBUG_VALUE: LCD_Color_Fill:color <- [DW_OP_plus_uconst 40] [$sp+0]
	.loc	4 0 5 is_stmt 0                 @ ../User/BSP/lcd/lcd.c:0:5
	movs	r1, #0
	b	.LBB22_10
.Ltmp434:
.LBB22_7:
	@DEBUG_VALUE: LCD_Color_Fill:color <- [DW_OP_plus_uconst 40] [$sp+0]
	@DEBUG_VALUE: LCD_Color_Fill:ey <- $r3
	@DEBUG_VALUE: LCD_Color_Fill:ex <- $r2
	.loc	4 569 1 is_stmt 1               @ ../User/BSP/lcd/lcd.c:569:1
	add	sp, #4
	pop.w	{r4, r5, r6, r7, r8, r9, r10, r11, pc}
.Ltmp435:
.LBB22_8:
	@DEBUG_VALUE: k <- 0
	@DEBUG_VALUE: LCD_Color_Fill:total_pixels <- $r7
	@DEBUG_VALUE: LCD_Color_Fill:sx <- $r4
	@DEBUG_VALUE: LCD_Color_Fill:sy <- $r5
	@DEBUG_VALUE: LCD_Color_Fill:color <- [DW_OP_plus_uconst 40] [$sp+0]
	.loc	4 562 5                         @ ../User/BSP/lcd/lcd.c:562:5
	bic	r2, r7, #3
	sub.w	r3, r10, #8
	movs	r1, #0
.Ltmp436:
	.p2align	2
.LBB22_9:                               @ =>This Inner Loop Header: Depth=1
	@DEBUG_VALUE: LCD_Color_Fill:sx <- $r4
	@DEBUG_VALUE: LCD_Color_Fill:sy <- $r5
	@DEBUG_VALUE: LCD_Color_Fill:color <- [DW_OP_plus_uconst 40] [$sp+0]
	@DEBUG_VALUE: k <- $r1
	.loc	4 564 24                        @ ../User/BSP/lcd/lcd.c:564:24
	ldrh	r7, [r3, #8]!
.Ltmp437:
	.loc	4 562 39                        @ ../User/BSP/lcd/lcd.c:562:39
	adds	r1, #4
.Ltmp438:
	@DEBUG_VALUE: k <- $r1
	.loc	4 564 22                        @ ../User/BSP/lcd/lcd.c:564:22
	strh	r7, [r6]
.Ltmp439:
	@DEBUG_VALUE: k <- [DW_OP_constu 1, DW_OP_or, DW_OP_stack_value] $r1
	.loc	4 564 24 is_stmt 0              @ ../User/BSP/lcd/lcd.c:564:24
	ldrh	r7, [r3, #2]
.Ltmp440:
	.loc	4 562 5 is_stmt 1               @ ../User/BSP/lcd/lcd.c:562:5
	cmp	r2, r1
.Ltmp441:
	.loc	4 564 22                        @ ../User/BSP/lcd/lcd.c:564:22
	strh	r7, [r6]
.Ltmp442:
	@DEBUG_VALUE: k <- [DW_OP_constu 2, DW_OP_or, DW_OP_stack_value] $r1
	.loc	4 564 24 is_stmt 0              @ ../User/BSP/lcd/lcd.c:564:24
	ldrh	r7, [r3, #4]
	.loc	4 564 22                        @ ../User/BSP/lcd/lcd.c:564:22
	strh	r7, [r6]
.Ltmp443:
	@DEBUG_VALUE: k <- [DW_OP_constu 3, DW_OP_or, DW_OP_stack_value] $r1
	.loc	4 564 24                        @ ../User/BSP/lcd/lcd.c:564:24
	ldrh	r7, [r3, #6]
	.loc	4 564 22                        @ ../User/BSP/lcd/lcd.c:564:22
	strh	r7, [r6]
.Ltmp444:
	.loc	4 562 5 is_stmt 1               @ ../User/BSP/lcd/lcd.c:562:5
	bne	.LBB22_9
.Ltmp445:
.LBB22_10:
	@DEBUG_VALUE: LCD_Color_Fill:sx <- $r4
	@DEBUG_VALUE: LCD_Color_Fill:sy <- $r5
	@DEBUG_VALUE: LCD_Color_Fill:color <- [DW_OP_plus_uconst 40] [$sp+0]
	cbz	r0, .LBB22_13
.Ltmp446:
@ %bb.11:
	@DEBUG_VALUE: LCD_Color_Fill:sx <- $r4
	@DEBUG_VALUE: LCD_Color_Fill:sy <- $r5
	@DEBUG_VALUE: LCD_Color_Fill:color <- [DW_OP_plus_uconst 40] [$sp+0]
	@DEBUG_VALUE: k <- $r1
	.loc	4 564 24                        @ ../User/BSP/lcd/lcd.c:564:24
	ldrh.w	r2, [r10, r1, lsl #1]
.Ltmp447:
	.loc	4 562 5                         @ ../User/BSP/lcd/lcd.c:562:5
	cmp	r0, #1
.Ltmp448:
	.loc	4 564 22                        @ ../User/BSP/lcd/lcd.c:564:22
	strh	r2, [r6]
.Ltmp449:
	@DEBUG_VALUE: k <- [DW_OP_plus_uconst 1, DW_OP_stack_value] $r1
	.loc	4 562 5                         @ ../User/BSP/lcd/lcd.c:562:5
	beq	.LBB22_13
.Ltmp450:
@ %bb.12:
	@DEBUG_VALUE: k <- [DW_OP_plus_uconst 1, DW_OP_stack_value] $r1
	@DEBUG_VALUE: LCD_Color_Fill:sx <- $r4
	@DEBUG_VALUE: LCD_Color_Fill:sy <- $r5
	@DEBUG_VALUE: LCD_Color_Fill:color <- [DW_OP_plus_uconst 40] [$sp+0]
	@DEBUG_VALUE: k <- [DW_OP_plus_uconst 1, DW_OP_stack_value] $r1
	.loc	4 564 24                        @ ../User/BSP/lcd/lcd.c:564:24
	add.w	r1, r10, r1, lsl #1
.Ltmp451:
	ldrh	r2, [r1, #2]
.Ltmp452:
	.loc	4 562 5                         @ ../User/BSP/lcd/lcd.c:562:5
	cmp	r0, #2
.Ltmp453:
	.loc	4 564 22                        @ ../User/BSP/lcd/lcd.c:564:22
	strh	r2, [r6]
.Ltmp454:
	@DEBUG_VALUE: k <- [DW_OP_plus_uconst 1, DW_OP_stack_value] undef
	@DEBUG_VALUE: k <- undef
	.loc	4 564 24 is_stmt 0              @ ../User/BSP/lcd/lcd.c:564:24
	itt	ne
	ldrhne	r0, [r1, #4]
	.loc	4 564 22                        @ ../User/BSP/lcd/lcd.c:564:22
	strhne	r0, [r6]
.Ltmp455:
	@DEBUG_VALUE: k <- [DW_OP_plus_uconst 1, DW_OP_plus_uconst 1, DW_OP_plus_uconst 1, DW_OP_stack_value] undef
.LBB22_13:
	@DEBUG_VALUE: LCD_Color_Fill:sx <- $r4
	@DEBUG_VALUE: LCD_Color_Fill:sy <- $r5
	@DEBUG_VALUE: LCD_Color_Fill:color <- [DW_OP_plus_uconst 40] [$sp+0]
	.loc	4 567 33 is_stmt 1              @ ../User/BSP/lcd/lcd.c:567:33
	ldrh.w	r2, [r11]
	.loc	4 567 47 is_stmt 0              @ ../User/BSP/lcd/lcd.c:567:47
	ldrh.w	r3, [r11, #2]
	.loc	4 567 5                         @ ../User/BSP/lcd/lcd.c:567:5
	movs	r0, #0
	movs	r1, #0
	bl	LCD_Set_Window
.Ltmp456:
	.loc	4 568 5 is_stmt 1               @ ../User/BSP/lcd/lcd.c:568:5
	adr	r0, .LCPI22_0
	mov	r1, r4
	mov	r2, r5
	mov	r3, r8
	str.w	r9, [sp]
	bl	__2printf
.Ltmp457:
	.loc	4 569 1                         @ ../User/BSP/lcd/lcd.c:569:1
	add	sp, #4
	pop.w	{r4, r5, r6, r7, r8, r9, r10, r11, pc}
.Ltmp458:
	.p2align	2
@ %bb.14:
	.loc	4 0 1 is_stmt 0                 @ ../User/BSP/lcd/lcd.c:0:1
.LCPI22_0:
.L.str.21:
	.asciz	"Filled color block (%d,%d) to (%d,%d).\r\n\000\000\000"
.Lfunc_end22:
	.size	LCD_Color_Fill, .Lfunc_end22-LCD_Color_Fill
	.cfi_endproc
	.cantunwind
	.fnend
                                        @ -- End function
	.section	.text.LCD_DrawLine,"ax",%progbits
	.hidden	LCD_DrawLine                    @ -- Begin function LCD_DrawLine
	.globl	LCD_DrawLine
	.p2align	2
	.type	LCD_DrawLine,%function
	.code	16                              @ @LCD_DrawLine
	.thumb_func
LCD_DrawLine:
.Lfunc_begin23:
	.loc	4 573 0 is_stmt 1               @ ../User/BSP/lcd/lcd.c:573:0
	.fnstart
	.cfi_startproc
@ %bb.0:
	@DEBUG_VALUE: LCD_DrawLine:x1 <- $r0
	@DEBUG_VALUE: LCD_DrawLine:y1 <- $r1
	@DEBUG_VALUE: LCD_DrawLine:x2 <- $r2
	@DEBUG_VALUE: LCD_DrawLine:y2 <- $r3
	.save	{r4, r5, r6, r7, r8, r9, r10, r11, lr}
	push.w	{r4, r5, r6, r7, r8, r9, r10, r11, lr}
	.cfi_def_cfa_offset 36
	.cfi_offset lr, -4
	.cfi_offset r11, -8
	.cfi_offset r10, -12
	.cfi_offset r9, -16
	.cfi_offset r8, -20
	.cfi_offset r7, -24
	.cfi_offset r6, -28
	.cfi_offset r5, -32
	.cfi_offset r4, -36
	.pad	#12
	sub	sp, #12
	.cfi_def_cfa_offset 48
	mov	r5, r0
.Ltmp459:
	@DEBUG_VALUE: LCD_DrawLine:yerr <- 0
	@DEBUG_VALUE: LCD_DrawLine:xerr <- 0
	@DEBUG_VALUE: LCD_DrawLine:x1 <- $r5
	mov	r4, r1
.Ltmp460:
	@DEBUG_VALUE: LCD_DrawLine:y1 <- $r4
	@DEBUG_VALUE: LCD_DrawLine:y1 <- $r4
	.loc	4 577 18 prologue_end           @ ../User/BSP/lcd/lcd.c:577:18
	subs	r1, r2, r0
.Ltmp461:
	@DEBUG_VALUE: LCD_DrawLine:delta_x <- $r1
	.loc	4 581 8                         @ ../User/BSP/lcd/lcd.c:581:8
	subs.w	r12, r2, r5
	it	ne
	movne.w	r12, #-1
	cmp	r1, #0
	mov	lr, r1
	it	mi
	rsbmi.w	lr, r1, #0
	cmp	r1, #1
	.loc	4 578 18                        @ ../User/BSP/lcd/lcd.c:578:18
	sub.w	r0, r3, r4
.Ltmp462:
	@DEBUG_VALUE: LCD_DrawLine:uRow <- $r5
	@DEBUG_VALUE: LCD_DrawLine:uCol <- $r4
	@DEBUG_VALUE: LCD_DrawLine:delta_y <- $r0
	.loc	4 0 18 is_stmt 0                @ ../User/BSP/lcd/lcd.c:0:18
	mov.w	r2, #1
.Ltmp463:
	@DEBUG_VALUE: LCD_DrawLine:x2 <- [DW_OP_LLVM_entry_value 1] $r2
	.loc	4 581 8 is_stmt 1               @ ../User/BSP/lcd/lcd.c:581:8
	it	ge
	movge	r12, r2
.Ltmp464:
	@DEBUG_VALUE: LCD_DrawLine:incx <- $r12
	@DEBUG_VALUE: LCD_DrawLine:delta_x <- $lr
	.loc	4 584 8                         @ ../User/BSP/lcd/lcd.c:584:8
	subs	r1, r3, r4
	it	ne
	movne.w	r1, #-1
	cmp	r0, #0
	mov	r7, r0
	it	mi
	rsbmi	r7, r0, #0
	cmp	r0, #1
	mov	r0, r7
.Ltmp465:
	it	lt
	movlt	r2, r1
.Ltmp466:
	@DEBUG_VALUE: LCD_DrawLine:incy <- $r2
	@DEBUG_VALUE: LCD_DrawLine:delta_y <- $r7
	.loc	4 0 8 is_stmt 0                 @ ../User/BSP/lcd/lcd.c:0:8
	cmp	lr, r7
	it	hi
	movhi	r0, lr
.Ltmp467:
	@DEBUG_VALUE: LCD_DrawLine:t <- 0
	@DEBUG_VALUE: LCD_DrawLine:distance <- $r0
	str	r0, [sp, #8]                    @ 4-byte Spill
.Ltmp468:
	@DEBUG_VALUE: LCD_DrawLine:distance <- [DW_OP_plus_uconst 8] [$sp+0]
	adds	r0, #1
.Ltmp469:
	@DEBUG_VALUE: LCD_DrawLine:uRow <- undef
	@DEBUG_VALUE: LCD_DrawLine:uCol <- undef
	@DEBUG_VALUE: LCD_DrawLine:yerr <- 0
	@DEBUG_VALUE: LCD_DrawLine:xerr <- 0
	.loc	4 232 20 is_stmt 1              @ ../User/BSP/lcd/lcd.c:232:20
	str	r0, [sp, #4]                    @ 4-byte Spill
	movw	r0, :lower16:lcddev
	movt	r0, :upper16:lcddev
	ldrh	r3, [r0]
.Ltmp470:
	@DEBUG_VALUE: LCD_DrawLine:y2 <- [DW_OP_LLVM_entry_value 1] $r3
	.loc	4 0 20 is_stmt 0                @ ../User/BSP/lcd/lcd.c:0:20
	ldrh.w	r8, [r0, #2]
	mov.w	r9, #0
	mov.w	r11, #0
	mov.w	r10, #0
	str	r7, [sp]                        @ 4-byte Spill
	b	.LBB23_2
.Ltmp471:
	.p2align	2
.LBB23_1:                               @   in Loop: Header=BB23_2 Depth=1
	@DEBUG_VALUE: LCD_DrawLine:t <- $r10
	@DEBUG_VALUE: LCD_DrawLine:yerr <- $r9
	@DEBUG_VALUE: LCD_DrawLine:xerr <- $r11
	@DEBUG_VALUE: LCD_DrawLine:y2 <- [DW_OP_LLVM_entry_value 1] $r3
	@DEBUG_VALUE: LCD_DrawLine:distance <- [DW_OP_plus_uconst 8] [$sp+0]
	@DEBUG_VALUE: LCD_DrawLine:delta_x <- $lr
	@DEBUG_VALUE: LCD_DrawLine:x2 <- [DW_OP_LLVM_entry_value 1] $r2
	@DEBUG_VALUE: LCD_DrawLine:uCol <- $r4
	@DEBUG_VALUE: LCD_DrawLine:uRow <- $r5
	ldr	r6, [sp, #8]                    @ 4-byte Reload
	.loc	4 592 14 is_stmt 1              @ ../User/BSP/lcd/lcd.c:592:14
	add.w	r0, r11, lr
.Ltmp472:
	@DEBUG_VALUE: LCD_DrawLine:xerr <- $r0
	.loc	4 593 14                        @ ../User/BSP/lcd/lcd.c:593:14
	add.w	r1, r9, r7
.Ltmp473:
	@DEBUG_VALUE: LCD_DrawLine:yerr <- $r1
	.loc	4 594 12                        @ ../User/BSP/lcd/lcd.c:594:12
	subs.w	r11, r0, r6
	ite	le
	movle	r11, r0
.Ltmp474:
	@DEBUG_VALUE: LCD_DrawLine:xerr <- $r11
	@DEBUG_VALUE: LCD_DrawLine:xerr <- $r11
	@DEBUG_VALUE: LCD_DrawLine:xerr <- $r11
	addgt	r5, r12
.Ltmp475:
	@DEBUG_VALUE: LCD_DrawLine:x1 <- [DW_OP_LLVM_entry_value 1] $r0
	@DEBUG_VALUE: LCD_DrawLine:uRow <- $r5
	.loc	4 599 12                        @ ../User/BSP/lcd/lcd.c:599:12
	subs.w	r9, r1, r6
	ite	le
	movle	r9, r1
.Ltmp476:
	@DEBUG_VALUE: LCD_DrawLine:yerr <- $r9
	@DEBUG_VALUE: LCD_DrawLine:yerr <- $r9
	@DEBUG_VALUE: LCD_DrawLine:yerr <- $r9
	addgt	r4, r2
.Ltmp477:
	@DEBUG_VALUE: LCD_DrawLine:y1 <- [DW_OP_LLVM_entry_value 1] $r1
	@DEBUG_VALUE: LCD_DrawLine:uCol <- $r4
	.loc	4 589 36                        @ ../User/BSP/lcd/lcd.c:589:36
	add.w	r10, r10, #1
.Ltmp478:
	@DEBUG_VALUE: LCD_DrawLine:t <- $r10
	.loc	4 589 5 is_stmt 0               @ ../User/BSP/lcd/lcd.c:589:5
	ldr	r1, [sp, #4]                    @ 4-byte Reload
.Ltmp479:
	.loc	4 589 16                        @ ../User/BSP/lcd/lcd.c:589:16
	uxth.w	r0, r10
.Ltmp480:
	.loc	4 589 5                         @ ../User/BSP/lcd/lcd.c:589:5
	cmp	r1, r0
	blo	.LBB23_5
.Ltmp481:
.LBB23_2:                               @ =>This Inner Loop Header: Depth=1
	@DEBUG_VALUE: LCD_DrawLine:y2 <- [DW_OP_LLVM_entry_value 1] $r3
	@DEBUG_VALUE: LCD_DrawLine:distance <- [DW_OP_plus_uconst 8] [$sp+0]
	@DEBUG_VALUE: LCD_DrawLine:delta_x <- $lr
	@DEBUG_VALUE: LCD_DrawLine:x2 <- [DW_OP_LLVM_entry_value 1] $r2
	@DEBUG_VALUE: LCD_DrawLine:xerr <- $r11
	@DEBUG_VALUE: LCD_DrawLine:yerr <- $r9
	@DEBUG_VALUE: LCD_DrawLine:uCol <- $r4
	@DEBUG_VALUE: LCD_DrawLine:uRow <- $r5
	@DEBUG_VALUE: LCD_DrawLine:t <- $r10
	.loc	4 591 23 is_stmt 1              @ ../User/BSP/lcd/lcd.c:591:23
	uxth	r0, r5
.Ltmp482:
	@DEBUG_VALUE: LCD_DrawPoint:x <- $r5
	@DEBUG_VALUE: LCD_DrawPoint:y <- $r4
	.loc	4 232 10                        @ ../User/BSP/lcd/lcd.c:232:10
	uxth	r1, r3
	.loc	4 232 26 is_stmt 0              @ ../User/BSP/lcd/lcd.c:232:26
	cmp	r1, r0
	bls	.LBB23_1
.Ltmp483:
@ %bb.3:                                @   in Loop: Header=BB23_2 Depth=1
	@DEBUG_VALUE: LCD_DrawPoint:y <- $r4
	@DEBUG_VALUE: LCD_DrawPoint:x <- $r5
	@DEBUG_VALUE: LCD_DrawLine:t <- $r10
	@DEBUG_VALUE: LCD_DrawLine:yerr <- $r9
	@DEBUG_VALUE: LCD_DrawLine:xerr <- $r11
	@DEBUG_VALUE: LCD_DrawLine:y2 <- [DW_OP_LLVM_entry_value 1] $r3
	@DEBUG_VALUE: LCD_DrawLine:distance <- [DW_OP_plus_uconst 8] [$sp+0]
	@DEBUG_VALUE: LCD_DrawLine:delta_x <- $lr
	@DEBUG_VALUE: LCD_DrawLine:x2 <- [DW_OP_LLVM_entry_value 1] $r2
	@DEBUG_VALUE: LCD_DrawLine:uCol <- $r4
	@DEBUG_VALUE: LCD_DrawLine:uRow <- $r5
	.loc	4 0 26                          @ ../User/BSP/lcd/lcd.c:0:26
	uxth	r1, r4
	uxth.w	r6, r8
	.loc	4 232 26                        @ ../User/BSP/lcd/lcd.c:232:26
	cmp	r6, r1
	bls	.LBB23_1
.Ltmp484:
@ %bb.4:                                @   in Loop: Header=BB23_2 Depth=1
	@DEBUG_VALUE: LCD_DrawPoint:y <- $r4
	@DEBUG_VALUE: LCD_DrawPoint:x <- $r5
	@DEBUG_VALUE: LCD_DrawLine:t <- $r10
	@DEBUG_VALUE: LCD_DrawLine:yerr <- $r9
	@DEBUG_VALUE: LCD_DrawLine:xerr <- $r11
	@DEBUG_VALUE: LCD_DrawLine:y2 <- [DW_OP_LLVM_entry_value 1] $r3
	@DEBUG_VALUE: LCD_DrawLine:distance <- [DW_OP_plus_uconst 8] [$sp+0]
	@DEBUG_VALUE: LCD_DrawLine:delta_x <- $lr
	@DEBUG_VALUE: LCD_DrawLine:x2 <- [DW_OP_LLVM_entry_value 1] $r2
	@DEBUG_VALUE: LCD_DrawLine:uCol <- $r4
	@DEBUG_VALUE: LCD_DrawLine:uRow <- $r5
	.loc	4 0 26                          @ ../User/BSP/lcd/lcd.c:0:26
	mov	r6, r12
.Ltmp485:
	@DEBUG_VALUE: LCD_DrawLine:incx <- $r6
	mov	r7, r2
.Ltmp486:
	@DEBUG_VALUE: LCD_DrawLine:incy <- $r7
	mov	r8, lr
.Ltmp487:
	@DEBUG_VALUE: LCD_DrawLine:delta_x <- $r8
	@DEBUG_VALUE: LCD_DrawLine:delta_x <- $r8
	.loc	4 234 5 is_stmt 1               @ ../User/BSP/lcd/lcd.c:234:5
	bl	LCD_SetCursor
.Ltmp488:
	.loc	4 0 5 is_stmt 0                 @ ../User/BSP/lcd/lcd.c:0:5
	mov	r12, r6
	movw	r6, :lower16:lcddev
.Ltmp489:
	movt	r6, :upper16:lcddev
.Ltmp490:
	.loc	4 64 27 is_stmt 1               @ ../User/BSP/lcd/lcd.c:64:27
	ldrh	r0, [r6, #8]
	movs	r1, #126
	movt	r1, #27648
	mov	r2, r7
	ldr	r7, [sp]                        @ 4-byte Reload
.Ltmp491:
	.loc	4 64 18 is_stmt 0               @ ../User/BSP/lcd/lcd.c:64:18
	strh	r0, [r1]
.Ltmp492:
	.loc	4 236 20 is_stmt 1              @ ../User/BSP/lcd/lcd.c:236:20
	movw	r0, :lower16:POINT_COLOR
	movt	r0, :upper16:POINT_COLOR
	ldr	r0, [r0]
	mov	lr, r8
.Ltmp493:
	@DEBUG_VALUE: LCD_DrawLine:delta_x <- $lr
	@DEBUG_VALUE: LCD_DrawLine:delta_x <- $lr
	.loc	4 236 18 is_stmt 0              @ ../User/BSP/lcd/lcd.c:236:18
	strh	r0, [r1, #2]
.Ltmp494:
	.loc	4 232 20 is_stmt 1              @ ../User/BSP/lcd/lcd.c:232:20
	ldrh	r3, [r6]
	ldrh.w	r8, [r6, #2]
	b	.LBB23_1
.Ltmp495:
.LBB23_5:
	@DEBUG_VALUE: LCD_DrawLine:t <- $r10
	@DEBUG_VALUE: LCD_DrawLine:yerr <- $r9
	@DEBUG_VALUE: LCD_DrawLine:xerr <- $r11
	@DEBUG_VALUE: LCD_DrawLine:y2 <- [DW_OP_LLVM_entry_value 1] $r3
	@DEBUG_VALUE: LCD_DrawLine:distance <- [DW_OP_plus_uconst 8] [$sp+0]
	@DEBUG_VALUE: LCD_DrawLine:delta_x <- $lr
	@DEBUG_VALUE: LCD_DrawLine:x2 <- [DW_OP_LLVM_entry_value 1] $r2
	@DEBUG_VALUE: LCD_DrawLine:uCol <- $r4
	@DEBUG_VALUE: LCD_DrawLine:uRow <- $r5
	.loc	4 605 1                         @ ../User/BSP/lcd/lcd.c:605:1
	add	sp, #12
	pop.w	{r4, r5, r6, r7, r8, r9, r10, r11, pc}
.Ltmp496:
.Lfunc_end23:
	.size	LCD_DrawLine, .Lfunc_end23-LCD_DrawLine
	.cfi_endproc
	.cantunwind
	.fnend
                                        @ -- End function
	.section	.text.LCD_DrawRectangle,"ax",%progbits
	.hidden	LCD_DrawRectangle               @ -- Begin function LCD_DrawRectangle
	.globl	LCD_DrawRectangle
	.p2align	2
	.type	LCD_DrawRectangle,%function
	.code	16                              @ @LCD_DrawRectangle
	.thumb_func
LCD_DrawRectangle:
.Lfunc_begin24:
	.loc	4 608 0                         @ ../User/BSP/lcd/lcd.c:608:0
	.fnstart
	.cfi_startproc
@ %bb.0:
	@DEBUG_VALUE: LCD_DrawRectangle:x1 <- $r0
	@DEBUG_VALUE: LCD_DrawRectangle:y1 <- $r1
	@DEBUG_VALUE: LCD_DrawRectangle:x2 <- $r2
	@DEBUG_VALUE: LCD_DrawRectangle:y2 <- $r3
	.save	{r4, r5, r6, r7, r8, r9, r10, r11, lr}
	push.w	{r4, r5, r6, r7, r8, r9, r10, r11, lr}
	.cfi_def_cfa_offset 36
	.cfi_offset lr, -4
	.cfi_offset r11, -8
	.cfi_offset r10, -12
	.cfi_offset r9, -16
	.cfi_offset r8, -20
	.cfi_offset r7, -24
	.cfi_offset r6, -28
	.cfi_offset r5, -32
	.cfi_offset r4, -36
	.pad	#28
	sub	sp, #28
	.cfi_def_cfa_offset 64
	mov	r8, r0
.Ltmp497:
	@DEBUG_VALUE: LCD_DrawLine:yerr <- 0
	@DEBUG_VALUE: LCD_DrawLine:xerr <- 0
	@DEBUG_VALUE: LCD_DrawLine:y2 <- undef
	@DEBUG_VALUE: LCD_DrawLine:y1 <- undef
	@DEBUG_VALUE: LCD_DrawLine:x1 <- $r8
	@DEBUG_VALUE: LCD_DrawLine:distance <- undef
	@DEBUG_VALUE: LCD_DrawLine:delta_x <- undef
	@DEBUG_VALUE: LCD_DrawLine:t <- 0
	@DEBUG_VALUE: LCD_DrawLine:delta_y <- 0
	@DEBUG_VALUE: LCD_DrawLine:incy <- 0
	@DEBUG_VALUE: LCD_DrawLine:uRow <- $r8
	@DEBUG_VALUE: LCD_DrawLine:x2 <- $r2
	@DEBUG_VALUE: LCD_DrawRectangle:x1 <- $r8
	.loc	4 577 18 prologue_end           @ ../User/BSP/lcd/lcd.c:577:18
	subs	r0, r2, r0
.Ltmp498:
	@DEBUG_VALUE: LCD_DrawLine:delta_x <- $r0
	.loc	4 581 8                         @ ../User/BSP/lcd/lcd.c:581:8
	subs.w	r9, r2, r8
	str	r3, [sp, #16]                   @ 4-byte Spill
.Ltmp499:
	@DEBUG_VALUE: LCD_DrawRectangle:y2 <- [DW_OP_plus_uconst 16] [$sp+0]
	@DEBUG_VALUE: LCD_DrawRectangle:y2 <- [DW_OP_plus_uconst 16] [$sp+0]
	.loc	4 0 8 is_stmt 0                 @ ../User/BSP/lcd/lcd.c:0:8
	str	r2, [sp, #4]                    @ 4-byte Spill
.Ltmp500:
	@DEBUG_VALUE: LCD_DrawRectangle:x2 <- [DW_OP_plus_uconst 4] [$sp+0]
	@DEBUG_VALUE: LCD_DrawLine:x2 <- [DW_OP_plus_uconst 4] [$sp+0]
	@DEBUG_VALUE: LCD_DrawRectangle:x2 <- [DW_OP_plus_uconst 4] [$sp+0]
	.loc	4 581 8                         @ ../User/BSP/lcd/lcd.c:581:8
	it	ne
	movne.w	r9, #-1
	cmp	r0, #0
	mov	r10, r0
	it	mi
	rsbmi.w	r10, r0, #0
.Ltmp501:
	@DEBUG_VALUE: LCD_DrawRectangle:y1 <- $r5
	@DEBUG_VALUE: LCD_DrawRectangle:y2 <- [DW_OP_plus_uconst 16] [$sp+0]
	cmp	r0, #1
	add.w	r0, r10, #1
.Ltmp502:
	@DEBUG_VALUE: LCD_DrawLine:yerr <- 0
	@DEBUG_VALUE: LCD_DrawLine:xerr <- 0
	@DEBUG_VALUE: LCD_DrawLine:t <- 0
	it	ge
	movge.w	r9, #1
.Ltmp503:
	@DEBUG_VALUE: LCD_DrawLine:incx <- $r9
	.loc	4 232 20 is_stmt 1              @ ../User/BSP/lcd/lcd.c:232:20
	str	r0, [sp, #24]                   @ 4-byte Spill
	movw	r0, :lower16:lcddev
	movt	r0, :upper16:lcddev
	ldrh	r2, [r0]
	ldrh	r3, [r0, #2]
	mov	r5, r1
.Ltmp504:
	@DEBUG_VALUE: LCD_DrawRectangle:y1 <- $r5
	.loc	4 0 20 is_stmt 0                @ ../User/BSP/lcd/lcd.c:0:20
	movs	r4, #0
	mov	r7, r8
	movs	r6, #0
	b	.LBB24_2
.Ltmp505:
	.p2align	2
.LBB24_1:                               @   in Loop: Header=BB24_2 Depth=1
	@DEBUG_VALUE: LCD_DrawLine:xerr <- $r4
	@DEBUG_VALUE: LCD_DrawLine:t <- $r6
	@DEBUG_VALUE: LCD_DrawLine:uRow <- $r7
	@DEBUG_VALUE: LCD_DrawLine:incx <- $r9
	@DEBUG_VALUE: LCD_DrawRectangle:y1 <- $r5
	@DEBUG_VALUE: LCD_DrawRectangle:x2 <- [DW_OP_plus_uconst 4] [$sp+0]
	@DEBUG_VALUE: LCD_DrawLine:x2 <- [DW_OP_plus_uconst 4] [$sp+0]
	@DEBUG_VALUE: LCD_DrawRectangle:y2 <- [DW_OP_plus_uconst 16] [$sp+0]
	@DEBUG_VALUE: LCD_DrawRectangle:x1 <- $r8
	@DEBUG_VALUE: LCD_DrawLine:incy <- 0
	@DEBUG_VALUE: LCD_DrawLine:delta_y <- 0
	@DEBUG_VALUE: LCD_DrawLine:x1 <- $r8
	@DEBUG_VALUE: LCD_DrawLine:yerr <- 0
	@DEBUG_VALUE: LCD_DrawLine:xerr <- [DW_OP_LLVM_arg 0, DW_OP_LLVM_arg 1, DW_OP_plus, DW_OP_stack_value] $r4, $r10
	@DEBUG_VALUE: LCD_DrawLine:yerr <- 0
	.loc	4 594 12 is_stmt 1              @ ../User/BSP/lcd/lcd.c:594:12
	cmp	r4, #0
	ite	eq
	addeq	r4, r10
.Ltmp506:
	@DEBUG_VALUE: LCD_DrawLine:xerr <- $r4
	addne	r7, r9
.Ltmp507:
	@DEBUG_VALUE: LCD_DrawLine:uRow <- $r7
	.loc	4 589 36                        @ ../User/BSP/lcd/lcd.c:589:36
	adds	r6, #1
.Ltmp508:
	@DEBUG_VALUE: LCD_DrawLine:t <- $r6
	.loc	4 589 5 is_stmt 0               @ ../User/BSP/lcd/lcd.c:589:5
	ldr	r1, [sp, #24]                   @ 4-byte Reload
.Ltmp509:
	.loc	4 589 16                        @ ../User/BSP/lcd/lcd.c:589:16
	uxth	r0, r6
.Ltmp510:
	.loc	4 589 5                         @ ../User/BSP/lcd/lcd.c:589:5
	cmp	r1, r0
	blo	.LBB24_5
.Ltmp511:
.LBB24_2:                               @ =>This Inner Loop Header: Depth=1
	@DEBUG_VALUE: LCD_DrawLine:incx <- $r9
	@DEBUG_VALUE: LCD_DrawRectangle:y1 <- $r5
	@DEBUG_VALUE: LCD_DrawRectangle:x2 <- [DW_OP_plus_uconst 4] [$sp+0]
	@DEBUG_VALUE: LCD_DrawLine:x2 <- [DW_OP_plus_uconst 4] [$sp+0]
	@DEBUG_VALUE: LCD_DrawRectangle:y2 <- [DW_OP_plus_uconst 16] [$sp+0]
	@DEBUG_VALUE: LCD_DrawRectangle:x1 <- $r8
	@DEBUG_VALUE: LCD_DrawLine:incy <- 0
	@DEBUG_VALUE: LCD_DrawLine:delta_y <- 0
	@DEBUG_VALUE: LCD_DrawLine:x1 <- $r8
	@DEBUG_VALUE: LCD_DrawLine:yerr <- 0
	@DEBUG_VALUE: LCD_DrawLine:uRow <- $r7
	@DEBUG_VALUE: LCD_DrawLine:t <- $r6
	@DEBUG_VALUE: LCD_DrawLine:xerr <- $r4
	@DEBUG_VALUE: LCD_DrawLine:yerr <- 0
	.loc	4 591 23 is_stmt 1              @ ../User/BSP/lcd/lcd.c:591:23
	uxth	r0, r7
.Ltmp512:
	@DEBUG_VALUE: LCD_DrawPoint:y <- $r5
	@DEBUG_VALUE: LCD_DrawPoint:x <- $r7
	.loc	4 232 10                        @ ../User/BSP/lcd/lcd.c:232:10
	uxth	r1, r2
	.loc	4 232 26 is_stmt 0              @ ../User/BSP/lcd/lcd.c:232:26
	cmp	r1, r0
	bls	.LBB24_1
.Ltmp513:
@ %bb.3:                                @   in Loop: Header=BB24_2 Depth=1
	@DEBUG_VALUE: LCD_DrawPoint:x <- $r7
	@DEBUG_VALUE: LCD_DrawPoint:y <- $r5
	@DEBUG_VALUE: LCD_DrawLine:xerr <- $r4
	@DEBUG_VALUE: LCD_DrawLine:t <- $r6
	@DEBUG_VALUE: LCD_DrawLine:uRow <- $r7
	@DEBUG_VALUE: LCD_DrawLine:incx <- $r9
	@DEBUG_VALUE: LCD_DrawRectangle:y1 <- $r5
	@DEBUG_VALUE: LCD_DrawRectangle:x2 <- [DW_OP_plus_uconst 4] [$sp+0]
	@DEBUG_VALUE: LCD_DrawLine:x2 <- [DW_OP_plus_uconst 4] [$sp+0]
	@DEBUG_VALUE: LCD_DrawRectangle:y2 <- [DW_OP_plus_uconst 16] [$sp+0]
	@DEBUG_VALUE: LCD_DrawRectangle:x1 <- $r8
	@DEBUG_VALUE: LCD_DrawLine:incy <- 0
	@DEBUG_VALUE: LCD_DrawLine:delta_y <- 0
	@DEBUG_VALUE: LCD_DrawLine:x1 <- $r8
	@DEBUG_VALUE: LCD_DrawLine:yerr <- 0
	.loc	4 0 26                          @ ../User/BSP/lcd/lcd.c:0:26
	uxth	r1, r3
	.loc	4 232 26                        @ ../User/BSP/lcd/lcd.c:232:26
	cmp	r1, r5
	bls	.LBB24_1
.Ltmp514:
@ %bb.4:                                @   in Loop: Header=BB24_2 Depth=1
	@DEBUG_VALUE: LCD_DrawPoint:x <- $r7
	@DEBUG_VALUE: LCD_DrawPoint:y <- $r5
	@DEBUG_VALUE: LCD_DrawLine:xerr <- $r4
	@DEBUG_VALUE: LCD_DrawLine:t <- $r6
	@DEBUG_VALUE: LCD_DrawLine:uRow <- $r7
	@DEBUG_VALUE: LCD_DrawLine:incx <- $r9
	@DEBUG_VALUE: LCD_DrawRectangle:y1 <- $r5
	@DEBUG_VALUE: LCD_DrawRectangle:x2 <- [DW_OP_plus_uconst 4] [$sp+0]
	@DEBUG_VALUE: LCD_DrawLine:x2 <- [DW_OP_plus_uconst 4] [$sp+0]
	@DEBUG_VALUE: LCD_DrawRectangle:y2 <- [DW_OP_plus_uconst 16] [$sp+0]
	@DEBUG_VALUE: LCD_DrawRectangle:x1 <- $r8
	@DEBUG_VALUE: LCD_DrawLine:incy <- 0
	@DEBUG_VALUE: LCD_DrawLine:delta_y <- 0
	@DEBUG_VALUE: LCD_DrawLine:x1 <- $r8
	@DEBUG_VALUE: LCD_DrawLine:yerr <- 0
	.loc	4 234 5 is_stmt 1               @ ../User/BSP/lcd/lcd.c:234:5
	mov	r1, r5
	bl	LCD_SetCursor
.Ltmp515:
	.loc	4 0 5 is_stmt 0                 @ ../User/BSP/lcd/lcd.c:0:5
	movw	r3, :lower16:lcddev
	movt	r3, :upper16:lcddev
.Ltmp516:
	.loc	4 64 27 is_stmt 1               @ ../User/BSP/lcd/lcd.c:64:27
	ldrh	r0, [r3, #8]
	movs	r1, #126
	movt	r1, #27648
	.loc	4 64 18 is_stmt 0               @ ../User/BSP/lcd/lcd.c:64:18
	strh	r0, [r1]
.Ltmp517:
	.loc	4 236 20 is_stmt 1              @ ../User/BSP/lcd/lcd.c:236:20
	movw	r0, :lower16:POINT_COLOR
	movt	r0, :upper16:POINT_COLOR
	ldr	r0, [r0]
	.loc	4 236 18 is_stmt 0              @ ../User/BSP/lcd/lcd.c:236:18
	strh	r0, [r1, #2]
.Ltmp518:
	.loc	4 232 20 is_stmt 1              @ ../User/BSP/lcd/lcd.c:232:20
	ldrh	r2, [r3]
	ldrh	r3, [r3, #2]
	b	.LBB24_1
.Ltmp519:
.LBB24_5:
	@DEBUG_VALUE: LCD_DrawRectangle:y1 <- $r5
	@DEBUG_VALUE: LCD_DrawRectangle:x2 <- [DW_OP_plus_uconst 4] [$sp+0]
	@DEBUG_VALUE: LCD_DrawRectangle:y2 <- [DW_OP_plus_uconst 16] [$sp+0]
	@DEBUG_VALUE: LCD_DrawRectangle:x1 <- $r8
	@DEBUG_VALUE: LCD_DrawLine:uCol <- $r5
	@DEBUG_VALUE: LCD_DrawLine:x1 <- $r8
	@DEBUG_VALUE: LCD_DrawLine:y1 <- $r5
	@DEBUG_VALUE: LCD_DrawLine:x2 <- $r8
	@DEBUG_VALUE: LCD_DrawLine:y2 <- [DW_OP_plus_uconst 16] [$sp+0]
	@DEBUG_VALUE: LCD_DrawLine:xerr <- 0
	@DEBUG_VALUE: LCD_DrawLine:yerr <- 0
	@DEBUG_VALUE: LCD_DrawLine:delta_x <- 0
	.loc	4 0 20 is_stmt 0                @ ../User/BSP/lcd/lcd.c:0:20
	ldr	r1, [sp, #16]                   @ 4-byte Reload
	@DEBUG_VALUE: LCD_DrawLine:y2 <- [DW_OP_plus_uconst 16] [$sp+0]
	movs	r4, #0
.Ltmp520:
	@DEBUG_VALUE: LCD_DrawLine:uCol <- undef
	@DEBUG_VALUE: LCD_DrawLine:uRow <- $r8
	@DEBUG_VALUE: LCD_DrawLine:yerr <- 0
	@DEBUG_VALUE: LCD_DrawLine:xerr <- 0
	.loc	4 578 18 is_stmt 1              @ ../User/BSP/lcd/lcd.c:578:18
	subs	r0, r1, r5
.Ltmp521:
	@DEBUG_VALUE: LCD_DrawLine:uCol <- $r5
	@DEBUG_VALUE: LCD_DrawLine:incx <- 0
	@DEBUG_VALUE: LCD_DrawLine:uRow <- $r8
	@DEBUG_VALUE: LCD_DrawLine:delta_y <- $r0
	.loc	4 584 8                         @ ../User/BSP/lcd/lcd.c:584:8
	subs.w	r11, r1, r5
	it	ne
	movne.w	r11, #-1
	cmp	r0, #0
	mov	r1, r0
	it	mi
	rsbmi	r1, r0, #0
	cmp	r0, #1
	add.w	r0, r1, #1
.Ltmp522:
	.loc	4 0 8 is_stmt 0                 @ ../User/BSP/lcd/lcd.c:0:8
	mov	r7, r5
	mov.w	r6, #0
	.loc	4 584 8                         @ ../User/BSP/lcd/lcd.c:584:8
	it	ge
	movge.w	r11, #1
.Ltmp523:
	@DEBUG_VALUE: LCD_DrawLine:distance <- $r1
	@DEBUG_VALUE: LCD_DrawLine:t <- 0
	@DEBUG_VALUE: LCD_DrawLine:incy <- $r11
	@DEBUG_VALUE: LCD_DrawLine:delta_y <- $r1
	.loc	4 0 8                           @ ../User/BSP/lcd/lcd.c:0:8
	str	r1, [sp, #12]                   @ 4-byte Spill
.Ltmp524:
	@DEBUG_VALUE: LCD_DrawLine:distance <- [DW_OP_plus_uconst 12] [$sp+0]
	@DEBUG_VALUE: LCD_DrawLine:distance <- [DW_OP_plus_uconst 12] [$sp+0]
	@DEBUG_VALUE: LCD_DrawLine:delta_y <- [DW_OP_plus_uconst 12] [$sp+0]
	str	r0, [sp, #20]                   @ 4-byte Spill
	b	.LBB24_7
.Ltmp525:
	.p2align	2
.LBB24_6:                               @   in Loop: Header=BB24_7 Depth=1
	@DEBUG_VALUE: LCD_DrawLine:t <- $r6
	@DEBUG_VALUE: LCD_DrawLine:uCol <- $r7
	@DEBUG_VALUE: LCD_DrawLine:yerr <- $r4
	@DEBUG_VALUE: LCD_DrawLine:delta_y <- [DW_OP_plus_uconst 12] [$sp+0]
	@DEBUG_VALUE: LCD_DrawLine:distance <- [DW_OP_plus_uconst 12] [$sp+0]
	@DEBUG_VALUE: LCD_DrawLine:incy <- $r11
	@DEBUG_VALUE: LCD_DrawLine:incx <- 0
	@DEBUG_VALUE: LCD_DrawLine:uRow <- $r8
	@DEBUG_VALUE: LCD_DrawLine:delta_x <- 0
	@DEBUG_VALUE: LCD_DrawLine:xerr <- 0
	@DEBUG_VALUE: LCD_DrawLine:y2 <- [DW_OP_plus_uconst 16] [$sp+0]
	@DEBUG_VALUE: LCD_DrawLine:x2 <- $r8
	@DEBUG_VALUE: LCD_DrawLine:y1 <- $r5
	@DEBUG_VALUE: LCD_DrawLine:x1 <- $r8
	@DEBUG_VALUE: LCD_DrawRectangle:y1 <- $r5
	@DEBUG_VALUE: LCD_DrawRectangle:x2 <- [DW_OP_plus_uconst 4] [$sp+0]
	@DEBUG_VALUE: LCD_DrawRectangle:y2 <- [DW_OP_plus_uconst 16] [$sp+0]
	@DEBUG_VALUE: LCD_DrawRectangle:x1 <- $r8
	@DEBUG_VALUE: LCD_DrawLine:xerr <- 0
	@DEBUG_VALUE: LCD_DrawLine:yerr <- [DW_OP_LLVM_arg 0, DW_OP_LLVM_arg 1, DW_OP_plus_uconst 12, DW_OP_deref, DW_OP_plus, DW_OP_stack_value] $r4, $sp
	@DEBUG_VALUE: LCD_DrawLine:uRow <- $r8
	.loc	4 599 12 is_stmt 1              @ ../User/BSP/lcd/lcd.c:599:12
	cmp	r4, #0
	ldr	r0, [sp, #12]                   @ 4-byte Reload
.Ltmp526:
	@DEBUG_VALUE: LCD_DrawLine:yerr <- [DW_OP_LLVM_arg 0, DW_OP_LLVM_arg 1, DW_OP_plus, DW_OP_stack_value] $r4, $r0
	ite	eq
	addeq	r4, r0
.Ltmp527:
	@DEBUG_VALUE: LCD_DrawLine:yerr <- $r4
	addne	r7, r11
.Ltmp528:
	@DEBUG_VALUE: LCD_DrawLine:uCol <- $r7
	.loc	4 589 36                        @ ../User/BSP/lcd/lcd.c:589:36
	adds	r6, #1
.Ltmp529:
	@DEBUG_VALUE: LCD_DrawLine:t <- $r6
	.loc	4 589 5 is_stmt 0               @ ../User/BSP/lcd/lcd.c:589:5
	ldr	r1, [sp, #20]                   @ 4-byte Reload
.Ltmp530:
	.loc	4 589 16                        @ ../User/BSP/lcd/lcd.c:589:16
	uxth	r0, r6
.Ltmp531:
	.loc	4 589 5                         @ ../User/BSP/lcd/lcd.c:589:5
	cmp	r1, r0
	blo	.LBB24_10
.Ltmp532:
.LBB24_7:                               @ =>This Inner Loop Header: Depth=1
	@DEBUG_VALUE: LCD_DrawLine:delta_y <- [DW_OP_plus_uconst 12] [$sp+0]
	@DEBUG_VALUE: LCD_DrawLine:distance <- [DW_OP_plus_uconst 12] [$sp+0]
	@DEBUG_VALUE: LCD_DrawLine:incy <- $r11
	@DEBUG_VALUE: LCD_DrawLine:incx <- 0
	@DEBUG_VALUE: LCD_DrawLine:uRow <- $r8
	@DEBUG_VALUE: LCD_DrawLine:delta_x <- 0
	@DEBUG_VALUE: LCD_DrawLine:xerr <- 0
	@DEBUG_VALUE: LCD_DrawLine:y2 <- [DW_OP_plus_uconst 16] [$sp+0]
	@DEBUG_VALUE: LCD_DrawLine:x2 <- $r8
	@DEBUG_VALUE: LCD_DrawLine:y1 <- $r5
	@DEBUG_VALUE: LCD_DrawLine:x1 <- $r8
	@DEBUG_VALUE: LCD_DrawRectangle:y1 <- $r5
	@DEBUG_VALUE: LCD_DrawRectangle:x2 <- [DW_OP_plus_uconst 4] [$sp+0]
	@DEBUG_VALUE: LCD_DrawRectangle:y2 <- [DW_OP_plus_uconst 16] [$sp+0]
	@DEBUG_VALUE: LCD_DrawRectangle:x1 <- $r8
	@DEBUG_VALUE: LCD_DrawLine:xerr <- 0
	@DEBUG_VALUE: LCD_DrawLine:yerr <- $r4
	@DEBUG_VALUE: LCD_DrawLine:uRow <- $r8
	@DEBUG_VALUE: LCD_DrawLine:uCol <- $r7
	@DEBUG_VALUE: LCD_DrawLine:t <- $r6
	@DEBUG_VALUE: LCD_DrawPoint:y <- $r7
	@DEBUG_VALUE: LCD_DrawPoint:x <- $r8
	.loc	4 232 10 is_stmt 1              @ ../User/BSP/lcd/lcd.c:232:10
	uxth	r0, r2
	.loc	4 232 26 is_stmt 0              @ ../User/BSP/lcd/lcd.c:232:26
	cmp	r0, r8
	bls	.LBB24_6
.Ltmp533:
@ %bb.8:                                @   in Loop: Header=BB24_7 Depth=1
	@DEBUG_VALUE: LCD_DrawPoint:x <- $r8
	@DEBUG_VALUE: LCD_DrawPoint:y <- $r7
	@DEBUG_VALUE: LCD_DrawLine:t <- $r6
	@DEBUG_VALUE: LCD_DrawLine:uCol <- $r7
	@DEBUG_VALUE: LCD_DrawLine:yerr <- $r4
	@DEBUG_VALUE: LCD_DrawLine:delta_y <- [DW_OP_plus_uconst 12] [$sp+0]
	@DEBUG_VALUE: LCD_DrawLine:distance <- [DW_OP_plus_uconst 12] [$sp+0]
	@DEBUG_VALUE: LCD_DrawLine:incy <- $r11
	@DEBUG_VALUE: LCD_DrawLine:incx <- 0
	@DEBUG_VALUE: LCD_DrawLine:uRow <- $r8
	@DEBUG_VALUE: LCD_DrawLine:delta_x <- 0
	@DEBUG_VALUE: LCD_DrawLine:xerr <- 0
	@DEBUG_VALUE: LCD_DrawLine:y2 <- [DW_OP_plus_uconst 16] [$sp+0]
	@DEBUG_VALUE: LCD_DrawLine:x2 <- $r8
	@DEBUG_VALUE: LCD_DrawLine:y1 <- $r5
	@DEBUG_VALUE: LCD_DrawLine:x1 <- $r8
	@DEBUG_VALUE: LCD_DrawRectangle:y1 <- $r5
	@DEBUG_VALUE: LCD_DrawRectangle:x2 <- [DW_OP_plus_uconst 4] [$sp+0]
	@DEBUG_VALUE: LCD_DrawRectangle:y2 <- [DW_OP_plus_uconst 16] [$sp+0]
	@DEBUG_VALUE: LCD_DrawRectangle:x1 <- $r8
	.loc	4 0 26                          @ ../User/BSP/lcd/lcd.c:0:26
	uxth	r1, r7
	uxth	r0, r3
	.loc	4 232 26                        @ ../User/BSP/lcd/lcd.c:232:26
	cmp	r0, r1
	bls	.LBB24_6
.Ltmp534:
@ %bb.9:                                @   in Loop: Header=BB24_7 Depth=1
	@DEBUG_VALUE: LCD_DrawPoint:x <- $r8
	@DEBUG_VALUE: LCD_DrawPoint:y <- $r7
	@DEBUG_VALUE: LCD_DrawLine:t <- $r6
	@DEBUG_VALUE: LCD_DrawLine:uCol <- $r7
	@DEBUG_VALUE: LCD_DrawLine:yerr <- $r4
	@DEBUG_VALUE: LCD_DrawLine:delta_y <- [DW_OP_plus_uconst 12] [$sp+0]
	@DEBUG_VALUE: LCD_DrawLine:distance <- [DW_OP_plus_uconst 12] [$sp+0]
	@DEBUG_VALUE: LCD_DrawLine:incy <- $r11
	@DEBUG_VALUE: LCD_DrawLine:incx <- 0
	@DEBUG_VALUE: LCD_DrawLine:uRow <- $r8
	@DEBUG_VALUE: LCD_DrawLine:delta_x <- 0
	@DEBUG_VALUE: LCD_DrawLine:xerr <- 0
	@DEBUG_VALUE: LCD_DrawLine:y2 <- [DW_OP_plus_uconst 16] [$sp+0]
	@DEBUG_VALUE: LCD_DrawLine:x2 <- $r8
	@DEBUG_VALUE: LCD_DrawLine:y1 <- $r5
	@DEBUG_VALUE: LCD_DrawLine:x1 <- $r8
	@DEBUG_VALUE: LCD_DrawRectangle:y1 <- $r5
	@DEBUG_VALUE: LCD_DrawRectangle:x2 <- [DW_OP_plus_uconst 4] [$sp+0]
	@DEBUG_VALUE: LCD_DrawRectangle:y2 <- [DW_OP_plus_uconst 16] [$sp+0]
	@DEBUG_VALUE: LCD_DrawRectangle:x1 <- $r8
	.loc	4 234 5 is_stmt 1               @ ../User/BSP/lcd/lcd.c:234:5
	mov	r0, r8
	bl	LCD_SetCursor
.Ltmp535:
	.loc	4 0 5 is_stmt 0                 @ ../User/BSP/lcd/lcd.c:0:5
	movw	r3, :lower16:lcddev
	movt	r3, :upper16:lcddev
.Ltmp536:
	.loc	4 64 27 is_stmt 1               @ ../User/BSP/lcd/lcd.c:64:27
	ldrh	r0, [r3, #8]
	movs	r1, #126
	movt	r1, #27648
	.loc	4 64 18 is_stmt 0               @ ../User/BSP/lcd/lcd.c:64:18
	strh	r0, [r1]
.Ltmp537:
	.loc	4 236 20 is_stmt 1              @ ../User/BSP/lcd/lcd.c:236:20
	movw	r0, :lower16:POINT_COLOR
	movt	r0, :upper16:POINT_COLOR
	ldr	r0, [r0]
	.loc	4 236 18 is_stmt 0              @ ../User/BSP/lcd/lcd.c:236:18
	strh	r0, [r1, #2]
.Ltmp538:
	.loc	4 232 20 is_stmt 1              @ ../User/BSP/lcd/lcd.c:232:20
	ldrh	r2, [r3]
	ldrh	r3, [r3, #2]
	b	.LBB24_6
.Ltmp539:
.LBB24_10:
	@DEBUG_VALUE: LCD_DrawLine:t <- $r6
	@DEBUG_VALUE: LCD_DrawLine:uCol <- $r7
	@DEBUG_VALUE: LCD_DrawLine:yerr <- $r4
	@DEBUG_VALUE: LCD_DrawLine:delta_y <- [DW_OP_plus_uconst 12] [$sp+0]
	@DEBUG_VALUE: LCD_DrawLine:distance <- [DW_OP_plus_uconst 12] [$sp+0]
	@DEBUG_VALUE: LCD_DrawLine:incy <- $r11
	@DEBUG_VALUE: LCD_DrawLine:incx <- 0
	@DEBUG_VALUE: LCD_DrawLine:uRow <- $r8
	@DEBUG_VALUE: LCD_DrawLine:delta_x <- 0
	@DEBUG_VALUE: LCD_DrawLine:xerr <- 0
	@DEBUG_VALUE: LCD_DrawLine:y2 <- [DW_OP_plus_uconst 16] [$sp+0]
	@DEBUG_VALUE: LCD_DrawLine:x2 <- $r8
	@DEBUG_VALUE: LCD_DrawLine:y1 <- $r5
	@DEBUG_VALUE: LCD_DrawLine:x1 <- $r8
	@DEBUG_VALUE: LCD_DrawRectangle:y1 <- $r5
	@DEBUG_VALUE: LCD_DrawRectangle:x2 <- [DW_OP_plus_uconst 4] [$sp+0]
	@DEBUG_VALUE: LCD_DrawRectangle:y2 <- [DW_OP_plus_uconst 16] [$sp+0]
	@DEBUG_VALUE: LCD_DrawRectangle:x1 <- $r8
	.loc	4 0 20 is_stmt 0                @ ../User/BSP/lcd/lcd.c:0:20
	str.w	r11, [sp, #8]                   @ 4-byte Spill
	@DEBUG_VALUE: LCD_DrawLine:incy <- [DW_OP_plus_uconst 8] [$sp+0]
	ldr.w	r11, [sp, #4]                   @ 4-byte Reload
	ldr	r7, [sp, #16]                   @ 4-byte Reload
	movs	r4, #0
	movs	r6, #0
	b	.LBB24_12
.Ltmp540:
	.p2align	2
.LBB24_11:                              @   in Loop: Header=BB24_12 Depth=1
	@DEBUG_VALUE: LCD_DrawLine:uCol <- [DW_OP_plus_uconst 16, DW_OP_deref_size 4, DW_OP_LLVM_convert 16 7, DW_OP_LLVM_convert 32 7, DW_OP_stack_value] $sp
	@DEBUG_VALUE: LCD_DrawLine:t <- $r6
	@DEBUG_VALUE: LCD_DrawLine:xerr <- $r4
	@DEBUG_VALUE: LCD_DrawLine:yerr <- 0
	@DEBUG_VALUE: LCD_DrawLine:uRow <- $r8
	@DEBUG_VALUE: LCD_DrawRectangle:y1 <- $r5
	@DEBUG_VALUE: LCD_DrawRectangle:x2 <- [DW_OP_plus_uconst 4] [$sp+0]
	@DEBUG_VALUE: LCD_DrawRectangle:y2 <- [DW_OP_plus_uconst 16] [$sp+0]
	@DEBUG_VALUE: LCD_DrawLine:yerr <- 0
	@DEBUG_VALUE: LCD_DrawLine:xerr <- [DW_OP_LLVM_arg 0, DW_OP_LLVM_arg 1, DW_OP_plus, DW_OP_stack_value] $r4, $r10
	.loc	4 594 12 is_stmt 1              @ ../User/BSP/lcd/lcd.c:594:12
	cmp	r4, #0
	ite	eq
	addeq	r4, r10
.Ltmp541:
	@DEBUG_VALUE: LCD_DrawLine:xerr <- $r4
	addne	r8, r9
.Ltmp542:
	@DEBUG_VALUE: LCD_DrawRectangle:x1 <- [DW_OP_LLVM_entry_value 1] $r0
	@DEBUG_VALUE: LCD_DrawLine:uRow <- $r8
	.loc	4 589 36                        @ ../User/BSP/lcd/lcd.c:589:36
	adds	r6, #1
.Ltmp543:
	@DEBUG_VALUE: LCD_DrawLine:t <- $r6
	.loc	4 589 5 is_stmt 0               @ ../User/BSP/lcd/lcd.c:589:5
	ldr	r1, [sp, #24]                   @ 4-byte Reload
.Ltmp544:
	.loc	4 589 16                        @ ../User/BSP/lcd/lcd.c:589:16
	uxth	r0, r6
.Ltmp545:
	.loc	4 589 5                         @ ../User/BSP/lcd/lcd.c:589:5
	cmp	r1, r0
	@DEBUG_VALUE: LCD_DrawLine:uCol <- [DW_OP_plus_uconst 16, DW_OP_deref_size 4, DW_OP_LLVM_convert 16 7, DW_OP_LLVM_convert 32 7, DW_OP_stack_value] $sp
	blo	.LBB24_15
.Ltmp546:
.LBB24_12:                              @ =>This Inner Loop Header: Depth=1
	@DEBUG_VALUE: LCD_DrawRectangle:y1 <- $r5
	@DEBUG_VALUE: LCD_DrawRectangle:x2 <- [DW_OP_plus_uconst 4] [$sp+0]
	@DEBUG_VALUE: LCD_DrawRectangle:y2 <- [DW_OP_plus_uconst 16] [$sp+0]
	@DEBUG_VALUE: LCD_DrawLine:uRow <- $r8
	@DEBUG_VALUE: LCD_DrawLine:yerr <- 0
	@DEBUG_VALUE: LCD_DrawLine:xerr <- $r4
	@DEBUG_VALUE: LCD_DrawLine:t <- $r6
	.loc	4 591 23 is_stmt 1              @ ../User/BSP/lcd/lcd.c:591:23
	uxth.w	r0, r8
.Ltmp547:
	@DEBUG_VALUE: LCD_DrawPoint:y <- [DW_OP_plus_uconst 16] [$sp+0]
	@DEBUG_VALUE: LCD_DrawPoint:x <- $r8
	.loc	4 232 10                        @ ../User/BSP/lcd/lcd.c:232:10
	uxth	r1, r2
	.loc	4 232 26 is_stmt 0              @ ../User/BSP/lcd/lcd.c:232:26
	cmp	r1, r0
.Ltmp548:
	@DEBUG_VALUE: LCD_DrawLine:uCol <- [DW_OP_plus_uconst 16, DW_OP_deref_size 4, DW_OP_LLVM_convert 16 7, DW_OP_LLVM_convert 32 7, DW_OP_stack_value] $sp
	bls	.LBB24_11
.Ltmp549:
@ %bb.13:                               @   in Loop: Header=BB24_12 Depth=1
	@DEBUG_VALUE: LCD_DrawLine:uCol <- [DW_OP_plus_uconst 16, DW_OP_deref_size 4, DW_OP_LLVM_convert 16 7, DW_OP_LLVM_convert 32 7, DW_OP_stack_value] $sp
	@DEBUG_VALUE: LCD_DrawPoint:x <- $r8
	@DEBUG_VALUE: LCD_DrawPoint:y <- [DW_OP_plus_uconst 16] [$sp+0]
	@DEBUG_VALUE: LCD_DrawLine:t <- $r6
	@DEBUG_VALUE: LCD_DrawLine:xerr <- $r4
	@DEBUG_VALUE: LCD_DrawLine:yerr <- 0
	@DEBUG_VALUE: LCD_DrawLine:uRow <- $r8
	@DEBUG_VALUE: LCD_DrawRectangle:y1 <- $r5
	@DEBUG_VALUE: LCD_DrawRectangle:x2 <- [DW_OP_plus_uconst 4] [$sp+0]
	@DEBUG_VALUE: LCD_DrawRectangle:y2 <- [DW_OP_plus_uconst 16] [$sp+0]
	.loc	4 0 26                          @ ../User/BSP/lcd/lcd.c:0:26
	uxth	r1, r3
	.loc	4 232 26                        @ ../User/BSP/lcd/lcd.c:232:26
	cmp	r1, r7
	bls	.LBB24_11
.Ltmp550:
@ %bb.14:                               @   in Loop: Header=BB24_12 Depth=1
	@DEBUG_VALUE: LCD_DrawLine:uCol <- [DW_OP_plus_uconst 16, DW_OP_deref_size 4, DW_OP_LLVM_convert 16 7, DW_OP_LLVM_convert 32 7, DW_OP_stack_value] $sp
	@DEBUG_VALUE: LCD_DrawPoint:x <- $r8
	@DEBUG_VALUE: LCD_DrawPoint:y <- [DW_OP_plus_uconst 16] [$sp+0]
	@DEBUG_VALUE: LCD_DrawLine:t <- $r6
	@DEBUG_VALUE: LCD_DrawLine:xerr <- $r4
	@DEBUG_VALUE: LCD_DrawLine:yerr <- 0
	@DEBUG_VALUE: LCD_DrawLine:uRow <- $r8
	@DEBUG_VALUE: LCD_DrawRectangle:y1 <- $r5
	@DEBUG_VALUE: LCD_DrawRectangle:x2 <- [DW_OP_plus_uconst 4] [$sp+0]
	@DEBUG_VALUE: LCD_DrawRectangle:y2 <- [DW_OP_plus_uconst 16] [$sp+0]
	.loc	4 234 5 is_stmt 1               @ ../User/BSP/lcd/lcd.c:234:5
	ldr	r1, [sp, #16]                   @ 4-byte Reload
	bl	LCD_SetCursor
.Ltmp551:
	.loc	4 0 5 is_stmt 0                 @ ../User/BSP/lcd/lcd.c:0:5
	movw	r3, :lower16:lcddev
	movt	r3, :upper16:lcddev
.Ltmp552:
	.loc	4 64 27 is_stmt 1               @ ../User/BSP/lcd/lcd.c:64:27
	ldrh	r0, [r3, #8]
	movs	r1, #126
	movt	r1, #27648
	.loc	4 64 18 is_stmt 0               @ ../User/BSP/lcd/lcd.c:64:18
	strh	r0, [r1]
.Ltmp553:
	.loc	4 236 20 is_stmt 1              @ ../User/BSP/lcd/lcd.c:236:20
	movw	r0, :lower16:POINT_COLOR
	movt	r0, :upper16:POINT_COLOR
	ldr	r0, [r0]
	.loc	4 236 18 is_stmt 0              @ ../User/BSP/lcd/lcd.c:236:18
	strh	r0, [r1, #2]
.Ltmp554:
	.loc	4 232 20 is_stmt 1              @ ../User/BSP/lcd/lcd.c:232:20
	ldrh	r2, [r3]
	ldrh	r3, [r3, #2]
	b	.LBB24_11
.Ltmp555:
.LBB24_15:
	@DEBUG_VALUE: LCD_DrawLine:uCol <- [DW_OP_plus_uconst 16, DW_OP_deref_size 4, DW_OP_LLVM_convert 16 7, DW_OP_LLVM_convert 32 7, DW_OP_stack_value] $sp
	@DEBUG_VALUE: LCD_DrawLine:t <- $r6
	@DEBUG_VALUE: LCD_DrawLine:xerr <- $r4
	@DEBUG_VALUE: LCD_DrawLine:yerr <- 0
	@DEBUG_VALUE: LCD_DrawLine:uRow <- $r8
	@DEBUG_VALUE: LCD_DrawRectangle:y1 <- $r5
	@DEBUG_VALUE: LCD_DrawRectangle:x2 <- [DW_OP_plus_uconst 4] [$sp+0]
	@DEBUG_VALUE: LCD_DrawRectangle:y2 <- [DW_OP_plus_uconst 16] [$sp+0]
	.loc	4 0 20 is_stmt 0                @ ../User/BSP/lcd/lcd.c:0:20
	ldr	r7, [sp, #12]                   @ 4-byte Reload
	movs	r4, #0
	movs	r6, #0
	b	.LBB24_17
.Ltmp556:
	.p2align	2
.LBB24_16:                              @   in Loop: Header=BB24_17 Depth=1
	@DEBUG_VALUE: LCD_DrawLine:uRow <- [DW_OP_LLVM_convert 16 7, DW_OP_LLVM_convert 32 7, DW_OP_stack_value] $r11
	@DEBUG_VALUE: LCD_DrawLine:t <- $r6
	@DEBUG_VALUE: LCD_DrawLine:xerr <- 0
	@DEBUG_VALUE: LCD_DrawLine:yerr <- $r4
	@DEBUG_VALUE: LCD_DrawLine:uCol <- $r5
	@DEBUG_VALUE: LCD_DrawRectangle:x2 <- [DW_OP_plus_uconst 4] [$sp+0]
	@DEBUG_VALUE: LCD_DrawRectangle:y2 <- [DW_OP_plus_uconst 16] [$sp+0]
	@DEBUG_VALUE: LCD_DrawLine:yerr <- [DW_OP_LLVM_arg 0, DW_OP_LLVM_arg 1, DW_OP_plus, DW_OP_stack_value] $r4, $r7
	@DEBUG_VALUE: LCD_DrawLine:xerr <- 0
	.loc	4 599 12 is_stmt 1              @ ../User/BSP/lcd/lcd.c:599:12
	cmp	r4, #0
	it	eq
	addeq	r4, r7
.Ltmp557:
	@DEBUG_VALUE: LCD_DrawLine:yerr <- $r4
	ldr	r0, [sp, #8]                    @ 4-byte Reload
	it	ne
	addne	r5, r0
.Ltmp558:
	@DEBUG_VALUE: LCD_DrawLine:uCol <- $r5
	.loc	4 589 36                        @ ../User/BSP/lcd/lcd.c:589:36
	adds	r6, #1
.Ltmp559:
	@DEBUG_VALUE: LCD_DrawLine:t <- $r6
	.loc	4 589 5 is_stmt 0               @ ../User/BSP/lcd/lcd.c:589:5
	ldr	r1, [sp, #20]                   @ 4-byte Reload
.Ltmp560:
	.loc	4 589 16                        @ ../User/BSP/lcd/lcd.c:589:16
	uxth	r0, r6
.Ltmp561:
	.loc	4 589 5                         @ ../User/BSP/lcd/lcd.c:589:5
	cmp	r1, r0
	@DEBUG_VALUE: LCD_DrawLine:uRow <- [DW_OP_LLVM_convert 16 7, DW_OP_LLVM_convert 32 7, DW_OP_stack_value] $r11
	blo	.LBB24_20
.Ltmp562:
.LBB24_17:                              @ =>This Inner Loop Header: Depth=1
	@DEBUG_VALUE: LCD_DrawRectangle:x2 <- [DW_OP_plus_uconst 4] [$sp+0]
	@DEBUG_VALUE: LCD_DrawRectangle:y2 <- [DW_OP_plus_uconst 16] [$sp+0]
	@DEBUG_VALUE: LCD_DrawLine:uCol <- $r5
	@DEBUG_VALUE: LCD_DrawLine:yerr <- $r4
	@DEBUG_VALUE: LCD_DrawLine:xerr <- 0
	@DEBUG_VALUE: LCD_DrawLine:t <- $r6
	@DEBUG_VALUE: LCD_DrawPoint:y <- $r5
	@DEBUG_VALUE: LCD_DrawPoint:x <- $r11
	.loc	4 232 10 is_stmt 1              @ ../User/BSP/lcd/lcd.c:232:10
	uxth	r0, r2
	.loc	4 232 26 is_stmt 0              @ ../User/BSP/lcd/lcd.c:232:26
	cmp	r0, r11
.Ltmp563:
	@DEBUG_VALUE: LCD_DrawLine:uRow <- [DW_OP_LLVM_convert 16 7, DW_OP_LLVM_convert 32 7, DW_OP_stack_value] $r11
	bls	.LBB24_16
.Ltmp564:
@ %bb.18:                               @   in Loop: Header=BB24_17 Depth=1
	@DEBUG_VALUE: LCD_DrawLine:uRow <- [DW_OP_LLVM_convert 16 7, DW_OP_LLVM_convert 32 7, DW_OP_stack_value] $r11
	@DEBUG_VALUE: LCD_DrawPoint:x <- $r11
	@DEBUG_VALUE: LCD_DrawPoint:y <- $r5
	@DEBUG_VALUE: LCD_DrawLine:t <- $r6
	@DEBUG_VALUE: LCD_DrawLine:xerr <- 0
	@DEBUG_VALUE: LCD_DrawLine:yerr <- $r4
	@DEBUG_VALUE: LCD_DrawLine:uCol <- $r5
	@DEBUG_VALUE: LCD_DrawRectangle:x2 <- [DW_OP_plus_uconst 4] [$sp+0]
	@DEBUG_VALUE: LCD_DrawRectangle:y2 <- [DW_OP_plus_uconst 16] [$sp+0]
	.loc	4 0 26                          @ ../User/BSP/lcd/lcd.c:0:26
	uxth	r1, r5
	uxth	r0, r3
	.loc	4 232 26                        @ ../User/BSP/lcd/lcd.c:232:26
	cmp	r0, r1
	bls	.LBB24_16
.Ltmp565:
@ %bb.19:                               @   in Loop: Header=BB24_17 Depth=1
	@DEBUG_VALUE: LCD_DrawLine:uRow <- [DW_OP_LLVM_convert 16 7, DW_OP_LLVM_convert 32 7, DW_OP_stack_value] $r11
	@DEBUG_VALUE: LCD_DrawPoint:x <- $r11
	@DEBUG_VALUE: LCD_DrawPoint:y <- $r5
	@DEBUG_VALUE: LCD_DrawLine:t <- $r6
	@DEBUG_VALUE: LCD_DrawLine:xerr <- 0
	@DEBUG_VALUE: LCD_DrawLine:yerr <- $r4
	@DEBUG_VALUE: LCD_DrawLine:uCol <- $r5
	@DEBUG_VALUE: LCD_DrawRectangle:x2 <- [DW_OP_plus_uconst 4] [$sp+0]
	@DEBUG_VALUE: LCD_DrawRectangle:y2 <- [DW_OP_plus_uconst 16] [$sp+0]
	.loc	4 234 5 is_stmt 1               @ ../User/BSP/lcd/lcd.c:234:5
	mov	r0, r11
	bl	LCD_SetCursor
.Ltmp566:
	.loc	4 0 5 is_stmt 0                 @ ../User/BSP/lcd/lcd.c:0:5
	movw	r3, :lower16:lcddev
	movt	r3, :upper16:lcddev
.Ltmp567:
	.loc	4 64 27 is_stmt 1               @ ../User/BSP/lcd/lcd.c:64:27
	ldrh	r0, [r3, #8]
	movs	r1, #126
	movt	r1, #27648
	.loc	4 64 18 is_stmt 0               @ ../User/BSP/lcd/lcd.c:64:18
	strh	r0, [r1]
.Ltmp568:
	.loc	4 236 20 is_stmt 1              @ ../User/BSP/lcd/lcd.c:236:20
	movw	r0, :lower16:POINT_COLOR
	movt	r0, :upper16:POINT_COLOR
	ldr	r0, [r0]
	.loc	4 236 18 is_stmt 0              @ ../User/BSP/lcd/lcd.c:236:18
	strh	r0, [r1, #2]
.Ltmp569:
	.loc	4 232 20 is_stmt 1              @ ../User/BSP/lcd/lcd.c:232:20
	ldrh	r2, [r3]
	ldrh	r3, [r3, #2]
	b	.LBB24_16
.Ltmp570:
.LBB24_20:
	@DEBUG_VALUE: LCD_DrawRectangle:x2 <- [DW_OP_plus_uconst 4] [$sp+0]
	@DEBUG_VALUE: LCD_DrawRectangle:y2 <- [DW_OP_plus_uconst 16] [$sp+0]
	.loc	4 613 1                         @ ../User/BSP/lcd/lcd.c:613:1
	add	sp, #28
	pop.w	{r4, r5, r6, r7, r8, r9, r10, r11, pc}
.Ltmp571:
.Lfunc_end24:
	.size	LCD_DrawRectangle, .Lfunc_end24-LCD_DrawRectangle
	.cfi_endproc
	.cantunwind
	.fnend
                                        @ -- End function
	.section	.text.LCD_Draw_Circle,"ax",%progbits
	.hidden	LCD_Draw_Circle                 @ -- Begin function LCD_Draw_Circle
	.globl	LCD_Draw_Circle
	.p2align	2
	.type	LCD_Draw_Circle,%function
	.code	16                              @ @LCD_Draw_Circle
	.thumb_func
LCD_Draw_Circle:
.Lfunc_begin25:
	.loc	4 616 0                         @ ../User/BSP/lcd/lcd.c:616:0
	.fnstart
	.cfi_startproc
@ %bb.0:
	@DEBUG_VALUE: LCD_Draw_Circle:x0 <- $r0
	@DEBUG_VALUE: LCD_Draw_Circle:y0 <- $r1
	@DEBUG_VALUE: LCD_Draw_Circle:r <- $r2
	.save	{r4, r5, r6, r7, r8, r9, r10, r11, lr}
	push.w	{r4, r5, r6, r7, r8, r9, r10, r11, lr}
	.cfi_def_cfa_offset 36
	.cfi_offset lr, -4
	.cfi_offset r11, -8
	.cfi_offset r10, -12
	.cfi_offset r9, -16
	.cfi_offset r8, -20
	.cfi_offset r7, -24
	.cfi_offset r6, -28
	.cfi_offset r5, -32
	.cfi_offset r4, -36
	.pad	#12
	sub	sp, #12
	.cfi_def_cfa_offset 48
	mov	r11, r1
.Ltmp572:
	@DEBUG_VALUE: LCD_Draw_Circle:y0 <- $r11
	@DEBUG_VALUE: LCD_Draw_Circle:y0 <- $r11
	.loc	4 232 20 prologue_end           @ ../User/BSP/lcd/lcd.c:232:20
	movw	r1, :lower16:lcddev
	str	r0, [sp, #8]                    @ 4-byte Spill
.Ltmp573:
	@DEBUG_VALUE: LCD_Draw_Circle:x0 <- [DW_OP_plus_uconst 8] [$sp+0]
	@DEBUG_VALUE: LCD_Draw_Circle:b <- $r4
	@DEBUG_VALUE: LCD_Draw_Circle:a <- 0
	@DEBUG_VALUE: LCD_Draw_Circle:x0 <- [DW_OP_plus_uconst 8] [$sp+0]
	.loc	4 0 20 is_stmt 0                @ ../User/BSP/lcd/lcd.c:0:20
	movs	r0, #3
	.loc	4 232 20                        @ ../User/BSP/lcd/lcd.c:232:20
	movt	r1, :upper16:lcddev
	mov	r4, r2
.Ltmp574:
	@DEBUG_VALUE: LCD_Draw_Circle:r <- $r4
	.loc	4 620 9 is_stmt 1               @ ../User/BSP/lcd/lcd.c:620:9
	sub.w	r6, r0, r2, lsl #1
.Ltmp575:
	@DEBUG_VALUE: LCD_Draw_Circle:di <- $r6
	.loc	4 232 20                        @ ../User/BSP/lcd/lcd.c:232:20
	ldrh	r0, [r1]
	ldrh	r2, [r1, #2]
	mov.w	r9, #-1
	mov.w	r8, #10
	b	.LBB25_2
.Ltmp576:
	.p2align	2
.LBB25_1:                               @   in Loop: Header=BB25_2 Depth=1
	@DEBUG_VALUE: LCD_Draw_Circle:di <- $r6
	@DEBUG_VALUE: LCD_Draw_Circle:x0 <- [DW_OP_plus_uconst 8] [$sp+0]
	@DEBUG_VALUE: LCD_Draw_Circle:b <- $r4
	@DEBUG_VALUE: LCD_Draw_Circle:a <- [DW_OP_plus_uconst 2, DW_OP_stack_value] undef
	.loc	4 633 12                        @ ../User/BSP/lcd/lcd.c:633:12
	mvns	r3, r6
	sub.w	r1, r8, r4, lsl #2
	add.w	r4, r4, r3, asr #31
.Ltmp577:
	@DEBUG_VALUE: LCD_Draw_Circle:r <- [DW_OP_LLVM_entry_value 1] $r2
	@DEBUG_VALUE: LCD_Draw_Circle:b <- $r4
	cmp	r6, #0
.Ltmp578:
	.loc	4 621 13                        @ ../User/BSP/lcd/lcd.c:621:13
	add.w	r3, r8, #4
.Ltmp579:
	.loc	4 633 12                        @ ../User/BSP/lcd/lcd.c:633:12
	it	pl
	addpl.w	r8, r1, #4
.Ltmp580:
	.loc	4 0 0 is_stmt 0                 @ ../User/BSP/lcd/lcd.c:0:0
	add	r6, r8
.Ltmp581:
	@DEBUG_VALUE: LCD_Draw_Circle:di <- $r6
	.loc	4 621 5 is_stmt 1               @ ../User/BSP/lcd/lcd.c:621:5
	cmp	r9, r4
	mov	r8, r3
	bge.w	.LBB25_27
.Ltmp582:
.LBB25_2:                               @ =>This Inner Loop Header: Depth=1
	@DEBUG_VALUE: LCD_Draw_Circle:di <- $r6
	@DEBUG_VALUE: LCD_Draw_Circle:x0 <- [DW_OP_plus_uconst 8] [$sp+0]
	@DEBUG_VALUE: LCD_Draw_Circle:a <- [DW_OP_plus_uconst 1, DW_OP_stack_value] $r9
	@DEBUG_VALUE: LCD_Draw_Circle:b <- $r4
	@DEBUG_VALUE: LCD_Draw_Circle:di <- $r6
	.loc	4 623 23                        @ ../User/BSP/lcd/lcd.c:623:23
	ldr	r1, [sp, #8]                    @ 4-byte Reload
	add.w	r9, r9, #1
.Ltmp583:
	add	r1, r9
	uxth	r7, r1
.Ltmp584:
	.loc	4 232 10                        @ ../User/BSP/lcd/lcd.c:232:10
	uxth	r1, r0
	.loc	4 232 26 is_stmt 0              @ ../User/BSP/lcd/lcd.c:232:26
	cmp	r1, r7
.Ltmp585:
	.loc	4 623 31 is_stmt 1              @ ../User/BSP/lcd/lcd.c:623:31
	sub.w	r1, r11, r4
.Ltmp586:
	@DEBUG_VALUE: LCD_DrawPoint:x <- undef
	.loc	4 232 26                        @ ../User/BSP/lcd/lcd.c:232:26
	str	r1, [sp, #4]                    @ 4-byte Spill
.Ltmp587:
	@DEBUG_VALUE: LCD_DrawPoint:y <- $r1
	bls	.LBB25_5
.Ltmp588:
@ %bb.3:                                @   in Loop: Header=BB25_2 Depth=1
	@DEBUG_VALUE: LCD_DrawPoint:y <- $r1
	@DEBUG_VALUE: LCD_Draw_Circle:di <- $r6
	@DEBUG_VALUE: LCD_Draw_Circle:x0 <- [DW_OP_plus_uconst 8] [$sp+0]
	@DEBUG_VALUE: LCD_Draw_Circle:b <- $r4
	.loc	4 0 26 is_stmt 0                @ ../User/BSP/lcd/lcd.c:0:26
	uxth	r1, r1
.Ltmp589:
	uxth	r3, r2
	.loc	4 232 26                        @ ../User/BSP/lcd/lcd.c:232:26
	cmp	r3, r1
	bls	.LBB25_5
.Ltmp590:
@ %bb.4:                                @   in Loop: Header=BB25_2 Depth=1
	@DEBUG_VALUE: LCD_Draw_Circle:di <- $r6
	@DEBUG_VALUE: LCD_Draw_Circle:x0 <- [DW_OP_plus_uconst 8] [$sp+0]
	@DEBUG_VALUE: LCD_Draw_Circle:b <- $r4
	.loc	4 234 5 is_stmt 1               @ ../User/BSP/lcd/lcd.c:234:5
	mov	r0, r7
	bl	LCD_SetCursor
.Ltmp591:
	.loc	4 0 5 is_stmt 0                 @ ../User/BSP/lcd/lcd.c:0:5
	movw	r2, :lower16:lcddev
	movt	r2, :upper16:lcddev
.Ltmp592:
	.loc	4 64 27 is_stmt 1               @ ../User/BSP/lcd/lcd.c:64:27
	ldrh	r0, [r2, #8]
	movs	r1, #126
	movt	r1, #27648
	.loc	4 64 18 is_stmt 0               @ ../User/BSP/lcd/lcd.c:64:18
	strh	r0, [r1]
.Ltmp593:
	.loc	4 236 20 is_stmt 1              @ ../User/BSP/lcd/lcd.c:236:20
	movw	r0, :lower16:POINT_COLOR
	movt	r0, :upper16:POINT_COLOR
	ldr	r0, [r0]
	.loc	4 236 18 is_stmt 0              @ ../User/BSP/lcd/lcd.c:236:18
	strh	r0, [r1, #2]
.Ltmp594:
	.loc	4 232 20 is_stmt 1              @ ../User/BSP/lcd/lcd.c:232:20
	ldrh	r0, [r2]
	ldrh	r2, [r2, #2]
.Ltmp595:
.LBB25_5:                               @   in Loop: Header=BB25_2 Depth=1
	@DEBUG_VALUE: LCD_Draw_Circle:di <- $r6
	@DEBUG_VALUE: LCD_Draw_Circle:x0 <- [DW_OP_plus_uconst 8] [$sp+0]
	@DEBUG_VALUE: LCD_Draw_Circle:b <- $r4
	.loc	4 624 23                        @ ../User/BSP/lcd/lcd.c:624:23
	ldr	r1, [sp, #8]                    @ 4-byte Reload
	add	r1, r4
	uxth	r5, r1
.Ltmp596:
	.loc	4 232 10                        @ ../User/BSP/lcd/lcd.c:232:10
	uxth	r1, r0
	.loc	4 232 26 is_stmt 0              @ ../User/BSP/lcd/lcd.c:232:26
	cmp	r1, r5
.Ltmp597:
	.loc	4 624 31 is_stmt 1              @ ../User/BSP/lcd/lcd.c:624:31
	sub.w	r1, r11, r9
.Ltmp598:
	@DEBUG_VALUE: LCD_DrawPoint:x <- undef
	.loc	4 232 26                        @ ../User/BSP/lcd/lcd.c:232:26
	str	r1, [sp]                        @ 4-byte Spill
.Ltmp599:
	@DEBUG_VALUE: LCD_DrawPoint:y <- $r1
	bls	.LBB25_8
.Ltmp600:
@ %bb.6:                                @   in Loop: Header=BB25_2 Depth=1
	@DEBUG_VALUE: LCD_DrawPoint:y <- $r1
	@DEBUG_VALUE: LCD_Draw_Circle:di <- $r6
	@DEBUG_VALUE: LCD_Draw_Circle:x0 <- [DW_OP_plus_uconst 8] [$sp+0]
	@DEBUG_VALUE: LCD_Draw_Circle:b <- $r4
	.loc	4 0 26 is_stmt 0                @ ../User/BSP/lcd/lcd.c:0:26
	uxth	r1, r1
.Ltmp601:
	uxth	r3, r2
	.loc	4 232 26                        @ ../User/BSP/lcd/lcd.c:232:26
	cmp	r3, r1
	bls	.LBB25_8
.Ltmp602:
@ %bb.7:                                @   in Loop: Header=BB25_2 Depth=1
	@DEBUG_VALUE: LCD_Draw_Circle:di <- $r6
	@DEBUG_VALUE: LCD_Draw_Circle:x0 <- [DW_OP_plus_uconst 8] [$sp+0]
	@DEBUG_VALUE: LCD_Draw_Circle:b <- $r4
	.loc	4 234 5 is_stmt 1               @ ../User/BSP/lcd/lcd.c:234:5
	mov	r0, r5
	bl	LCD_SetCursor
.Ltmp603:
	.loc	4 0 5 is_stmt 0                 @ ../User/BSP/lcd/lcd.c:0:5
	movw	r2, :lower16:lcddev
	movt	r2, :upper16:lcddev
.Ltmp604:
	.loc	4 64 27 is_stmt 1               @ ../User/BSP/lcd/lcd.c:64:27
	ldrh	r0, [r2, #8]
	movs	r1, #126
	movt	r1, #27648
	.loc	4 64 18 is_stmt 0               @ ../User/BSP/lcd/lcd.c:64:18
	strh	r0, [r1]
.Ltmp605:
	.loc	4 236 20 is_stmt 1              @ ../User/BSP/lcd/lcd.c:236:20
	movw	r0, :lower16:POINT_COLOR
	movt	r0, :upper16:POINT_COLOR
	ldr	r0, [r0]
	.loc	4 236 18 is_stmt 0              @ ../User/BSP/lcd/lcd.c:236:18
	strh	r0, [r1, #2]
.Ltmp606:
	.loc	4 232 20 is_stmt 1              @ ../User/BSP/lcd/lcd.c:232:20
	ldrh	r0, [r2]
	ldrh	r2, [r2, #2]
.Ltmp607:
.LBB25_8:                               @   in Loop: Header=BB25_2 Depth=1
	@DEBUG_VALUE: LCD_Draw_Circle:di <- $r6
	@DEBUG_VALUE: LCD_Draw_Circle:x0 <- [DW_OP_plus_uconst 8] [$sp+0]
	@DEBUG_VALUE: LCD_Draw_Circle:b <- $r4
	.loc	4 232 10 is_stmt 0              @ ../User/BSP/lcd/lcd.c:232:10
	uxth	r1, r0
	.loc	4 232 26                        @ ../User/BSP/lcd/lcd.c:232:26
	cmp	r1, r5
	mov	r10, r11
.Ltmp608:
	.loc	4 625 31 is_stmt 1              @ ../User/BSP/lcd/lcd.c:625:31
	add	r11, r9
.Ltmp609:
	@DEBUG_VALUE: LCD_Draw_Circle:y0 <- [DW_OP_LLVM_entry_value 1] $r1
	@DEBUG_VALUE: LCD_DrawPoint:x <- undef
	@DEBUG_VALUE: LCD_DrawPoint:y <- $r11
	.loc	4 232 26                        @ ../User/BSP/lcd/lcd.c:232:26
	bls	.LBB25_11
.Ltmp610:
@ %bb.9:                                @   in Loop: Header=BB25_2 Depth=1
	@DEBUG_VALUE: LCD_DrawPoint:y <- $r11
	@DEBUG_VALUE: LCD_Draw_Circle:di <- $r6
	@DEBUG_VALUE: LCD_Draw_Circle:x0 <- [DW_OP_plus_uconst 8] [$sp+0]
	@DEBUG_VALUE: LCD_Draw_Circle:b <- $r4
	.loc	4 0 26 is_stmt 0                @ ../User/BSP/lcd/lcd.c:0:26
	uxth.w	r1, r11
	uxth	r3, r2
	.loc	4 232 26                        @ ../User/BSP/lcd/lcd.c:232:26
	cmp	r3, r1
	bls	.LBB25_11
.Ltmp611:
@ %bb.10:                               @   in Loop: Header=BB25_2 Depth=1
	@DEBUG_VALUE: LCD_DrawPoint:y <- $r11
	@DEBUG_VALUE: LCD_Draw_Circle:di <- $r6
	@DEBUG_VALUE: LCD_Draw_Circle:x0 <- [DW_OP_plus_uconst 8] [$sp+0]
	@DEBUG_VALUE: LCD_Draw_Circle:b <- $r4
	.loc	4 234 5 is_stmt 1               @ ../User/BSP/lcd/lcd.c:234:5
	mov	r0, r5
	bl	LCD_SetCursor
.Ltmp612:
	.loc	4 0 5 is_stmt 0                 @ ../User/BSP/lcd/lcd.c:0:5
	movw	r2, :lower16:lcddev
	movt	r2, :upper16:lcddev
.Ltmp613:
	.loc	4 64 27 is_stmt 1               @ ../User/BSP/lcd/lcd.c:64:27
	ldrh	r0, [r2, #8]
	movs	r1, #126
	movt	r1, #27648
	.loc	4 64 18 is_stmt 0               @ ../User/BSP/lcd/lcd.c:64:18
	strh	r0, [r1]
.Ltmp614:
	.loc	4 236 20 is_stmt 1              @ ../User/BSP/lcd/lcd.c:236:20
	movw	r0, :lower16:POINT_COLOR
	movt	r0, :upper16:POINT_COLOR
	ldr	r0, [r0]
	.loc	4 236 18 is_stmt 0              @ ../User/BSP/lcd/lcd.c:236:18
	strh	r0, [r1, #2]
.Ltmp615:
	.loc	4 232 20 is_stmt 1              @ ../User/BSP/lcd/lcd.c:232:20
	ldrh	r0, [r2]
	ldrh	r2, [r2, #2]
.Ltmp616:
.LBB25_11:                              @   in Loop: Header=BB25_2 Depth=1
	@DEBUG_VALUE: LCD_Draw_Circle:di <- $r6
	@DEBUG_VALUE: LCD_Draw_Circle:x0 <- [DW_OP_plus_uconst 8] [$sp+0]
	@DEBUG_VALUE: LCD_Draw_Circle:b <- $r4
	.loc	4 232 10 is_stmt 0              @ ../User/BSP/lcd/lcd.c:232:10
	uxth	r1, r0
	.loc	4 232 26                        @ ../User/BSP/lcd/lcd.c:232:26
	cmp	r1, r7
.Ltmp617:
	.loc	4 626 31 is_stmt 1              @ ../User/BSP/lcd/lcd.c:626:31
	add.w	r5, r4, r10
.Ltmp618:
	@DEBUG_VALUE: LCD_DrawPoint:x <- undef
	@DEBUG_VALUE: LCD_DrawPoint:y <- $r5
	.loc	4 232 26                        @ ../User/BSP/lcd/lcd.c:232:26
	bls	.LBB25_14
.Ltmp619:
@ %bb.12:                               @   in Loop: Header=BB25_2 Depth=1
	@DEBUG_VALUE: LCD_DrawPoint:y <- $r5
	@DEBUG_VALUE: LCD_Draw_Circle:di <- $r6
	@DEBUG_VALUE: LCD_Draw_Circle:x0 <- [DW_OP_plus_uconst 8] [$sp+0]
	@DEBUG_VALUE: LCD_Draw_Circle:b <- $r4
	.loc	4 0 26 is_stmt 0                @ ../User/BSP/lcd/lcd.c:0:26
	uxth	r1, r5
	uxth	r3, r2
	.loc	4 232 26                        @ ../User/BSP/lcd/lcd.c:232:26
	cmp	r3, r1
	bls	.LBB25_14
.Ltmp620:
@ %bb.13:                               @   in Loop: Header=BB25_2 Depth=1
	@DEBUG_VALUE: LCD_DrawPoint:y <- $r5
	@DEBUG_VALUE: LCD_Draw_Circle:di <- $r6
	@DEBUG_VALUE: LCD_Draw_Circle:x0 <- [DW_OP_plus_uconst 8] [$sp+0]
	@DEBUG_VALUE: LCD_Draw_Circle:b <- $r4
	.loc	4 234 5 is_stmt 1               @ ../User/BSP/lcd/lcd.c:234:5
	mov	r0, r7
	bl	LCD_SetCursor
.Ltmp621:
	.loc	4 0 5 is_stmt 0                 @ ../User/BSP/lcd/lcd.c:0:5
	movw	r2, :lower16:lcddev
	movt	r2, :upper16:lcddev
.Ltmp622:
	.loc	4 64 27 is_stmt 1               @ ../User/BSP/lcd/lcd.c:64:27
	ldrh	r0, [r2, #8]
	movs	r1, #126
	movt	r1, #27648
	.loc	4 64 18 is_stmt 0               @ ../User/BSP/lcd/lcd.c:64:18
	strh	r0, [r1]
.Ltmp623:
	.loc	4 236 20 is_stmt 1              @ ../User/BSP/lcd/lcd.c:236:20
	movw	r0, :lower16:POINT_COLOR
	movt	r0, :upper16:POINT_COLOR
	ldr	r0, [r0]
	.loc	4 236 18 is_stmt 0              @ ../User/BSP/lcd/lcd.c:236:18
	strh	r0, [r1, #2]
.Ltmp624:
	.loc	4 232 20 is_stmt 1              @ ../User/BSP/lcd/lcd.c:232:20
	ldrh	r0, [r2]
	ldrh	r2, [r2, #2]
.Ltmp625:
.LBB25_14:                              @   in Loop: Header=BB25_2 Depth=1
	@DEBUG_VALUE: LCD_Draw_Circle:di <- $r6
	@DEBUG_VALUE: LCD_Draw_Circle:x0 <- [DW_OP_plus_uconst 8] [$sp+0]
	@DEBUG_VALUE: LCD_Draw_Circle:b <- $r4
	.loc	4 627 23                        @ ../User/BSP/lcd/lcd.c:627:23
	ldr	r1, [sp, #8]                    @ 4-byte Reload
	sub.w	r1, r1, r9
.Ltmp626:
	@DEBUG_VALUE: LCD_DrawPoint:x <- $r1
	uxth	r7, r1
.Ltmp627:
	@DEBUG_VALUE: LCD_DrawPoint:y <- $r5
	.loc	4 232 10                        @ ../User/BSP/lcd/lcd.c:232:10
	uxth	r1, r0
.Ltmp628:
	.loc	4 232 26 is_stmt 0              @ ../User/BSP/lcd/lcd.c:232:26
	cmp	r1, r7
	bls	.LBB25_17
.Ltmp629:
@ %bb.15:                               @   in Loop: Header=BB25_2 Depth=1
	@DEBUG_VALUE: LCD_DrawPoint:y <- $r5
	@DEBUG_VALUE: LCD_Draw_Circle:di <- $r6
	@DEBUG_VALUE: LCD_Draw_Circle:x0 <- [DW_OP_plus_uconst 8] [$sp+0]
	@DEBUG_VALUE: LCD_Draw_Circle:b <- $r4
	.loc	4 0 26                          @ ../User/BSP/lcd/lcd.c:0:26
	uxth	r1, r5
	uxth	r3, r2
	.loc	4 232 26                        @ ../User/BSP/lcd/lcd.c:232:26
	cmp	r3, r1
	bls	.LBB25_17
.Ltmp630:
@ %bb.16:                               @   in Loop: Header=BB25_2 Depth=1
	@DEBUG_VALUE: LCD_DrawPoint:y <- $r5
	@DEBUG_VALUE: LCD_Draw_Circle:di <- $r6
	@DEBUG_VALUE: LCD_Draw_Circle:x0 <- [DW_OP_plus_uconst 8] [$sp+0]
	@DEBUG_VALUE: LCD_Draw_Circle:b <- $r4
	.loc	4 234 5 is_stmt 1               @ ../User/BSP/lcd/lcd.c:234:5
	mov	r0, r7
	bl	LCD_SetCursor
.Ltmp631:
	.loc	4 0 5 is_stmt 0                 @ ../User/BSP/lcd/lcd.c:0:5
	movw	r2, :lower16:lcddev
	movt	r2, :upper16:lcddev
.Ltmp632:
	.loc	4 64 27 is_stmt 1               @ ../User/BSP/lcd/lcd.c:64:27
	ldrh	r0, [r2, #8]
	movs	r1, #126
	movt	r1, #27648
	.loc	4 64 18 is_stmt 0               @ ../User/BSP/lcd/lcd.c:64:18
	strh	r0, [r1]
.Ltmp633:
	.loc	4 236 20 is_stmt 1              @ ../User/BSP/lcd/lcd.c:236:20
	movw	r0, :lower16:POINT_COLOR
	movt	r0, :upper16:POINT_COLOR
	ldr	r0, [r0]
	.loc	4 236 18 is_stmt 0              @ ../User/BSP/lcd/lcd.c:236:18
	strh	r0, [r1, #2]
.Ltmp634:
	.loc	4 232 20 is_stmt 1              @ ../User/BSP/lcd/lcd.c:232:20
	ldrh	r0, [r2]
	ldrh	r2, [r2, #2]
.Ltmp635:
.LBB25_17:                              @   in Loop: Header=BB25_2 Depth=1
	@DEBUG_VALUE: LCD_Draw_Circle:di <- $r6
	@DEBUG_VALUE: LCD_Draw_Circle:x0 <- [DW_OP_plus_uconst 8] [$sp+0]
	@DEBUG_VALUE: LCD_Draw_Circle:b <- $r4
	.loc	4 628 23                        @ ../User/BSP/lcd/lcd.c:628:23
	ldr	r1, [sp, #8]                    @ 4-byte Reload
	subs	r1, r1, r4
.Ltmp636:
	@DEBUG_VALUE: LCD_DrawPoint:x <- $r1
	uxth	r5, r1
.Ltmp637:
	@DEBUG_VALUE: LCD_DrawPoint:y <- $r11
	.loc	4 232 10                        @ ../User/BSP/lcd/lcd.c:232:10
	uxth	r1, r0
.Ltmp638:
	.loc	4 232 26 is_stmt 0              @ ../User/BSP/lcd/lcd.c:232:26
	cmp	r1, r5
	bls	.LBB25_20
.Ltmp639:
@ %bb.18:                               @   in Loop: Header=BB25_2 Depth=1
	@DEBUG_VALUE: LCD_DrawPoint:y <- $r11
	@DEBUG_VALUE: LCD_Draw_Circle:di <- $r6
	@DEBUG_VALUE: LCD_Draw_Circle:x0 <- [DW_OP_plus_uconst 8] [$sp+0]
	@DEBUG_VALUE: LCD_Draw_Circle:b <- $r4
	.loc	4 0 26                          @ ../User/BSP/lcd/lcd.c:0:26
	uxth.w	r1, r11
	uxth	r3, r2
	.loc	4 232 26                        @ ../User/BSP/lcd/lcd.c:232:26
	cmp	r3, r1
	mov	r11, r10
.Ltmp640:
	bls	.LBB25_21
.Ltmp641:
@ %bb.19:                               @   in Loop: Header=BB25_2 Depth=1
	@DEBUG_VALUE: LCD_Draw_Circle:di <- $r6
	@DEBUG_VALUE: LCD_Draw_Circle:x0 <- [DW_OP_plus_uconst 8] [$sp+0]
	@DEBUG_VALUE: LCD_Draw_Circle:b <- $r4
	.loc	4 234 5 is_stmt 1               @ ../User/BSP/lcd/lcd.c:234:5
	mov	r0, r5
	bl	LCD_SetCursor
.Ltmp642:
	.loc	4 0 5 is_stmt 0                 @ ../User/BSP/lcd/lcd.c:0:5
	movw	r2, :lower16:lcddev
	movt	r2, :upper16:lcddev
.Ltmp643:
	.loc	4 64 27 is_stmt 1               @ ../User/BSP/lcd/lcd.c:64:27
	ldrh	r0, [r2, #8]
	movs	r1, #126
	movt	r1, #27648
	.loc	4 64 18 is_stmt 0               @ ../User/BSP/lcd/lcd.c:64:18
	strh	r0, [r1]
.Ltmp644:
	.loc	4 236 20 is_stmt 1              @ ../User/BSP/lcd/lcd.c:236:20
	movw	r0, :lower16:POINT_COLOR
	movt	r0, :upper16:POINT_COLOR
	ldr	r0, [r0]
	.loc	4 236 18 is_stmt 0              @ ../User/BSP/lcd/lcd.c:236:18
	strh	r0, [r1, #2]
.Ltmp645:
	.loc	4 232 20 is_stmt 1              @ ../User/BSP/lcd/lcd.c:232:20
	ldrh	r0, [r2]
	ldrh	r2, [r2, #2]
	b	.LBB25_21
.Ltmp646:
	.p2align	2
.LBB25_20:                              @   in Loop: Header=BB25_2 Depth=1
	@DEBUG_VALUE: LCD_DrawPoint:y <- $r11
	@DEBUG_VALUE: LCD_Draw_Circle:di <- $r6
	@DEBUG_VALUE: LCD_Draw_Circle:x0 <- [DW_OP_plus_uconst 8] [$sp+0]
	@DEBUG_VALUE: LCD_Draw_Circle:b <- $r4
	.loc	4 0 20 is_stmt 0                @ ../User/BSP/lcd/lcd.c:0:20
	mov	r11, r10
.Ltmp647:
.LBB25_21:                              @   in Loop: Header=BB25_2 Depth=1
	@DEBUG_VALUE: LCD_Draw_Circle:di <- $r6
	@DEBUG_VALUE: LCD_Draw_Circle:x0 <- [DW_OP_plus_uconst 8] [$sp+0]
	@DEBUG_VALUE: LCD_Draw_Circle:b <- $r4
	@DEBUG_VALUE: LCD_DrawPoint:x <- undef
	@DEBUG_VALUE: LCD_DrawPoint:y <- [DW_OP_plus_uconst 4] [$sp+0]
	.loc	4 232 10                        @ ../User/BSP/lcd/lcd.c:232:10
	uxth	r1, r0
	.loc	4 232 26                        @ ../User/BSP/lcd/lcd.c:232:26
	cmp	r1, r7
	bls	.LBB25_24
.Ltmp648:
@ %bb.22:                               @   in Loop: Header=BB25_2 Depth=1
	@DEBUG_VALUE: LCD_DrawPoint:y <- [DW_OP_plus_uconst 4] [$sp+0]
	@DEBUG_VALUE: LCD_Draw_Circle:di <- $r6
	@DEBUG_VALUE: LCD_Draw_Circle:x0 <- [DW_OP_plus_uconst 8] [$sp+0]
	@DEBUG_VALUE: LCD_Draw_Circle:b <- $r4
	.loc	4 0 26                          @ ../User/BSP/lcd/lcd.c:0:26
	ldr	r1, [sp, #4]                    @ 4-byte Reload
	uxth	r3, r2
	uxth	r1, r1
	.loc	4 232 26                        @ ../User/BSP/lcd/lcd.c:232:26
	cmp	r3, r1
	bls	.LBB25_24
.Ltmp649:
@ %bb.23:                               @   in Loop: Header=BB25_2 Depth=1
	@DEBUG_VALUE: LCD_DrawPoint:y <- [DW_OP_plus_uconst 4] [$sp+0]
	@DEBUG_VALUE: LCD_Draw_Circle:di <- $r6
	@DEBUG_VALUE: LCD_Draw_Circle:x0 <- [DW_OP_plus_uconst 8] [$sp+0]
	@DEBUG_VALUE: LCD_Draw_Circle:b <- $r4
	.loc	4 234 5 is_stmt 1               @ ../User/BSP/lcd/lcd.c:234:5
	mov	r0, r7
	bl	LCD_SetCursor
.Ltmp650:
	.loc	4 0 5 is_stmt 0                 @ ../User/BSP/lcd/lcd.c:0:5
	movw	r2, :lower16:lcddev
	movt	r2, :upper16:lcddev
.Ltmp651:
	.loc	4 64 27 is_stmt 1               @ ../User/BSP/lcd/lcd.c:64:27
	ldrh	r0, [r2, #8]
	movs	r1, #126
	movt	r1, #27648
	.loc	4 64 18 is_stmt 0               @ ../User/BSP/lcd/lcd.c:64:18
	strh	r0, [r1]
.Ltmp652:
	.loc	4 236 20 is_stmt 1              @ ../User/BSP/lcd/lcd.c:236:20
	movw	r0, :lower16:POINT_COLOR
	movt	r0, :upper16:POINT_COLOR
	ldr	r0, [r0]
	.loc	4 236 18 is_stmt 0              @ ../User/BSP/lcd/lcd.c:236:18
	strh	r0, [r1, #2]
.Ltmp653:
	.loc	4 232 20 is_stmt 1              @ ../User/BSP/lcd/lcd.c:232:20
	ldrh	r0, [r2]
	ldrh	r2, [r2, #2]
.Ltmp654:
.LBB25_24:                              @   in Loop: Header=BB25_2 Depth=1
	@DEBUG_VALUE: LCD_Draw_Circle:di <- $r6
	@DEBUG_VALUE: LCD_Draw_Circle:x0 <- [DW_OP_plus_uconst 8] [$sp+0]
	@DEBUG_VALUE: LCD_Draw_Circle:b <- $r4
	@DEBUG_VALUE: LCD_DrawPoint:x <- undef
	@DEBUG_VALUE: LCD_DrawPoint:y <- [$sp+0]
	.loc	4 232 10 is_stmt 0              @ ../User/BSP/lcd/lcd.c:232:10
	uxth	r1, r0
	.loc	4 232 26                        @ ../User/BSP/lcd/lcd.c:232:26
	cmp	r1, r5
	bls.w	.LBB25_1
.Ltmp655:
@ %bb.25:                               @   in Loop: Header=BB25_2 Depth=1
	@DEBUG_VALUE: LCD_DrawPoint:y <- [$sp+0]
	@DEBUG_VALUE: LCD_Draw_Circle:di <- $r6
	@DEBUG_VALUE: LCD_Draw_Circle:x0 <- [DW_OP_plus_uconst 8] [$sp+0]
	@DEBUG_VALUE: LCD_Draw_Circle:b <- $r4
	.loc	4 0 26                          @ ../User/BSP/lcd/lcd.c:0:26
	ldr	r1, [sp]                        @ 4-byte Reload
	uxth	r3, r2
	uxth	r1, r1
	.loc	4 232 26                        @ ../User/BSP/lcd/lcd.c:232:26
	cmp	r3, r1
	bls.w	.LBB25_1
.Ltmp656:
@ %bb.26:                               @   in Loop: Header=BB25_2 Depth=1
	@DEBUG_VALUE: LCD_DrawPoint:y <- [$sp+0]
	@DEBUG_VALUE: LCD_Draw_Circle:di <- $r6
	@DEBUG_VALUE: LCD_Draw_Circle:x0 <- [DW_OP_plus_uconst 8] [$sp+0]
	@DEBUG_VALUE: LCD_Draw_Circle:b <- $r4
	.loc	4 234 5 is_stmt 1               @ ../User/BSP/lcd/lcd.c:234:5
	mov	r0, r5
	bl	LCD_SetCursor
.Ltmp657:
	.loc	4 0 5 is_stmt 0                 @ ../User/BSP/lcd/lcd.c:0:5
	movw	r2, :lower16:lcddev
	movt	r2, :upper16:lcddev
.Ltmp658:
	.loc	4 64 27 is_stmt 1               @ ../User/BSP/lcd/lcd.c:64:27
	ldrh	r0, [r2, #8]
	movs	r1, #126
	movt	r1, #27648
	.loc	4 64 18 is_stmt 0               @ ../User/BSP/lcd/lcd.c:64:18
	strh	r0, [r1]
.Ltmp659:
	.loc	4 236 20 is_stmt 1              @ ../User/BSP/lcd/lcd.c:236:20
	movw	r0, :lower16:POINT_COLOR
	movt	r0, :upper16:POINT_COLOR
	ldr	r0, [r0]
	.loc	4 236 18 is_stmt 0              @ ../User/BSP/lcd/lcd.c:236:18
	strh	r0, [r1, #2]
.Ltmp660:
	.loc	4 232 20 is_stmt 1              @ ../User/BSP/lcd/lcd.c:232:20
	ldrh	r0, [r2]
	ldrh	r2, [r2, #2]
	b	.LBB25_1
.Ltmp661:
.LBB25_27:
	@DEBUG_VALUE: LCD_Draw_Circle:di <- $r6
	@DEBUG_VALUE: LCD_Draw_Circle:x0 <- [DW_OP_plus_uconst 8] [$sp+0]
	@DEBUG_VALUE: LCD_Draw_Circle:b <- $r4
	.loc	4 640 1                         @ ../User/BSP/lcd/lcd.c:640:1
	add	sp, #12
	pop.w	{r4, r5, r6, r7, r8, r9, r10, r11, pc}
.Ltmp662:
.Lfunc_end25:
	.size	LCD_Draw_Circle, .Lfunc_end25-LCD_Draw_Circle
	.cfi_endproc
	.cantunwind
	.fnend
                                        @ -- End function
	.section	.text.LCD_ShowChar,"ax",%progbits
	.hidden	LCD_ShowChar                    @ -- Begin function LCD_ShowChar
	.globl	LCD_ShowChar
	.p2align	2
	.type	LCD_ShowChar,%function
	.code	16                              @ @LCD_ShowChar
	.thumb_func
LCD_ShowChar:
.Lfunc_begin26:
	.loc	4 643 0                         @ ../User/BSP/lcd/lcd.c:643:0
	.fnstart
	.cfi_startproc
@ %bb.0:
	@DEBUG_VALUE: LCD_ShowChar:x <- $r0
	@DEBUG_VALUE: LCD_ShowChar:y <- $r1
	@DEBUG_VALUE: LCD_ShowChar:num <- $r2
	@DEBUG_VALUE: LCD_ShowChar:size <- $r3
	.save	{r4, r5, r6, r7, r8, r9, r10, r11, lr}
	push.w	{r4, r5, r6, r7, r8, r9, r10, r11, lr}
	.cfi_def_cfa_offset 36
	.cfi_offset lr, -4
	.cfi_offset r11, -8
	.cfi_offset r10, -12
	.cfi_offset r9, -16
	.cfi_offset r8, -20
	.cfi_offset r7, -24
	.cfi_offset r6, -28
	.cfi_offset r5, -32
	.cfi_offset r4, -36
	.pad	#36
	sub	sp, #36
	.cfi_def_cfa_offset 72
.Ltmp663:
	@DEBUG_VALUE: LCD_ShowChar:y0 <- $r1
	mov	r4, r1
.Ltmp664:
	@DEBUG_VALUE: LCD_ShowChar:y <- $r4
	@DEBUG_VALUE: LCD_ShowChar:y0 <- $r4
	@DEBUG_VALUE: LCD_ShowChar:y <- $r4
	.loc	4 648 18 prologue_end           @ ../User/BSP/lcd/lcd.c:648:18
	sub.w	r1, r2, #127
	uxtb	r1, r1
	cmp	r1, #161
.Ltmp665:
	@DEBUG_VALUE: LCD_ShowChar:char_width_pixels <- [DW_OP_LLVM_convert 32 7, DW_OP_LLVM_convert 16 7, DW_OP_stack_value] undef
	@DEBUG_VALUE: LCD_ShowChar:mode <- undef
	@DEBUG_VALUE: LCD_ShowChar:x <- $r0
	blo	.LBB26_8
.Ltmp666:
@ %bb.1:
	@DEBUG_VALUE: LCD_ShowChar:y0 <- $r4
	@DEBUG_VALUE: LCD_ShowChar:y <- $r4
	@DEBUG_VALUE: LCD_ShowChar:size <- $r3
	@DEBUG_VALUE: LCD_ShowChar:num <- $r2
	@DEBUG_VALUE: LCD_ShowChar:x <- $r0
	.loc	4 650 20                        @ ../User/BSP/lcd/lcd.c:650:20
	movw	r8, :lower16:lcddev
	movt	r8, :upper16:lcddev
	ldrh.w	r1, [r8]
	mov	r5, r0
.Ltmp667:
	@DEBUG_VALUE: LCD_ShowChar:x <- $r5
	@DEBUG_VALUE: LCD_ShowChar:y <- $r4
	@DEBUG_VALUE: LCD_ShowChar:y0 <- $r4
	@DEBUG_VALUE: LCD_ShowChar:mode <- undef
	@DEBUG_VALUE: LCD_ShowChar:char_width_pixels <- [DW_OP_LLVM_convert 32 7, DW_OP_LLVM_convert 16 7, DW_OP_stack_value] undef
	.loc	4 650 26 is_stmt 0              @ ../User/BSP/lcd/lcd.c:650:26
	cmp	r1, r0
	bls	.LBB26_8
.Ltmp668:
@ %bb.2:
	@DEBUG_VALUE: LCD_ShowChar:x <- $r5
	@DEBUG_VALUE: LCD_ShowChar:y0 <- $r4
	@DEBUG_VALUE: LCD_ShowChar:y <- $r4
	@DEBUG_VALUE: LCD_ShowChar:size <- $r3
	@DEBUG_VALUE: LCD_ShowChar:num <- $r2
	@DEBUG_VALUE: LCD_ShowChar:y <- $r4
	@DEBUG_VALUE: LCD_ShowChar:y0 <- $r4
	@DEBUG_VALUE: LCD_ShowChar:mode <- undef
	@DEBUG_VALUE: LCD_ShowChar:char_width_pixels <- [DW_OP_LLVM_convert 32 7, DW_OP_LLVM_convert 16 7, DW_OP_stack_value] undef
	.loc	4 650 41                        @ ../User/BSP/lcd/lcd.c:650:41
	ldrh.w	r7, [r8, #2]
	.loc	4 650 48                        @ ../User/BSP/lcd/lcd.c:650:48
	cmp	r7, r4
	bls	.LBB26_8
.Ltmp669:
@ %bb.3:
	@DEBUG_VALUE: LCD_ShowChar:x <- $r5
	@DEBUG_VALUE: LCD_ShowChar:y0 <- $r4
	@DEBUG_VALUE: LCD_ShowChar:y <- $r4
	@DEBUG_VALUE: LCD_ShowChar:size <- $r3
	@DEBUG_VALUE: LCD_ShowChar:num <- $r2
	@DEBUG_VALUE: LCD_ShowChar:y <- $r4
	@DEBUG_VALUE: LCD_ShowChar:y0 <- $r4
	@DEBUG_VALUE: LCD_ShowChar:mode <- undef
	.loc	4 0 48                          @ ../User/BSP/lcd/lcd.c:0:48
	lsrs	r0, r3, #1
.Ltmp670:
	@DEBUG_VALUE: LCD_ShowChar:char_width_pixels <- [DW_OP_LLVM_convert 32 7, DW_OP_LLVM_convert 16 7, DW_OP_stack_value] $r0
	adds	r6, r0, r5
	.loc	4 650 48                        @ ../User/BSP/lcd/lcd.c:650:48
	cmp	r6, r1
	bhi	.LBB26_8
.Ltmp671:
@ %bb.4:
	@DEBUG_VALUE: LCD_ShowChar:char_width_pixels <- [DW_OP_LLVM_convert 32 7, DW_OP_LLVM_convert 16 7, DW_OP_stack_value] $r0
	@DEBUG_VALUE: LCD_ShowChar:x <- $r5
	@DEBUG_VALUE: LCD_ShowChar:y0 <- $r4
	@DEBUG_VALUE: LCD_ShowChar:y <- $r4
	@DEBUG_VALUE: LCD_ShowChar:size <- $r3
	@DEBUG_VALUE: LCD_ShowChar:num <- $r2
	@DEBUG_VALUE: LCD_ShowChar:y <- $r4
	@DEBUG_VALUE: LCD_ShowChar:y0 <- $r4
	@DEBUG_VALUE: LCD_ShowChar:mode <- undef
	.loc	4 0 48                          @ ../User/BSP/lcd/lcd.c:0:48
	adds	r1, r3, r4
	.loc	4 650 48                        @ ../User/BSP/lcd/lcd.c:650:48
	cmp	r1, r7
	bhi	.LBB26_8
.Ltmp672:
@ %bb.5:
	@DEBUG_VALUE: LCD_ShowChar:char_width_pixels <- [DW_OP_LLVM_convert 32 7, DW_OP_LLVM_convert 16 7, DW_OP_stack_value] $r0
	@DEBUG_VALUE: LCD_ShowChar:x <- $r5
	@DEBUG_VALUE: LCD_ShowChar:y0 <- $r4
	@DEBUG_VALUE: LCD_ShowChar:y <- $r4
	@DEBUG_VALUE: LCD_ShowChar:size <- $r3
	@DEBUG_VALUE: LCD_ShowChar:num <- $r2
	@DEBUG_VALUE: LCD_ShowChar:y <- $r4
	@DEBUG_VALUE: LCD_ShowChar:y0 <- $r4
	@DEBUG_VALUE: LCD_ShowChar:mode <- undef
	.loc	4 652 24 is_stmt 1              @ ../User/BSP/lcd/lcd.c:652:24
	lsrs	r6, r3, #3
	movs	r1, #1
	.loc	4 652 29 is_stmt 0              @ ../User/BSP/lcd/lcd.c:652:29
	lsls	r7, r3, #29
	it	ne
	addne.w	r6, r1, r3, lsr #3
	.loc	4 652 53                        @ ../User/BSP/lcd/lcd.c:652:53
	muls	r0, r6, r0
.Ltmp673:
	@DEBUG_VALUE: t_byte_offset <- 0
	@DEBUG_VALUE: LCD_ShowChar:csize <- [DW_OP_LLVM_convert 32 7, DW_OP_LLVM_convert 16 7, DW_OP_stack_value] $r0
	@DEBUG_VALUE: LCD_ShowChar:num <- [DW_OP_constu 32, DW_OP_minus, DW_OP_stack_value] undef
	.loc	4 0 53                          @ ../User/BSP/lcd/lcd.c:0:53
	str	r6, [sp, #32]                   @ 4-byte Spill
	str	r0, [sp, #24]                   @ 4-byte Spill
.Ltmp674:
	@DEBUG_VALUE: LCD_ShowChar:csize <- [DW_OP_plus_uconst 24, DW_OP_LLVM_convert 32 7, DW_OP_LLVM_convert 16 7, DW_OP_stack_value] [$sp+0]
	@DEBUG_VALUE: LCD_ShowChar:csize <- [DW_OP_plus_uconst 24, DW_OP_deref_size 4, DW_OP_LLVM_convert 32 7, DW_OP_LLVM_convert 16 7, DW_OP_stack_value] $sp
	.loc	4 656 5 is_stmt 1               @ ../User/BSP/lcd/lcd.c:656:5
	cbz	r0, .LBB26_8
.Ltmp675:
@ %bb.6:
	@DEBUG_VALUE: LCD_ShowChar:csize <- [DW_OP_plus_uconst 24, DW_OP_deref_size 4, DW_OP_LLVM_convert 32 7, DW_OP_LLVM_convert 16 7, DW_OP_stack_value] $sp
	@DEBUG_VALUE: t_byte_offset <- 0
	@DEBUG_VALUE: LCD_ShowChar:x <- $r5
	@DEBUG_VALUE: LCD_ShowChar:y0 <- $r4
	@DEBUG_VALUE: LCD_ShowChar:y <- $r4
	@DEBUG_VALUE: LCD_ShowChar:size <- $r3
	@DEBUG_VALUE: LCD_ShowChar:y <- $r4
	@DEBUG_VALUE: LCD_ShowChar:num <- undef
	@DEBUG_VALUE: LCD_ShowChar:y0 <- $r4
	@DEBUG_VALUE: LCD_ShowChar:mode <- undef
	.loc	4 0 5 is_stmt 0                 @ ../User/BSP/lcd/lcd.c:0:5
	sub.w	r0, r3, #12
	uxtb	r1, r0
	lsls	r0, r0, #6
	orr.w	r0, r0, r1, lsr #2
	uxtb	r0, r0
	cmp	r0, #5
	str	r0, [sp, #28]                   @ 4-byte Spill
	bhi	.LBB26_8
.Ltmp676:
@ %bb.7:
	@DEBUG_VALUE: LCD_ShowChar:csize <- [DW_OP_plus_uconst 24, DW_OP_deref_size 4, DW_OP_LLVM_convert 32 7, DW_OP_LLVM_convert 16 7, DW_OP_stack_value] $sp
	@DEBUG_VALUE: t_byte_offset <- 0
	@DEBUG_VALUE: LCD_ShowChar:x <- $r5
	@DEBUG_VALUE: LCD_ShowChar:y0 <- $r4
	@DEBUG_VALUE: LCD_ShowChar:y <- $r4
	@DEBUG_VALUE: LCD_ShowChar:size <- $r3
	@DEBUG_VALUE: LCD_ShowChar:y <- $r4
	@DEBUG_VALUE: LCD_ShowChar:num <- undef
	@DEBUG_VALUE: LCD_ShowChar:y0 <- $r4
	@DEBUG_VALUE: LCD_ShowChar:mode <- undef
	ldr	r1, [sp, #28]                   @ 4-byte Reload
	movs	r0, #43
	lsrs	r0, r1
	lsls	r0, r0, #31
	bne	.LBB26_9
.Ltmp677:
.LBB26_8:
	@DEBUG_VALUE: LCD_ShowChar:y0 <- $r4
	@DEBUG_VALUE: LCD_ShowChar:y <- $r4
	.loc	4 681 1 is_stmt 1               @ ../User/BSP/lcd/lcd.c:681:1
	add	sp, #36
	pop.w	{r4, r5, r6, r7, r8, r9, r10, r11, pc}
.Ltmp678:
.LBB26_9:
	@DEBUG_VALUE: LCD_ShowChar:csize <- [DW_OP_plus_uconst 24, DW_OP_deref_size 4, DW_OP_LLVM_convert 32 7, DW_OP_LLVM_convert 16 7, DW_OP_stack_value] $sp
	@DEBUG_VALUE: t_byte_offset <- 0
	@DEBUG_VALUE: LCD_ShowChar:x <- $r5
	@DEBUG_VALUE: LCD_ShowChar:y0 <- $r4
	@DEBUG_VALUE: LCD_ShowChar:y <- $r4
	@DEBUG_VALUE: LCD_ShowChar:size <- $r3
	@DEBUG_VALUE: LCD_ShowChar:y <- $r4
	@DEBUG_VALUE: LCD_ShowChar:y0 <- $r4
	@DEBUG_VALUE: LCD_ShowChar:mode <- undef
	.loc	4 0 1 is_stmt 0                 @ ../User/BSP/lcd/lcd.c:0:1
	sub.w	r0, r2, #32
.Ltmp679:
	@DEBUG_VALUE: LCD_ShowChar:num <- $r0
	uxtb	r2, r0
	movs	r0, #0
.Ltmp680:
	movw	r1, :lower16:asc2_2412
	str	r0, [sp, #20]                   @ 4-byte Spill
	add.w	r0, r2, r2, lsl #3
	movt	r1, :upper16:asc2_2412
	add.w	r0, r1, r0, lsl #2
	str	r0, [sp, #12]                   @ 4-byte Spill
	movw	r0, :lower16:asc2_1608
	movt	r0, :upper16:asc2_1608
	add.w	r0, r0, r2, lsl #4
	str	r0, [sp, #8]                    @ 4-byte Spill
	movw	r0, :lower16:asc2_3216
	movt	r0, :upper16:asc2_3216
	add.w	r0, r0, r2, lsl #7
	str	r2, [sp, #16]                   @ 4-byte Spill
	str	r0, [sp, #4]                    @ 4-byte Spill
.Ltmp681:
.LBB26_10:                              @ =>This Loop Header: Depth=1
                                        @     Child Loop BB26_20 Depth 2
	@DEBUG_VALUE: LCD_ShowChar:csize <- [DW_OP_plus_uconst 24, DW_OP_deref_size 4, DW_OP_LLVM_convert 32 7, DW_OP_LLVM_convert 16 7, DW_OP_stack_value] $sp
	@DEBUG_VALUE: LCD_ShowChar:x <- $r5
	@DEBUG_VALUE: LCD_ShowChar:y0 <- $r4
	@DEBUG_VALUE: LCD_ShowChar:y <- $r4
	@DEBUG_VALUE: t_byte_offset <- [DW_OP_plus_uconst 20] [$sp+0]
	ldr	r0, [sp, #28]                   @ 4-byte Reload
.Ltmp682:
	.loc	4 658 12 is_stmt 1              @ ../User/BSP/lcd/lcd.c:658:12
	cmp	r0, #3
	beq	.LBB26_14
.Ltmp683:
@ %bb.11:                               @   in Loop: Header=BB26_10 Depth=1
	@DEBUG_VALUE: t_byte_offset <- [DW_OP_plus_uconst 20] [$sp+0]
	@DEBUG_VALUE: LCD_ShowChar:csize <- [DW_OP_plus_uconst 24, DW_OP_deref_size 4, DW_OP_LLVM_convert 32 7, DW_OP_LLVM_convert 16 7, DW_OP_stack_value] $sp
	@DEBUG_VALUE: LCD_ShowChar:x <- $r5
	@DEBUG_VALUE: LCD_ShowChar:y0 <- $r4
	@DEBUG_VALUE: LCD_ShowChar:y <- $r4
	.loc	4 0 12 is_stmt 0                @ ../User/BSP/lcd/lcd.c:0:12
	ldr	r3, [sp, #20]                   @ 4-byte Reload
.Ltmp684:
	@DEBUG_VALUE: LCD_ShowChar:size <- [DW_OP_LLVM_entry_value 1] $r3
	.loc	4 658 12                        @ ../User/BSP/lcd/lcd.c:658:12
	cmp	r0, #1
	beq	.LBB26_15
.Ltmp685:
@ %bb.12:                               @   in Loop: Header=BB26_10 Depth=1
	@DEBUG_VALUE: t_byte_offset <- [DW_OP_plus_uconst 20] [$sp+0]
	@DEBUG_VALUE: LCD_ShowChar:csize <- [DW_OP_plus_uconst 24, DW_OP_deref_size 4, DW_OP_LLVM_convert 32 7, DW_OP_LLVM_convert 16 7, DW_OP_stack_value] $sp
	@DEBUG_VALUE: LCD_ShowChar:x <- $r5
	@DEBUG_VALUE: LCD_ShowChar:y0 <- $r4
	@DEBUG_VALUE: LCD_ShowChar:y <- $r4
	cbnz	r0, .LBB26_16
.Ltmp686:
@ %bb.13:                               @   in Loop: Header=BB26_10 Depth=1
	@DEBUG_VALUE: t_byte_offset <- [DW_OP_plus_uconst 20] [$sp+0]
	@DEBUG_VALUE: LCD_ShowChar:csize <- [DW_OP_plus_uconst 24, DW_OP_deref_size 4, DW_OP_LLVM_convert 32 7, DW_OP_LLVM_convert 16 7, DW_OP_stack_value] $sp
	@DEBUG_VALUE: LCD_ShowChar:x <- $r5
	@DEBUG_VALUE: LCD_ShowChar:y0 <- $r4
	@DEBUG_VALUE: LCD_ShowChar:y <- $r4
	.loc	4 658 31                        @ ../User/BSP/lcd/lcd.c:658:31
	ldr	r0, [sp, #16]                   @ 4-byte Reload
	movw	r1, :lower16:asc2_1206
	add.w	r0, r0, r0, lsl #1
	movt	r1, :upper16:asc2_1206
	add.w	r0, r1, r0, lsl #2
	b	.LBB26_17
.Ltmp687:
.LBB26_14:                              @   in Loop: Header=BB26_10 Depth=1
	@DEBUG_VALUE: t_byte_offset <- [DW_OP_plus_uconst 20] [$sp+0]
	@DEBUG_VALUE: LCD_ShowChar:csize <- [DW_OP_plus_uconst 24, DW_OP_deref_size 4, DW_OP_LLVM_convert 32 7, DW_OP_LLVM_convert 16 7, DW_OP_stack_value] $sp
	@DEBUG_VALUE: LCD_ShowChar:x <- $r5
	@DEBUG_VALUE: LCD_ShowChar:y0 <- $r4
	@DEBUG_VALUE: LCD_ShowChar:y <- $r4
	.loc	4 0 31                          @ ../User/BSP/lcd/lcd.c:0:31
	ldr	r3, [sp, #20]                   @ 4-byte Reload
.Ltmp688:
	@DEBUG_VALUE: LCD_ShowChar:size <- [DW_OP_LLVM_entry_value 1] $r3
	.loc	4 660 36 is_stmt 1              @ ../User/BSP/lcd/lcd.c:660:36
	ldr	r0, [sp, #12]                   @ 4-byte Reload
	b	.LBB26_17
.Ltmp689:
.LBB26_15:                              @   in Loop: Header=BB26_10 Depth=1
	@DEBUG_VALUE: t_byte_offset <- [DW_OP_plus_uconst 20] [$sp+0]
	@DEBUG_VALUE: LCD_ShowChar:csize <- [DW_OP_plus_uconst 24, DW_OP_deref_size 4, DW_OP_LLVM_convert 32 7, DW_OP_LLVM_convert 16 7, DW_OP_stack_value] $sp
	@DEBUG_VALUE: LCD_ShowChar:x <- $r5
	@DEBUG_VALUE: LCD_ShowChar:y0 <- $r4
	@DEBUG_VALUE: LCD_ShowChar:y <- $r4
	.loc	4 659 36                        @ ../User/BSP/lcd/lcd.c:659:36
	ldr	r0, [sp, #8]                    @ 4-byte Reload
	b	.LBB26_17
.Ltmp690:
.LBB26_16:                              @   in Loop: Header=BB26_10 Depth=1
	@DEBUG_VALUE: t_byte_offset <- [DW_OP_plus_uconst 20] [$sp+0]
	@DEBUG_VALUE: LCD_ShowChar:csize <- [DW_OP_plus_uconst 24, DW_OP_deref_size 4, DW_OP_LLVM_convert 32 7, DW_OP_LLVM_convert 16 7, DW_OP_stack_value] $sp
	@DEBUG_VALUE: LCD_ShowChar:x <- $r5
	@DEBUG_VALUE: LCD_ShowChar:y0 <- $r4
	@DEBUG_VALUE: LCD_ShowChar:y <- $r4
	.loc	4 661 36                        @ ../User/BSP/lcd/lcd.c:661:36
	ldr	r0, [sp, #4]                    @ 4-byte Reload
.Ltmp691:
.LBB26_17:                              @   in Loop: Header=BB26_10 Depth=1
	@DEBUG_VALUE: t_byte_offset <- [DW_OP_plus_uconst 20] [$sp+0]
	@DEBUG_VALUE: LCD_ShowChar:csize <- [DW_OP_plus_uconst 24, DW_OP_deref_size 4, DW_OP_LLVM_convert 32 7, DW_OP_LLVM_convert 16 7, DW_OP_stack_value] $sp
	@DEBUG_VALUE: LCD_ShowChar:x <- $r5
	@DEBUG_VALUE: LCD_ShowChar:y0 <- $r4
	@DEBUG_VALUE: LCD_ShowChar:y <- $r4
	.loc	4 0 36 is_stmt 0                @ ../User/BSP/lcd/lcd.c:0:36
	ldr	r2, [sp, #32]                   @ 4-byte Reload
	add	r0, r3
.Ltmp692:
	@DEBUG_VALUE: LCD_ShowChar:temp <- undef
	udiv	r1, r3, r2
	ldrb.w	r10, [r0]
.Ltmp693:
	@DEBUG_VALUE: LCD_ShowChar:t1 <- 0
	@DEBUG_VALUE: LCD_ShowChar:temp <- undef
	mls	r0, r1, r2, r3
	add.w	r11, r1, r5
	lsls	r6, r0, #3
	mov.w	r9, #0
	movs	r7, #8
	b	.LBB26_20
.Ltmp694:
.LBB26_18:                              @   in Loop: Header=BB26_20 Depth=2
	@DEBUG_VALUE: current_pixel_x <- $r11
	@DEBUG_VALUE: LCD_ShowChar:t1 <- $r9
	@DEBUG_VALUE: LCD_ShowChar:temp <- $r10
	@DEBUG_VALUE: t_byte_offset <- [DW_OP_plus_uconst 20] [$sp+0]
	@DEBUG_VALUE: LCD_ShowChar:csize <- [DW_OP_plus_uconst 24, DW_OP_deref_size 4, DW_OP_LLVM_convert 32 7, DW_OP_LLVM_convert 16 7, DW_OP_stack_value] $sp
	@DEBUG_VALUE: LCD_ShowChar:x <- $r5
	@DEBUG_VALUE: LCD_ShowChar:y0 <- $r4
	@DEBUG_VALUE: LCD_ShowChar:y <- $r4
	cmp	r2, #0
	movw	r2, :lower16:BACK_COLOR
	movt	r2, :upper16:BACK_COLOR
	movw	r3, :lower16:POINT_COLOR
	movt	r3, :upper16:POINT_COLOR
	it	mi
	movmi	r2, r3
	ldr	r2, [r2]
	bl	LCD_Fast_DrawPoint
.Ltmp695:
.LBB26_19:                              @   in Loop: Header=BB26_20 Depth=2
	@DEBUG_VALUE: current_pixel_x <- $r11
	@DEBUG_VALUE: LCD_ShowChar:t1 <- $r9
	@DEBUG_VALUE: LCD_ShowChar:temp <- $r10
	@DEBUG_VALUE: t_byte_offset <- [DW_OP_plus_uconst 20] [$sp+0]
	@DEBUG_VALUE: LCD_ShowChar:csize <- [DW_OP_plus_uconst 24, DW_OP_deref_size 4, DW_OP_LLVM_convert 32 7, DW_OP_LLVM_convert 16 7, DW_OP_stack_value] $sp
	@DEBUG_VALUE: LCD_ShowChar:x <- $r5
	@DEBUG_VALUE: LCD_ShowChar:y0 <- $r4
	@DEBUG_VALUE: LCD_ShowChar:y <- $r4
	.loc	4 678 18 is_stmt 1              @ ../User/BSP/lcd/lcd.c:678:18
	lsl.w	r10, r10, #1
.Ltmp696:
	@DEBUG_VALUE: LCD_ShowChar:temp <- $r10
	.loc	4 664 24                        @ ../User/BSP/lcd/lcd.c:664:24
	subs	r7, #1
	.loc	4 664 31 is_stmt 0              @ ../User/BSP/lcd/lcd.c:664:31
	add.w	r9, r9, #1
.Ltmp697:
	@DEBUG_VALUE: LCD_ShowChar:t1 <- $r9
	.loc	4 664 9                         @ ../User/BSP/lcd/lcd.c:664:9
	beq	.LBB26_24
.Ltmp698:
.LBB26_20:                              @   Parent Loop BB26_10 Depth=1
                                        @ =>  This Inner Loop Header: Depth=2
	@DEBUG_VALUE: t_byte_offset <- [DW_OP_plus_uconst 20] [$sp+0]
	@DEBUG_VALUE: LCD_ShowChar:csize <- [DW_OP_plus_uconst 24, DW_OP_deref_size 4, DW_OP_LLVM_convert 32 7, DW_OP_LLVM_convert 16 7, DW_OP_stack_value] $sp
	@DEBUG_VALUE: LCD_ShowChar:x <- $r5
	@DEBUG_VALUE: LCD_ShowChar:y0 <- $r4
	@DEBUG_VALUE: LCD_ShowChar:y <- $r4
	@DEBUG_VALUE: LCD_ShowChar:temp <- $r10
	@DEBUG_VALUE: LCD_ShowChar:t1 <- $r9
	@DEBUG_VALUE: current_pixel_x <- $r11
	@DEBUG_VALUE: current_pixel_y <- [DW_OP_LLVM_convert 32 7, DW_OP_LLVM_convert 16 7, DW_OP_stack_value] undef
	.loc	4 673 42 is_stmt 1              @ ../User/BSP/lcd/lcd.c:673:42
	ldrh.w	r1, [r8]
	.loc	4 673 32 is_stmt 0              @ ../User/BSP/lcd/lcd.c:673:32
	uxth.w	r0, r11
	.loc	4 673 48                        @ ../User/BSP/lcd/lcd.c:673:48
	cmp	r0, r1
	bhs	.LBB26_8
.Ltmp699:
@ %bb.21:                               @   in Loop: Header=BB26_20 Depth=2
	@DEBUG_VALUE: current_pixel_x <- $r11
	@DEBUG_VALUE: LCD_ShowChar:t1 <- $r9
	@DEBUG_VALUE: LCD_ShowChar:temp <- $r10
	@DEBUG_VALUE: t_byte_offset <- [DW_OP_plus_uconst 20] [$sp+0]
	@DEBUG_VALUE: LCD_ShowChar:csize <- [DW_OP_plus_uconst 24, DW_OP_deref_size 4, DW_OP_LLVM_convert 32 7, DW_OP_LLVM_convert 16 7, DW_OP_stack_value] $sp
	@DEBUG_VALUE: LCD_ShowChar:x <- $r5
	@DEBUG_VALUE: LCD_ShowChar:y0 <- $r4
	@DEBUG_VALUE: LCD_ShowChar:y <- $r4
	.loc	4 0 0                           @ ../User/BSP/lcd/lcd.c:0:0
	add.w	r1, r9, r4
	add	r1, r6
.Ltmp700:
	@DEBUG_VALUE: current_pixel_y <- [DW_OP_LLVM_convert 32 7, DW_OP_LLVM_convert 16 7, DW_OP_stack_value] $r1
	.loc	4 673 77                        @ ../User/BSP/lcd/lcd.c:673:77
	ldrh.w	r2, [r8, #2]
	.loc	4 673 51                        @ ../User/BSP/lcd/lcd.c:673:51
	uxth	r1, r1
.Ltmp701:
	.loc	4 673 16                        @ ../User/BSP/lcd/lcd.c:673:16
	cmp	r1, r2
	bhs	.LBB26_8
.Ltmp702:
@ %bb.22:                               @   in Loop: Header=BB26_20 Depth=2
	@DEBUG_VALUE: current_pixel_x <- $r11
	@DEBUG_VALUE: LCD_ShowChar:t1 <- $r9
	@DEBUG_VALUE: LCD_ShowChar:temp <- $r10
	@DEBUG_VALUE: t_byte_offset <- [DW_OP_plus_uconst 20] [$sp+0]
	@DEBUG_VALUE: LCD_ShowChar:csize <- [DW_OP_plus_uconst 24, DW_OP_deref_size 4, DW_OP_LLVM_convert 32 7, DW_OP_LLVM_convert 16 7, DW_OP_stack_value] $sp
	@DEBUG_VALUE: LCD_ShowChar:x <- $r5
	@DEBUG_VALUE: LCD_ShowChar:y0 <- $r4
	@DEBUG_VALUE: LCD_ShowChar:y <- $r4
	.loc	4 675 21 is_stmt 1              @ ../User/BSP/lcd/lcd.c:675:21
	sxtb.w	r2, r10
.Ltmp703:
	.loc	4 675 16 is_stmt 0              @ ../User/BSP/lcd/lcd.c:675:16
	cmp	r2, #0
	bmi	.LBB26_18
.Ltmp704:
@ %bb.23:                               @   in Loop: Header=BB26_20 Depth=2
	@DEBUG_VALUE: current_pixel_x <- $r11
	@DEBUG_VALUE: LCD_ShowChar:t1 <- $r9
	@DEBUG_VALUE: LCD_ShowChar:temp <- $r10
	@DEBUG_VALUE: t_byte_offset <- [DW_OP_plus_uconst 20] [$sp+0]
	@DEBUG_VALUE: LCD_ShowChar:csize <- [DW_OP_plus_uconst 24, DW_OP_deref_size 4, DW_OP_LLVM_convert 32 7, DW_OP_LLVM_convert 16 7, DW_OP_stack_value] $sp
	@DEBUG_VALUE: LCD_ShowChar:x <- $r5
	@DEBUG_VALUE: LCD_ShowChar:y0 <- $r4
	@DEBUG_VALUE: LCD_ShowChar:y <- $r4
	ldr	r3, [sp, #72]
	cmp	r3, #0
	bne	.LBB26_19
	b	.LBB26_18
.Ltmp705:
.LBB26_24:                              @   in Loop: Header=BB26_10 Depth=1
	@DEBUG_VALUE: LCD_ShowChar:t1 <- $r9
	@DEBUG_VALUE: LCD_ShowChar:temp <- $r10
	@DEBUG_VALUE: t_byte_offset <- [DW_OP_plus_uconst 20] [$sp+0]
	@DEBUG_VALUE: LCD_ShowChar:csize <- [DW_OP_plus_uconst 24, DW_OP_deref_size 4, DW_OP_LLVM_convert 32 7, DW_OP_LLVM_convert 16 7, DW_OP_stack_value] $sp
	@DEBUG_VALUE: LCD_ShowChar:x <- $r5
	@DEBUG_VALUE: LCD_ShowChar:y0 <- $r4
	@DEBUG_VALUE: LCD_ShowChar:y <- $r4
	.loc	4 0 16                          @ ../User/BSP/lcd/lcd.c:0:16
	ldr	r1, [sp, #20]                   @ 4-byte Reload
	.loc	4 656 5 is_stmt 1               @ ../User/BSP/lcd/lcd.c:656:5
	ldr	r0, [sp, #24]                   @ 4-byte Reload
.Ltmp706:
	.loc	4 656 68 is_stmt 0              @ ../User/BSP/lcd/lcd.c:656:68
	adds	r1, #1
.Ltmp707:
	@DEBUG_VALUE: t_byte_offset <- $r1
	.loc	4 656 5                         @ ../User/BSP/lcd/lcd.c:656:5
	cmp	r1, r0
	str	r1, [sp, #20]                   @ 4-byte Spill
.Ltmp708:
	@DEBUG_VALUE: t_byte_offset <- [DW_OP_plus_uconst 20] [$sp+0]
	@DEBUG_VALUE: t_byte_offset <- [DW_OP_plus_uconst 20] [$sp+0]
	@DEBUG_VALUE: t_byte_offset <- [DW_OP_plus_uconst 20] [$sp+0]
	bne	.LBB26_10
	b	.LBB26_8
.Ltmp709:
.Lfunc_end26:
	.size	LCD_ShowChar, .Lfunc_end26-LCD_ShowChar
	.cfi_endproc
	.cantunwind
	.fnend
                                        @ -- End function
	.section	.text.LCD_Pow,"ax",%progbits
	.hidden	LCD_Pow                         @ -- Begin function LCD_Pow
	.globl	LCD_Pow
	.p2align	2
	.type	LCD_Pow,%function
	.code	16                              @ @LCD_Pow
	.thumb_func
LCD_Pow:
.Lfunc_begin27:
	.loc	4 684 0 is_stmt 1               @ ../User/BSP/lcd/lcd.c:684:0
	.fnstart
	.cfi_startproc
@ %bb.0:
	@DEBUG_VALUE: LCD_Pow:m <- $r0
	@DEBUG_VALUE: LCD_Pow:n <- [DW_OP_constu 1, DW_OP_minus, DW_OP_stack_value] $r1
	.loc	4 686 5 prologue_end            @ ../User/BSP/lcd/lcd.c:686:5
	cmp	r1, #0
.Ltmp710:
	@DEBUG_VALUE: LCD_Pow:result <- 1
	.loc	4 0 5 is_stmt 0                 @ ../User/BSP/lcd/lcd.c:0:5
	itt	eq
	moveq	r0, #1
.Ltmp711:
	@DEBUG_VALUE: LCD_Pow:m <- [DW_OP_LLVM_entry_value 1] $r0
	.loc	4 687 5 is_stmt 1               @ ../User/BSP/lcd/lcd.c:687:5
	bxeq	lr
.Ltmp712:
.LBB27_1:
	@DEBUG_VALUE: LCD_Pow:m <- [DW_OP_LLVM_entry_value 1] $r0
	@DEBUG_VALUE: LCD_Pow:result <- 1
	@DEBUG_VALUE: LCD_Pow:n <- [DW_OP_constu 1, DW_OP_minus, DW_OP_stack_value] $r1
	@DEBUG_VALUE: LCD_Pow:m <- $r0
	.save	{r7, lr}
	push	{r7, lr}
	.cfi_def_cfa_offset 8
	.cfi_offset lr, -4
	.cfi_offset r7, -8
	.loc	4 686 5                         @ ../User/BSP/lcd/lcd.c:686:5
	subs	r2, r1, #1
	uxtb	r2, r2
	cmp	r2, #3
	and	r12, r1, #3
	bhs	.LBB27_3
.Ltmp713:
@ %bb.2:
	@DEBUG_VALUE: LCD_Pow:result <- 1
	@DEBUG_VALUE: LCD_Pow:n <- [DW_OP_constu 1, DW_OP_minus, DW_OP_stack_value] $r1
	@DEBUG_VALUE: LCD_Pow:m <- $r0
	.loc	4 0 5 is_stmt 0                 @ ../User/BSP/lcd/lcd.c:0:5
	movs	r1, #1
.Ltmp714:
	b	.LBB27_5
.Ltmp715:
.LBB27_3:
	@DEBUG_VALUE: LCD_Pow:result <- 1
	@DEBUG_VALUE: LCD_Pow:n <- [DW_OP_constu 1, DW_OP_minus, DW_OP_stack_value] $r1
	@DEBUG_VALUE: LCD_Pow:m <- $r0
	.loc	4 686 5                         @ ../User/BSP/lcd/lcd.c:686:5
	and	lr, r1, #252
	movs	r2, #0
	movs	r1, #1
.Ltmp716:
	.p2align	2
.LBB27_4:                               @ =>This Inner Loop Header: Depth=1
	@DEBUG_VALUE: LCD_Pow:m <- $r0
	@DEBUG_VALUE: LCD_Pow:n <- [DW_OP_constu 1, DW_OP_minus, DW_OP_stack_value] undef
	@DEBUG_VALUE: LCD_Pow:result <- $r1
	.loc	4 686 23                        @ ../User/BSP/lcd/lcd.c:686:23
	muls	r1, r0, r1
.Ltmp717:
	@DEBUG_VALUE: LCD_Pow:result <- $r1
	@DEBUG_VALUE: LCD_Pow:n <- [DW_OP_constu 2, DW_OP_minus, DW_OP_stack_value] undef
	muls	r1, r0, r1
.Ltmp718:
	@DEBUG_VALUE: LCD_Pow:result <- $r1
	@DEBUG_VALUE: LCD_Pow:n <- [DW_OP_constu 3, DW_OP_minus, DW_OP_stack_value] undef
	.loc	4 686 5                         @ ../User/BSP/lcd/lcd.c:686:5
	adds	r2, #4
	.loc	4 686 23                        @ ../User/BSP/lcd/lcd.c:686:23
	muls	r1, r0, r1
.Ltmp719:
	@DEBUG_VALUE: LCD_Pow:result <- $r1
	@DEBUG_VALUE: LCD_Pow:n <- [DW_OP_constu 4, DW_OP_minus, DW_OP_stack_value] undef
	.loc	4 686 5                         @ ../User/BSP/lcd/lcd.c:686:5
	uxtb	r3, r2
	cmp	r3, lr
	.loc	4 686 23                        @ ../User/BSP/lcd/lcd.c:686:23
	mul	r1, r0, r1
.Ltmp720:
	@DEBUG_VALUE: LCD_Pow:result <- $r1
	@DEBUG_VALUE: LCD_Pow:n <- [DW_OP_constu 4, DW_OP_minus, DW_OP_constu 1, DW_OP_minus, DW_OP_stack_value] undef
	.loc	4 686 5                         @ ../User/BSP/lcd/lcd.c:686:5
	bne	.LBB27_4
.Ltmp721:
.LBB27_5:
	@DEBUG_VALUE: LCD_Pow:m <- $r0
	cmp.w	r12, #0
	pop.w	{r7, lr}
	beq	.LBB27_8
.Ltmp722:
@ %bb.6:
	@DEBUG_VALUE: LCD_Pow:m <- $r0
	@DEBUG_VALUE: LCD_Pow:n <- [DW_OP_constu 1, DW_OP_minus, DW_OP_stack_value] undef
	@DEBUG_VALUE: LCD_Pow:result <- $r1
	cmp.w	r12, #1
	.loc	4 686 23                        @ ../User/BSP/lcd/lcd.c:686:23
	mul	r1, r0, r1
.Ltmp723:
	@DEBUG_VALUE: LCD_Pow:result <- $r1
	@DEBUG_VALUE: LCD_Pow:n <- [DW_OP_constu 1, DW_OP_minus, DW_OP_constu 1, DW_OP_minus, DW_OP_stack_value] undef
	.loc	4 686 5                         @ ../User/BSP/lcd/lcd.c:686:5
	beq	.LBB27_8
.Ltmp724:
@ %bb.7:
	@DEBUG_VALUE: LCD_Pow:result <- $r1
	@DEBUG_VALUE: LCD_Pow:m <- $r0
	@DEBUG_VALUE: LCD_Pow:n <- [DW_OP_constu 1, DW_OP_minus, DW_OP_constu 1, DW_OP_minus, DW_OP_stack_value] undef
	@DEBUG_VALUE: LCD_Pow:result <- undef
	.loc	4 686 23                        @ ../User/BSP/lcd/lcd.c:686:23
	muls	r1, r0, r1
.Ltmp725:
	@DEBUG_VALUE: LCD_Pow:result <- $r1
	@DEBUG_VALUE: LCD_Pow:n <- [DW_OP_constu 1, DW_OP_minus, DW_OP_constu 1, DW_OP_minus, DW_OP_constu 1, DW_OP_minus, DW_OP_stack_value] undef
	.loc	4 686 5                         @ ../User/BSP/lcd/lcd.c:686:5
	cmp.w	r12, #2
	it	ne
	mulne	r1, r0, r1
.Ltmp726:
.LBB27_8:
	@DEBUG_VALUE: LCD_Pow:m <- $r0
	.loc	4 687 5 is_stmt 1               @ ../User/BSP/lcd/lcd.c:687:5
	mov	r0, r1
.Ltmp727:
	bx	lr
.Ltmp728:
.Lfunc_end27:
	.size	LCD_Pow, .Lfunc_end27-LCD_Pow
	.cfi_endproc
	.cantunwind
	.fnend
                                        @ -- End function
	.section	.text.LCD_ShowNum,"ax",%progbits
	.hidden	LCD_ShowNum                     @ -- Begin function LCD_ShowNum
	.globl	LCD_ShowNum
	.p2align	2
	.type	LCD_ShowNum,%function
	.code	16                              @ @LCD_ShowNum
	.thumb_func
LCD_ShowNum:
.Lfunc_begin28:
	.loc	4 691 0                         @ ../User/BSP/lcd/lcd.c:691:0
	.fnstart
	.cfi_startproc
@ %bb.0:
	@DEBUG_VALUE: LCD_ShowNum:x <- $r0
	@DEBUG_VALUE: LCD_ShowNum:y <- $r1
	@DEBUG_VALUE: LCD_ShowNum:num <- $r2
	@DEBUG_VALUE: LCD_ShowNum:len <- $r3
	@DEBUG_VALUE: LCD_ShowNum:len <- $r3
	@DEBUG_VALUE: LCD_ShowNum:num <- $r2
	.save	{r4, r5, r6, r7, r8, r9, r10, r11, lr}
	push.w	{r4, r5, r6, r7, r8, r9, r10, r11, lr}
	.cfi_def_cfa_offset 36
	.cfi_offset lr, -4
	.cfi_offset r11, -8
	.cfi_offset r10, -12
	.cfi_offset r9, -16
	.cfi_offset r8, -20
	.cfi_offset r7, -24
	.cfi_offset r6, -28
	.cfi_offset r5, -32
	.cfi_offset r4, -36
	.pad	#28
	sub	sp, #28
	.cfi_def_cfa_offset 64
.Ltmp729:
	.loc	4 694 5 prologue_end            @ ../User/BSP/lcd/lcd.c:694:5
	cmp	r3, #0
	str	r1, [sp, #24]                   @ 4-byte Spill
.Ltmp730:
	@DEBUG_VALUE: LCD_ShowNum:y <- [DW_OP_plus_uconst 24] [$sp+0]
	@DEBUG_VALUE: LCD_ShowNum:y <- [DW_OP_plus_uconst 24] [$sp+0]
	.loc	4 0 5 is_stmt 0                 @ ../User/BSP/lcd/lcd.c:0:5
	str	r0, [sp, #20]                   @ 4-byte Spill
.Ltmp731:
	@DEBUG_VALUE: LCD_ShowNum:x <- [DW_OP_plus_uconst 20] [$sp+0]
	@DEBUG_VALUE: LCD_ShowNum:t <- 0
	@DEBUG_VALUE: LCD_ShowNum:enshow <- 0
	@DEBUG_VALUE: LCD_ShowNum:size <- undef
	@DEBUG_VALUE: LCD_ShowNum:x <- [DW_OP_plus_uconst 20] [$sp+0]
	.loc	4 694 5                         @ ../User/BSP/lcd/lcd.c:694:5
	beq	.LBB28_19
.Ltmp732:
@ %bb.1:
	@DEBUG_VALUE: LCD_ShowNum:x <- [DW_OP_plus_uconst 20] [$sp+0]
	@DEBUG_VALUE: LCD_ShowNum:enshow <- 0
	@DEBUG_VALUE: LCD_ShowNum:t <- 0
	@DEBUG_VALUE: LCD_ShowNum:y <- [DW_OP_plus_uconst 24] [$sp+0]
	@DEBUG_VALUE: LCD_ShowNum:len <- $r3
	@DEBUG_VALUE: LCD_ShowNum:num <- $r2
	.loc	4 0 5                           @ ../User/BSP/lcd/lcd.c:0:5
	ldr	r0, [sp, #64]
.Ltmp733:
	@DEBUG_VALUE: LCD_ShowNum:size <- $r0
	@DEBUG_VALUE: LCD_ShowNum:y <- [DW_OP_plus_uconst 24] [$sp+0]
	mov	r4, r3
.Ltmp734:
	@DEBUG_VALUE: LCD_ShowNum:len <- $r4
	lsrs	r0, r0, #1
.Ltmp735:
	.loc	4 694 5                         @ ../User/BSP/lcd/lcd.c:694:5
	str	r0, [sp, #16]                   @ 4-byte Spill
	subs	r0, r3, #2
	str	r0, [sp, #4]                    @ 4-byte Spill
	rsbs	r0, r3, #0
	mov	r7, r2
.Ltmp736:
	@DEBUG_VALUE: LCD_ShowNum:num <- $r7
	.loc	4 0 5                           @ ../User/BSP/lcd/lcd.c:0:5
	subs	r1, r3, #1
	uxtb.w	r8, r0
	movw	r11, #10000
	mov.w	r9, #0
	movs	r6, #0
	mov.w	r10, #0
	movs	r5, #0
	str	r1, [sp, #12]                   @ 4-byte Spill
.Ltmp737:
	@DEBUG_VALUE: LCD_ShowNum:size <- undef
	str	r2, [sp, #8]                    @ 4-byte Spill
	b	.LBB28_5
.Ltmp738:
	.p2align	2
.LBB28_2:                               @   in Loop: Header=BB28_5 Depth=1
	@DEBUG_VALUE: LCD_ShowNum:temp <- [DW_OP_LLVM_convert 32 7, DW_OP_LLVM_convert 8 7, DW_OP_stack_value] $r0
	@DEBUG_VALUE: LCD_ShowNum:t <- $r9
	@DEBUG_VALUE: LCD_ShowNum:enshow <- $r6
	@DEBUG_VALUE: LCD_ShowNum:len <- $r4
	@DEBUG_VALUE: LCD_ShowNum:x <- [DW_OP_plus_uconst 20] [$sp+0]
	@DEBUG_VALUE: LCD_ShowNum:y <- [DW_OP_plus_uconst 24] [$sp+0]
	movs	r6, #1
.Ltmp739:
.LBB28_3:                               @   in Loop: Header=BB28_5 Depth=1
	@DEBUG_VALUE: LCD_ShowNum:temp <- [DW_OP_LLVM_convert 32 7, DW_OP_LLVM_convert 8 7, DW_OP_stack_value] $r0
	@DEBUG_VALUE: LCD_ShowNum:t <- $r9
	@DEBUG_VALUE: LCD_ShowNum:len <- $r4
	@DEBUG_VALUE: LCD_ShowNum:x <- [DW_OP_plus_uconst 20] [$sp+0]
	@DEBUG_VALUE: LCD_ShowNum:y <- [DW_OP_plus_uconst 24] [$sp+0]
	@DEBUG_VALUE: LCD_ShowNum:enshow <- $r6
	.loc	4 706 22 is_stmt 1              @ ../User/BSP/lcd/lcd.c:706:22
	ldrd	r2, r1, [sp, #16]               @ 8-byte Folded Reload
	.loc	4 706 9 is_stmt 0               @ ../User/BSP/lcd/lcd.c:706:9
	ldr	r3, [sp, #64]
	.loc	4 706 22                        @ ../User/BSP/lcd/lcd.c:706:22
	mla	r1, r9, r2, r1
	.loc	4 706 45                        @ ../User/BSP/lcd/lcd.c:706:45
	orr	r2, r0, #48
	.loc	4 706 9                         @ ../User/BSP/lcd/lcd.c:706:9
	uxth	r0, r1
.Ltmp740:
	ldr	r1, [sp, #24]                   @ 4-byte Reload
	uxtb	r2, r2
	str	r5, [sp]
.Ltmp741:
.LBB28_4:                               @   in Loop: Header=BB28_5 Depth=1
	@DEBUG_VALUE: LCD_ShowNum:t <- $r9
	@DEBUG_VALUE: LCD_ShowNum:len <- $r4
	@DEBUG_VALUE: LCD_ShowNum:x <- [DW_OP_plus_uconst 20] [$sp+0]
	@DEBUG_VALUE: LCD_ShowNum:y <- [DW_OP_plus_uconst 24] [$sp+0]
	.loc	4 0 0                           @ ../User/BSP/lcd/lcd.c:0:0
	bl	LCD_ShowChar
.Ltmp742:
	@DEBUG_VALUE: LCD_ShowNum:enshow <- $r6
	.loc	4 694 26 is_stmt 1              @ ../User/BSP/lcd/lcd.c:694:26
	add.w	r9, r9, #1
.Ltmp743:
	.loc	4 694 5 is_stmt 0               @ ../User/BSP/lcd/lcd.c:694:5
	cmp	r9, r4
.Ltmp744:
	.loc	4 694 26                        @ ../User/BSP/lcd/lcd.c:694:26
	add.w	r10, r10, #1
.Ltmp745:
	@DEBUG_VALUE: LCD_ShowNum:t <- $r9
	.loc	4 694 5                         @ ../User/BSP/lcd/lcd.c:694:5
	beq	.LBB28_19
.Ltmp746:
.LBB28_5:                               @ =>This Loop Header: Depth=1
                                        @     Child Loop BB28_10 Depth 2
	@DEBUG_VALUE: LCD_ShowNum:len <- $r4
	@DEBUG_VALUE: LCD_ShowNum:x <- [DW_OP_plus_uconst 20] [$sp+0]
	@DEBUG_VALUE: LCD_ShowNum:y <- [DW_OP_plus_uconst 24] [$sp+0]
	@DEBUG_VALUE: LCD_ShowNum:enshow <- $r6
	@DEBUG_VALUE: LCD_ShowNum:t <- $r9
	.loc	4 696 43 is_stmt 1              @ ../User/BSP/lcd/lcd.c:696:43
	mvn.w	r0, r10
	@DEBUG_VALUE: LCD_Pow:n <- [DW_OP_LLVM_arg 0, DW_OP_LLVM_arg 1, DW_OP_plus, DW_OP_constu 1, DW_OP_minus, DW_OP_stack_value] $r0, $r4
	uxtb	r0, r0
.Ltmp747:
	@DEBUG_VALUE: LCD_Pow:result <- 1
	@DEBUG_VALUE: LCD_Pow:m <- 10
	.loc	4 686 5                         @ ../User/BSP/lcd/lcd.c:686:5
	cmp	r0, r8
	bne	.LBB28_7
.Ltmp748:
@ %bb.6:                                @   in Loop: Header=BB28_5 Depth=1
	@DEBUG_VALUE: LCD_Pow:m <- 10
	@DEBUG_VALUE: LCD_Pow:result <- 1
	@DEBUG_VALUE: LCD_ShowNum:t <- $r9
	@DEBUG_VALUE: LCD_ShowNum:enshow <- $r6
	@DEBUG_VALUE: LCD_ShowNum:len <- $r4
	@DEBUG_VALUE: LCD_ShowNum:x <- [DW_OP_plus_uconst 20] [$sp+0]
	@DEBUG_VALUE: LCD_ShowNum:y <- [DW_OP_plus_uconst 24] [$sp+0]
	.loc	4 0 5 is_stmt 0                 @ ../User/BSP/lcd/lcd.c:0:5
	movs	r0, #1
	b	.LBB28_15
.Ltmp749:
	.p2align	2
.LBB28_7:                               @   in Loop: Header=BB28_5 Depth=1
	@DEBUG_VALUE: LCD_Pow:m <- 10
	@DEBUG_VALUE: LCD_Pow:result <- 1
	@DEBUG_VALUE: LCD_ShowNum:t <- $r9
	@DEBUG_VALUE: LCD_ShowNum:enshow <- $r6
	@DEBUG_VALUE: LCD_ShowNum:len <- $r4
	@DEBUG_VALUE: LCD_ShowNum:x <- [DW_OP_plus_uconst 20] [$sp+0]
	@DEBUG_VALUE: LCD_ShowNum:y <- [DW_OP_plus_uconst 24] [$sp+0]
	.loc	4 696 43 is_stmt 1              @ ../User/BSP/lcd/lcd.c:696:43
	ldr	r1, [sp, #4]                    @ 4-byte Reload
	mvn.w	r0, r9
	sub.w	r1, r1, r9
	uxtb	r1, r1
.Ltmp750:
	.loc	4 686 5                         @ ../User/BSP/lcd/lcd.c:686:5
	cmp	r1, #3
.Ltmp751:
	.loc	4 696 43                        @ ../User/BSP/lcd/lcd.c:696:43
	add.w	r1, r0, r4
.Ltmp752:
	.loc	4 686 5                         @ ../User/BSP/lcd/lcd.c:686:5
	bhs	.LBB28_9
.Ltmp753:
@ %bb.8:                                @   in Loop: Header=BB28_5 Depth=1
	@DEBUG_VALUE: LCD_Pow:m <- 10
	@DEBUG_VALUE: LCD_Pow:result <- 1
	@DEBUG_VALUE: LCD_ShowNum:t <- $r9
	@DEBUG_VALUE: LCD_ShowNum:enshow <- $r6
	@DEBUG_VALUE: LCD_ShowNum:len <- $r4
	@DEBUG_VALUE: LCD_ShowNum:x <- [DW_OP_plus_uconst 20] [$sp+0]
	@DEBUG_VALUE: LCD_ShowNum:y <- [DW_OP_plus_uconst 24] [$sp+0]
	.loc	4 0 5 is_stmt 0                 @ ../User/BSP/lcd/lcd.c:0:5
	movs	r0, #1
	b	.LBB28_11
.Ltmp754:
	.p2align	2
.LBB28_9:                               @   in Loop: Header=BB28_5 Depth=1
	@DEBUG_VALUE: LCD_Pow:m <- 10
	@DEBUG_VALUE: LCD_Pow:result <- 1
	@DEBUG_VALUE: LCD_ShowNum:t <- $r9
	@DEBUG_VALUE: LCD_ShowNum:enshow <- $r6
	@DEBUG_VALUE: LCD_ShowNum:len <- $r4
	@DEBUG_VALUE: LCD_ShowNum:x <- [DW_OP_plus_uconst 20] [$sp+0]
	@DEBUG_VALUE: LCD_ShowNum:y <- [DW_OP_plus_uconst 24] [$sp+0]
	.loc	4 686 5                         @ ../User/BSP/lcd/lcd.c:686:5
	and	r2, r1, #252
	movs	r3, #0
	movs	r0, #1
.Ltmp755:
	.p2align	2
.LBB28_10:                              @   Parent Loop BB28_5 Depth=1
                                        @ =>  This Inner Loop Header: Depth=2
	@DEBUG_VALUE: LCD_Pow:m <- 10
	@DEBUG_VALUE: LCD_ShowNum:t <- $r9
	@DEBUG_VALUE: LCD_ShowNum:enshow <- $r6
	@DEBUG_VALUE: LCD_ShowNum:len <- $r4
	@DEBUG_VALUE: LCD_ShowNum:x <- [DW_OP_plus_uconst 20] [$sp+0]
	@DEBUG_VALUE: LCD_ShowNum:y <- [DW_OP_plus_uconst 24] [$sp+0]
	@DEBUG_VALUE: LCD_Pow:n <- [DW_OP_constu 4, DW_OP_minus, DW_OP_stack_value] undef
	@DEBUG_VALUE: LCD_Pow:result <- [DW_OP_constu 1000, DW_OP_mul, DW_OP_stack_value] $r0
	adds	r3, #4
	uxtb	r7, r3
.Ltmp756:
	@DEBUG_VALUE: LCD_ShowNum:num <- [DW_OP_LLVM_entry_value 1] $r2
	cmp	r7, r2
	.loc	4 686 23                        @ ../User/BSP/lcd/lcd.c:686:23
	mul	r0, r0, r11
.Ltmp757:
	@DEBUG_VALUE: LCD_Pow:result <- $r0
	@DEBUG_VALUE: LCD_Pow:n <- [DW_OP_constu 4, DW_OP_minus, DW_OP_constu 1, DW_OP_minus, DW_OP_stack_value] undef
	.loc	4 686 5                         @ ../User/BSP/lcd/lcd.c:686:5
	bne	.LBB28_10
.Ltmp758:
.LBB28_11:                              @   in Loop: Header=BB28_5 Depth=1
	@DEBUG_VALUE: LCD_Pow:m <- 10
	@DEBUG_VALUE: LCD_ShowNum:t <- $r9
	@DEBUG_VALUE: LCD_ShowNum:enshow <- $r6
	@DEBUG_VALUE: LCD_ShowNum:len <- $r4
	@DEBUG_VALUE: LCD_ShowNum:x <- [DW_OP_plus_uconst 20] [$sp+0]
	@DEBUG_VALUE: LCD_ShowNum:y <- [DW_OP_plus_uconst 24] [$sp+0]
	.loc	4 0 5                           @ ../User/BSP/lcd/lcd.c:0:5
	ldr	r7, [sp, #8]                    @ 4-byte Reload
	.loc	4 686 5                         @ ../User/BSP/lcd/lcd.c:686:5
	ands	r1, r1, #3
	beq	.LBB28_15
.Ltmp759:
@ %bb.12:                               @   in Loop: Header=BB28_5 Depth=1
	@DEBUG_VALUE: LCD_Pow:m <- 10
	@DEBUG_VALUE: LCD_ShowNum:t <- $r9
	@DEBUG_VALUE: LCD_ShowNum:enshow <- $r6
	@DEBUG_VALUE: LCD_ShowNum:len <- $r4
	@DEBUG_VALUE: LCD_ShowNum:x <- [DW_OP_plus_uconst 20] [$sp+0]
	@DEBUG_VALUE: LCD_ShowNum:y <- [DW_OP_plus_uconst 24] [$sp+0]
	@DEBUG_VALUE: LCD_Pow:n <- [DW_OP_constu 1, DW_OP_minus, DW_OP_constu 1, DW_OP_minus, DW_OP_stack_value] undef
	@DEBUG_VALUE: LCD_Pow:result <- undef
	cmp	r1, #1
	bne	.LBB28_14
.Ltmp760:
@ %bb.13:                               @   in Loop: Header=BB28_5 Depth=1
	@DEBUG_VALUE: LCD_Pow:m <- 10
	@DEBUG_VALUE: LCD_ShowNum:t <- $r9
	@DEBUG_VALUE: LCD_ShowNum:enshow <- $r6
	@DEBUG_VALUE: LCD_ShowNum:len <- $r4
	@DEBUG_VALUE: LCD_ShowNum:x <- [DW_OP_plus_uconst 20] [$sp+0]
	@DEBUG_VALUE: LCD_ShowNum:y <- [DW_OP_plus_uconst 24] [$sp+0]
	.loc	4 0 5                           @ ../User/BSP/lcd/lcd.c:0:5
	add.w	r0, r0, r0, lsl #2
	lsls	r0, r0, #1
.Ltmp761:
	@DEBUG_VALUE: LCD_Pow:result <- $r0
	b	.LBB28_15
.Ltmp762:
.LBB28_14:                              @   in Loop: Header=BB28_5 Depth=1
	@DEBUG_VALUE: LCD_Pow:m <- 10
	@DEBUG_VALUE: LCD_ShowNum:t <- $r9
	@DEBUG_VALUE: LCD_ShowNum:enshow <- $r6
	@DEBUG_VALUE: LCD_ShowNum:len <- $r4
	@DEBUG_VALUE: LCD_ShowNum:x <- [DW_OP_plus_uconst 20] [$sp+0]
	@DEBUG_VALUE: LCD_ShowNum:y <- [DW_OP_plus_uconst 24] [$sp+0]
	@DEBUG_VALUE: LCD_Pow:n <- [DW_OP_constu 1, DW_OP_minus, DW_OP_constu 1, DW_OP_minus, DW_OP_constu 1, DW_OP_minus, DW_OP_stack_value] undef
	@DEBUG_VALUE: LCD_Pow:result <- undef
	mov.w	r2, #1000
	muls	r2, r0, r2
	.loc	4 686 5                         @ ../User/BSP/lcd/lcd.c:686:5
	cmp	r1, #2
	mov.w	r1, #100
	it	eq
	muleq	r2, r0, r1
	mov	r0, r2
.Ltmp763:
	.p2align	2
.LBB28_15:                              @   in Loop: Header=BB28_5 Depth=1
	@DEBUG_VALUE: LCD_ShowNum:t <- $r9
	@DEBUG_VALUE: LCD_ShowNum:enshow <- $r6
	@DEBUG_VALUE: LCD_ShowNum:len <- $r4
	@DEBUG_VALUE: LCD_ShowNum:x <- [DW_OP_plus_uconst 20] [$sp+0]
	@DEBUG_VALUE: LCD_ShowNum:y <- [DW_OP_plus_uconst 24] [$sp+0]
	.loc	4 696 21 is_stmt 1              @ ../User/BSP/lcd/lcd.c:696:21
	udiv	r0, r7, r0
	.loc	4 696 49 is_stmt 0              @ ../User/BSP/lcd/lcd.c:696:49
	movw	r1, #52429
	movt	r1, #52428
	umull	r1, r2, r0, r1
	lsrs	r1, r2, #3
	add.w	r1, r1, r1, lsl #2
.Ltmp764:
	.loc	4 697 24 is_stmt 1              @ ../User/BSP/lcd/lcd.c:697:24
	cmp	r6, #0
.Ltmp765:
	.loc	4 696 49                        @ ../User/BSP/lcd/lcd.c:696:49
	sub.w	r0, r0, r1, lsl #1
.Ltmp766:
	@DEBUG_VALUE: LCD_ShowNum:temp <- [DW_OP_LLVM_convert 32 7, DW_OP_LLVM_convert 8 7, DW_OP_stack_value] $r0
	.loc	4 697 24                        @ ../User/BSP/lcd/lcd.c:697:24
	bne	.LBB28_3
.Ltmp767:
@ %bb.16:                               @   in Loop: Header=BB28_5 Depth=1
	@DEBUG_VALUE: LCD_ShowNum:temp <- [DW_OP_LLVM_convert 32 7, DW_OP_LLVM_convert 8 7, DW_OP_stack_value] $r0
	@DEBUG_VALUE: LCD_ShowNum:t <- $r9
	@DEBUG_VALUE: LCD_ShowNum:enshow <- $r6
	@DEBUG_VALUE: LCD_ShowNum:len <- $r4
	@DEBUG_VALUE: LCD_ShowNum:x <- [DW_OP_plus_uconst 20] [$sp+0]
	@DEBUG_VALUE: LCD_ShowNum:y <- [DW_OP_plus_uconst 24] [$sp+0]
	ldr	r1, [sp, #12]                   @ 4-byte Reload
	cmp	r1, r9
	ble	.LBB28_3
.Ltmp768:
@ %bb.17:                               @   in Loop: Header=BB28_5 Depth=1
	@DEBUG_VALUE: LCD_ShowNum:temp <- [DW_OP_LLVM_convert 32 7, DW_OP_LLVM_convert 8 7, DW_OP_stack_value] $r0
	@DEBUG_VALUE: LCD_ShowNum:t <- $r9
	@DEBUG_VALUE: LCD_ShowNum:enshow <- $r6
	@DEBUG_VALUE: LCD_ShowNum:len <- $r4
	@DEBUG_VALUE: LCD_ShowNum:x <- [DW_OP_plus_uconst 20] [$sp+0]
	@DEBUG_VALUE: LCD_ShowNum:y <- [DW_OP_plus_uconst 24] [$sp+0]
	.loc	4 699 16                        @ ../User/BSP/lcd/lcd.c:699:16
	cmp	r0, #0
	bne	.LBB28_2
.Ltmp769:
@ %bb.18:                               @   in Loop: Header=BB28_5 Depth=1
	@DEBUG_VALUE: LCD_ShowNum:temp <- [DW_OP_LLVM_convert 32 7, DW_OP_LLVM_convert 8 7, DW_OP_stack_value] $r0
	@DEBUG_VALUE: LCD_ShowNum:t <- $r9
	@DEBUG_VALUE: LCD_ShowNum:enshow <- $r6
	@DEBUG_VALUE: LCD_ShowNum:len <- $r4
	@DEBUG_VALUE: LCD_ShowNum:x <- [DW_OP_plus_uconst 20] [$sp+0]
	@DEBUG_VALUE: LCD_ShowNum:y <- [DW_OP_plus_uconst 24] [$sp+0]
	.loc	4 701 30                        @ ../User/BSP/lcd/lcd.c:701:30
	ldrd	r1, r0, [sp, #16]               @ 8-byte Folded Reload
.Ltmp770:
	.loc	4 0 30 is_stmt 0                @ ../User/BSP/lcd/lcd.c:0:30
	movs	r6, #0
.Ltmp771:
	.loc	4 701 30                        @ ../User/BSP/lcd/lcd.c:701:30
	mla	r0, r9, r1, r0
	.loc	4 701 17                        @ ../User/BSP/lcd/lcd.c:701:17
	ldr	r1, [sp, #24]                   @ 4-byte Reload
	ldr	r3, [sp, #64]
	uxth	r0, r0
	movs	r2, #32
	str	r6, [sp]
	b	.LBB28_4
.Ltmp772:
.LBB28_19:
	@DEBUG_VALUE: LCD_ShowNum:x <- [DW_OP_plus_uconst 20] [$sp+0]
	@DEBUG_VALUE: LCD_ShowNum:y <- [DW_OP_plus_uconst 24] [$sp+0]
	.loc	4 708 1 is_stmt 1               @ ../User/BSP/lcd/lcd.c:708:1
	add	sp, #28
	pop.w	{r4, r5, r6, r7, r8, r9, r10, r11, pc}
.Ltmp773:
.Lfunc_end28:
	.size	LCD_ShowNum, .Lfunc_end28-LCD_ShowNum
	.cfi_endproc
	.cantunwind
	.fnend
                                        @ -- End function
	.section	.text.LCD_ShowxNum,"ax",%progbits
	.hidden	LCD_ShowxNum                    @ -- Begin function LCD_ShowxNum
	.globl	LCD_ShowxNum
	.p2align	2
	.type	LCD_ShowxNum,%function
	.code	16                              @ @LCD_ShowxNum
	.thumb_func
LCD_ShowxNum:
.Lfunc_begin29:
	.loc	4 711 0                         @ ../User/BSP/lcd/lcd.c:711:0
	.fnstart
	.cfi_startproc
@ %bb.0:
	@DEBUG_VALUE: LCD_ShowxNum:x <- $r0
	@DEBUG_VALUE: LCD_ShowxNum:y <- $r1
	@DEBUG_VALUE: LCD_ShowxNum:num <- $r2
	@DEBUG_VALUE: LCD_ShowxNum:len <- $r3
	@DEBUG_VALUE: LCD_ShowxNum:len <- $r3
	@DEBUG_VALUE: LCD_ShowxNum:num <- $r2
	.save	{r4, r5, r6, r7, r8, r9, r10, r11, lr}
	push.w	{r4, r5, r6, r7, r8, r9, r10, r11, lr}
	.cfi_def_cfa_offset 36
	.cfi_offset lr, -4
	.cfi_offset r11, -8
	.cfi_offset r10, -12
	.cfi_offset r9, -16
	.cfi_offset r8, -20
	.cfi_offset r7, -24
	.cfi_offset r6, -28
	.cfi_offset r5, -32
	.cfi_offset r4, -36
	.pad	#28
	sub	sp, #28
	.cfi_def_cfa_offset 64
.Ltmp774:
	.loc	4 714 5 prologue_end            @ ../User/BSP/lcd/lcd.c:714:5
	cmp	r3, #0
	str	r1, [sp, #20]                   @ 4-byte Spill
.Ltmp775:
	@DEBUG_VALUE: LCD_ShowxNum:y <- [DW_OP_plus_uconst 20] [$sp+0]
	@DEBUG_VALUE: LCD_ShowxNum:y <- [DW_OP_plus_uconst 20] [$sp+0]
	.loc	4 0 5 is_stmt 0                 @ ../User/BSP/lcd/lcd.c:0:5
	str	r0, [sp, #24]                   @ 4-byte Spill
.Ltmp776:
	@DEBUG_VALUE: LCD_ShowxNum:x <- [DW_OP_plus_uconst 24] [$sp+0]
	@DEBUG_VALUE: LCD_ShowxNum:t <- 0
	@DEBUG_VALUE: LCD_ShowxNum:enshow <- 0
	@DEBUG_VALUE: LCD_ShowxNum:size <- undef
	@DEBUG_VALUE: LCD_ShowxNum:mode <- undef
	@DEBUG_VALUE: LCD_ShowxNum:x <- [DW_OP_plus_uconst 24] [$sp+0]
	.loc	4 714 5                         @ ../User/BSP/lcd/lcd.c:714:5
	beq.w	.LBB29_19
.Ltmp777:
@ %bb.1:
	@DEBUG_VALUE: LCD_ShowxNum:x <- [DW_OP_plus_uconst 24] [$sp+0]
	@DEBUG_VALUE: LCD_ShowxNum:enshow <- 0
	@DEBUG_VALUE: LCD_ShowxNum:t <- 0
	@DEBUG_VALUE: LCD_ShowxNum:y <- [DW_OP_plus_uconst 20] [$sp+0]
	@DEBUG_VALUE: LCD_ShowxNum:len <- $r3
	@DEBUG_VALUE: LCD_ShowxNum:num <- $r2
	.loc	4 0 5                           @ ../User/BSP/lcd/lcd.c:0:5
	ldrd	r1, r0, [sp, #64]
.Ltmp778:
	@DEBUG_VALUE: LCD_ShowxNum:size <- $r1
	@DEBUG_VALUE: LCD_ShowxNum:y <- [DW_OP_plus_uconst 20] [$sp+0]
	mov	r4, r3
.Ltmp779:
	@DEBUG_VALUE: LCD_ShowxNum:len <- $r4
	and	r9, r0, #1
	.loc	4 714 5                         @ ../User/BSP/lcd/lcd.c:714:5
	subs	r0, r3, #2
	str	r0, [sp, #4]                    @ 4-byte Spill
	rsbs	r0, r3, #0
	mov	r5, r2
.Ltmp780:
	@DEBUG_VALUE: LCD_ShowxNum:num <- $r5
	@DEBUG_VALUE: LCD_ShowxNum:num <- $r5
	@DEBUG_VALUE: LCD_ShowxNum:mode <- $r0
	.loc	4 0 5                           @ ../User/BSP/lcd/lcd.c:0:5
	subs	r2, r3, #1
	lsrs	r1, r1, #1
.Ltmp781:
	mov.w	r8, #0
	uxtb.w	r10, r0
	movw	r11, #10000
	movs	r7, #0
	movs	r6, #0
	str	r2, [sp, #12]                   @ 4-byte Spill
.Ltmp782:
	@DEBUG_VALUE: LCD_ShowxNum:size <- undef
	str	r1, [sp, #16]                   @ 4-byte Spill
.Ltmp783:
	@DEBUG_VALUE: LCD_ShowxNum:mode <- undef
	str	r5, [sp, #8]                    @ 4-byte Spill
	b	.LBB29_5
.Ltmp784:
	.p2align	2
.LBB29_2:                               @   in Loop: Header=BB29_5 Depth=1
	@DEBUG_VALUE: LCD_ShowxNum:temp <- [DW_OP_LLVM_convert 32 7, DW_OP_LLVM_convert 8 7, DW_OP_stack_value] $r0
	@DEBUG_VALUE: LCD_ShowxNum:t <- $r8
	@DEBUG_VALUE: LCD_ShowxNum:enshow <- $r7
	@DEBUG_VALUE: LCD_ShowxNum:len <- $r4
	@DEBUG_VALUE: LCD_ShowxNum:x <- [DW_OP_plus_uconst 24] [$sp+0]
	@DEBUG_VALUE: LCD_ShowxNum:y <- [DW_OP_plus_uconst 20] [$sp+0]
	movs	r7, #1
.Ltmp785:
.LBB29_3:                               @   in Loop: Header=BB29_5 Depth=1
	@DEBUG_VALUE: LCD_ShowxNum:temp <- [DW_OP_LLVM_convert 32 7, DW_OP_LLVM_convert 8 7, DW_OP_stack_value] $r0
	@DEBUG_VALUE: LCD_ShowxNum:t <- $r8
	@DEBUG_VALUE: LCD_ShowxNum:len <- $r4
	@DEBUG_VALUE: LCD_ShowxNum:x <- [DW_OP_plus_uconst 24] [$sp+0]
	@DEBUG_VALUE: LCD_ShowxNum:y <- [DW_OP_plus_uconst 20] [$sp+0]
	@DEBUG_VALUE: LCD_ShowxNum:enshow <- $r7
	.loc	4 727 22 is_stmt 1              @ ../User/BSP/lcd/lcd.c:727:22
	ldr	r1, [sp, #24]                   @ 4-byte Reload
	ldr	r2, [sp, #16]                   @ 4-byte Reload
	.loc	4 727 9 is_stmt 0               @ ../User/BSP/lcd/lcd.c:727:9
	ldr	r3, [sp, #64]
	.loc	4 727 22                        @ ../User/BSP/lcd/lcd.c:727:22
	mla	r1, r8, r2, r1
	.loc	4 727 45                        @ ../User/BSP/lcd/lcd.c:727:45
	orr	r2, r0, #48
	.loc	4 727 9                         @ ../User/BSP/lcd/lcd.c:727:9
	uxth	r0, r1
.Ltmp786:
	ldr	r1, [sp, #20]                   @ 4-byte Reload
	uxtb	r2, r2
	str.w	r9, [sp]
	bl	LCD_ShowChar
.Ltmp787:
.LBB29_4:                               @   in Loop: Header=BB29_5 Depth=1
	@DEBUG_VALUE: LCD_ShowxNum:t <- $r8
	@DEBUG_VALUE: LCD_ShowxNum:len <- $r4
	@DEBUG_VALUE: LCD_ShowxNum:x <- [DW_OP_plus_uconst 24] [$sp+0]
	@DEBUG_VALUE: LCD_ShowxNum:y <- [DW_OP_plus_uconst 20] [$sp+0]
	@DEBUG_VALUE: LCD_ShowxNum:enshow <- $r7
	.loc	4 714 26 is_stmt 1              @ ../User/BSP/lcd/lcd.c:714:26
	add.w	r8, r8, #1
.Ltmp788:
	.loc	4 714 5 is_stmt 0               @ ../User/BSP/lcd/lcd.c:714:5
	cmp	r8, r4
.Ltmp789:
	.loc	4 714 26                        @ ../User/BSP/lcd/lcd.c:714:26
	add.w	r6, r6, #1
.Ltmp790:
	@DEBUG_VALUE: LCD_ShowxNum:t <- $r8
	.loc	4 0 26                          @ ../User/BSP/lcd/lcd.c:0:26
	beq	.LBB29_19
.Ltmp791:
.LBB29_5:                               @ =>This Loop Header: Depth=1
                                        @     Child Loop BB29_10 Depth 2
	@DEBUG_VALUE: LCD_ShowxNum:len <- $r4
	@DEBUG_VALUE: LCD_ShowxNum:x <- [DW_OP_plus_uconst 24] [$sp+0]
	@DEBUG_VALUE: LCD_ShowxNum:y <- [DW_OP_plus_uconst 20] [$sp+0]
	@DEBUG_VALUE: LCD_ShowxNum:enshow <- $r7
	@DEBUG_VALUE: LCD_ShowxNum:t <- $r8
	.loc	4 716 43 is_stmt 1              @ ../User/BSP/lcd/lcd.c:716:43
	mvns	r0, r6
	@DEBUG_VALUE: LCD_Pow:n <- [DW_OP_LLVM_arg 0, DW_OP_LLVM_arg 1, DW_OP_plus, DW_OP_constu 1, DW_OP_minus, DW_OP_stack_value] $r0, $r4
	uxtb	r0, r0
.Ltmp792:
	@DEBUG_VALUE: LCD_Pow:result <- 1
	@DEBUG_VALUE: LCD_Pow:m <- 10
	.loc	4 686 5                         @ ../User/BSP/lcd/lcd.c:686:5
	cmp	r0, r10
	bne	.LBB29_7
.Ltmp793:
@ %bb.6:                                @   in Loop: Header=BB29_5 Depth=1
	@DEBUG_VALUE: LCD_Pow:m <- 10
	@DEBUG_VALUE: LCD_Pow:result <- 1
	@DEBUG_VALUE: LCD_ShowxNum:t <- $r8
	@DEBUG_VALUE: LCD_ShowxNum:enshow <- $r7
	@DEBUG_VALUE: LCD_ShowxNum:len <- $r4
	@DEBUG_VALUE: LCD_ShowxNum:x <- [DW_OP_plus_uconst 24] [$sp+0]
	@DEBUG_VALUE: LCD_ShowxNum:y <- [DW_OP_plus_uconst 20] [$sp+0]
	.loc	4 0 5 is_stmt 0                 @ ../User/BSP/lcd/lcd.c:0:5
	movs	r0, #1
	b	.LBB29_15
.Ltmp794:
	.p2align	2
.LBB29_7:                               @   in Loop: Header=BB29_5 Depth=1
	@DEBUG_VALUE: LCD_Pow:m <- 10
	@DEBUG_VALUE: LCD_Pow:result <- 1
	@DEBUG_VALUE: LCD_ShowxNum:t <- $r8
	@DEBUG_VALUE: LCD_ShowxNum:enshow <- $r7
	@DEBUG_VALUE: LCD_ShowxNum:len <- $r4
	@DEBUG_VALUE: LCD_ShowxNum:x <- [DW_OP_plus_uconst 24] [$sp+0]
	@DEBUG_VALUE: LCD_ShowxNum:y <- [DW_OP_plus_uconst 20] [$sp+0]
	.loc	4 716 43 is_stmt 1              @ ../User/BSP/lcd/lcd.c:716:43
	ldr	r1, [sp, #4]                    @ 4-byte Reload
	mvn.w	r0, r8
	sub.w	r1, r1, r8
	uxtb	r1, r1
.Ltmp795:
	.loc	4 686 5                         @ ../User/BSP/lcd/lcd.c:686:5
	cmp	r1, #3
.Ltmp796:
	.loc	4 716 43                        @ ../User/BSP/lcd/lcd.c:716:43
	add.w	r1, r0, r4
.Ltmp797:
	.loc	4 686 5                         @ ../User/BSP/lcd/lcd.c:686:5
	bhs	.LBB29_9
.Ltmp798:
@ %bb.8:                                @   in Loop: Header=BB29_5 Depth=1
	@DEBUG_VALUE: LCD_Pow:m <- 10
	@DEBUG_VALUE: LCD_Pow:result <- 1
	@DEBUG_VALUE: LCD_ShowxNum:t <- $r8
	@DEBUG_VALUE: LCD_ShowxNum:enshow <- $r7
	@DEBUG_VALUE: LCD_ShowxNum:len <- $r4
	@DEBUG_VALUE: LCD_ShowxNum:x <- [DW_OP_plus_uconst 24] [$sp+0]
	@DEBUG_VALUE: LCD_ShowxNum:y <- [DW_OP_plus_uconst 20] [$sp+0]
	.loc	4 0 5 is_stmt 0                 @ ../User/BSP/lcd/lcd.c:0:5
	movs	r0, #1
	b	.LBB29_11
.Ltmp799:
	.p2align	2
.LBB29_9:                               @   in Loop: Header=BB29_5 Depth=1
	@DEBUG_VALUE: LCD_Pow:m <- 10
	@DEBUG_VALUE: LCD_Pow:result <- 1
	@DEBUG_VALUE: LCD_ShowxNum:t <- $r8
	@DEBUG_VALUE: LCD_ShowxNum:enshow <- $r7
	@DEBUG_VALUE: LCD_ShowxNum:len <- $r4
	@DEBUG_VALUE: LCD_ShowxNum:x <- [DW_OP_plus_uconst 24] [$sp+0]
	@DEBUG_VALUE: LCD_ShowxNum:y <- [DW_OP_plus_uconst 20] [$sp+0]
	.loc	4 686 5                         @ ../User/BSP/lcd/lcd.c:686:5
	and	r2, r1, #252
	movs	r3, #0
	movs	r0, #1
.Ltmp800:
	.p2align	2
.LBB29_10:                              @   Parent Loop BB29_5 Depth=1
                                        @ =>  This Inner Loop Header: Depth=2
	@DEBUG_VALUE: LCD_Pow:m <- 10
	@DEBUG_VALUE: LCD_ShowxNum:t <- $r8
	@DEBUG_VALUE: LCD_ShowxNum:enshow <- $r7
	@DEBUG_VALUE: LCD_ShowxNum:len <- $r4
	@DEBUG_VALUE: LCD_ShowxNum:x <- [DW_OP_plus_uconst 24] [$sp+0]
	@DEBUG_VALUE: LCD_ShowxNum:y <- [DW_OP_plus_uconst 20] [$sp+0]
	@DEBUG_VALUE: LCD_Pow:n <- [DW_OP_constu 4, DW_OP_minus, DW_OP_stack_value] undef
	@DEBUG_VALUE: LCD_Pow:result <- [DW_OP_constu 1000, DW_OP_mul, DW_OP_stack_value] $r0
	adds	r3, #4
	uxtb	r5, r3
.Ltmp801:
	@DEBUG_VALUE: LCD_ShowxNum:num <- [DW_OP_LLVM_entry_value 1] $r2
	cmp	r5, r2
	.loc	4 686 23                        @ ../User/BSP/lcd/lcd.c:686:23
	mul	r0, r0, r11
.Ltmp802:
	@DEBUG_VALUE: LCD_Pow:result <- $r0
	@DEBUG_VALUE: LCD_Pow:n <- [DW_OP_constu 4, DW_OP_minus, DW_OP_constu 1, DW_OP_minus, DW_OP_stack_value] undef
	.loc	4 686 5                         @ ../User/BSP/lcd/lcd.c:686:5
	bne	.LBB29_10
.Ltmp803:
.LBB29_11:                              @   in Loop: Header=BB29_5 Depth=1
	@DEBUG_VALUE: LCD_Pow:m <- 10
	@DEBUG_VALUE: LCD_ShowxNum:t <- $r8
	@DEBUG_VALUE: LCD_ShowxNum:enshow <- $r7
	@DEBUG_VALUE: LCD_ShowxNum:len <- $r4
	@DEBUG_VALUE: LCD_ShowxNum:x <- [DW_OP_plus_uconst 24] [$sp+0]
	@DEBUG_VALUE: LCD_ShowxNum:y <- [DW_OP_plus_uconst 20] [$sp+0]
	.loc	4 0 5                           @ ../User/BSP/lcd/lcd.c:0:5
	ldr	r5, [sp, #8]                    @ 4-byte Reload
	.loc	4 686 5                         @ ../User/BSP/lcd/lcd.c:686:5
	ands	r1, r1, #3
	beq	.LBB29_15
.Ltmp804:
@ %bb.12:                               @   in Loop: Header=BB29_5 Depth=1
	@DEBUG_VALUE: LCD_Pow:m <- 10
	@DEBUG_VALUE: LCD_ShowxNum:t <- $r8
	@DEBUG_VALUE: LCD_ShowxNum:enshow <- $r7
	@DEBUG_VALUE: LCD_ShowxNum:len <- $r4
	@DEBUG_VALUE: LCD_ShowxNum:x <- [DW_OP_plus_uconst 24] [$sp+0]
	@DEBUG_VALUE: LCD_ShowxNum:y <- [DW_OP_plus_uconst 20] [$sp+0]
	@DEBUG_VALUE: LCD_Pow:n <- [DW_OP_constu 1, DW_OP_minus, DW_OP_constu 1, DW_OP_minus, DW_OP_stack_value] undef
	@DEBUG_VALUE: LCD_Pow:result <- undef
	cmp	r1, #1
	bne	.LBB29_14
.Ltmp805:
@ %bb.13:                               @   in Loop: Header=BB29_5 Depth=1
	@DEBUG_VALUE: LCD_Pow:m <- 10
	@DEBUG_VALUE: LCD_ShowxNum:t <- $r8
	@DEBUG_VALUE: LCD_ShowxNum:enshow <- $r7
	@DEBUG_VALUE: LCD_ShowxNum:len <- $r4
	@DEBUG_VALUE: LCD_ShowxNum:x <- [DW_OP_plus_uconst 24] [$sp+0]
	@DEBUG_VALUE: LCD_ShowxNum:y <- [DW_OP_plus_uconst 20] [$sp+0]
	.loc	4 0 5                           @ ../User/BSP/lcd/lcd.c:0:5
	add.w	r0, r0, r0, lsl #2
	lsls	r0, r0, #1
.Ltmp806:
	@DEBUG_VALUE: LCD_Pow:result <- $r0
	b	.LBB29_15
.Ltmp807:
.LBB29_14:                              @   in Loop: Header=BB29_5 Depth=1
	@DEBUG_VALUE: LCD_Pow:m <- 10
	@DEBUG_VALUE: LCD_ShowxNum:t <- $r8
	@DEBUG_VALUE: LCD_ShowxNum:enshow <- $r7
	@DEBUG_VALUE: LCD_ShowxNum:len <- $r4
	@DEBUG_VALUE: LCD_ShowxNum:x <- [DW_OP_plus_uconst 24] [$sp+0]
	@DEBUG_VALUE: LCD_ShowxNum:y <- [DW_OP_plus_uconst 20] [$sp+0]
	@DEBUG_VALUE: LCD_Pow:n <- [DW_OP_constu 1, DW_OP_minus, DW_OP_constu 1, DW_OP_minus, DW_OP_constu 1, DW_OP_minus, DW_OP_stack_value] undef
	@DEBUG_VALUE: LCD_Pow:result <- undef
	mov.w	r2, #1000
	muls	r2, r0, r2
	.loc	4 686 5                         @ ../User/BSP/lcd/lcd.c:686:5
	cmp	r1, #2
	mov.w	r1, #100
	it	eq
	muleq	r2, r0, r1
	mov	r0, r2
.Ltmp808:
	.p2align	2
.LBB29_15:                              @   in Loop: Header=BB29_5 Depth=1
	@DEBUG_VALUE: LCD_ShowxNum:t <- $r8
	@DEBUG_VALUE: LCD_ShowxNum:enshow <- $r7
	@DEBUG_VALUE: LCD_ShowxNum:len <- $r4
	@DEBUG_VALUE: LCD_ShowxNum:x <- [DW_OP_plus_uconst 24] [$sp+0]
	@DEBUG_VALUE: LCD_ShowxNum:y <- [DW_OP_plus_uconst 20] [$sp+0]
	.loc	4 716 21 is_stmt 1              @ ../User/BSP/lcd/lcd.c:716:21
	udiv	r0, r5, r0
	.loc	4 716 49 is_stmt 0              @ ../User/BSP/lcd/lcd.c:716:49
	movw	r1, #52429
	movt	r1, #52428
	umull	r1, r2, r0, r1
	lsrs	r1, r2, #3
	add.w	r1, r1, r1, lsl #2
.Ltmp809:
	.loc	4 717 24 is_stmt 1              @ ../User/BSP/lcd/lcd.c:717:24
	cmp	r7, #0
.Ltmp810:
	.loc	4 716 49                        @ ../User/BSP/lcd/lcd.c:716:49
	sub.w	r0, r0, r1, lsl #1
.Ltmp811:
	@DEBUG_VALUE: LCD_ShowxNum:temp <- [DW_OP_LLVM_convert 32 7, DW_OP_LLVM_convert 8 7, DW_OP_stack_value] $r0
	.loc	4 717 24                        @ ../User/BSP/lcd/lcd.c:717:24
	bne	.LBB29_3
.Ltmp812:
@ %bb.16:                               @   in Loop: Header=BB29_5 Depth=1
	@DEBUG_VALUE: LCD_ShowxNum:temp <- [DW_OP_LLVM_convert 32 7, DW_OP_LLVM_convert 8 7, DW_OP_stack_value] $r0
	@DEBUG_VALUE: LCD_ShowxNum:t <- $r8
	@DEBUG_VALUE: LCD_ShowxNum:enshow <- $r7
	@DEBUG_VALUE: LCD_ShowxNum:len <- $r4
	@DEBUG_VALUE: LCD_ShowxNum:x <- [DW_OP_plus_uconst 24] [$sp+0]
	@DEBUG_VALUE: LCD_ShowxNum:y <- [DW_OP_plus_uconst 20] [$sp+0]
	ldr	r1, [sp, #12]                   @ 4-byte Reload
	cmp	r1, r8
	ble	.LBB29_3
.Ltmp813:
@ %bb.17:                               @   in Loop: Header=BB29_5 Depth=1
	@DEBUG_VALUE: LCD_ShowxNum:temp <- [DW_OP_LLVM_convert 32 7, DW_OP_LLVM_convert 8 7, DW_OP_stack_value] $r0
	@DEBUG_VALUE: LCD_ShowxNum:t <- $r8
	@DEBUG_VALUE: LCD_ShowxNum:enshow <- $r7
	@DEBUG_VALUE: LCD_ShowxNum:len <- $r4
	@DEBUG_VALUE: LCD_ShowxNum:x <- [DW_OP_plus_uconst 24] [$sp+0]
	@DEBUG_VALUE: LCD_ShowxNum:y <- [DW_OP_plus_uconst 20] [$sp+0]
	.loc	4 719 16                        @ ../User/BSP/lcd/lcd.c:719:16
	cmp	r0, #0
	bne	.LBB29_2
.Ltmp814:
@ %bb.18:                               @   in Loop: Header=BB29_5 Depth=1
	@DEBUG_VALUE: LCD_ShowxNum:temp <- [DW_OP_LLVM_convert 32 7, DW_OP_LLVM_convert 8 7, DW_OP_stack_value] $r0
	@DEBUG_VALUE: LCD_ShowxNum:t <- $r8
	@DEBUG_VALUE: LCD_ShowxNum:enshow <- $r7
	@DEBUG_VALUE: LCD_ShowxNum:len <- $r4
	@DEBUG_VALUE: LCD_ShowxNum:x <- [DW_OP_plus_uconst 24] [$sp+0]
	@DEBUG_VALUE: LCD_ShowxNum:y <- [DW_OP_plus_uconst 20] [$sp+0]
	.loc	4 0 16 is_stmt 0                @ ../User/BSP/lcd/lcd.c:0:16
	ldr	r0, [sp, #68]
.Ltmp815:
	ldr	r2, [sp, #16]                   @ 4-byte Reload
	sxtb	r1, r0
	ldr	r0, [sp, #24]                   @ 4-byte Reload
.Ltmp816:
	.loc	4 721 20 is_stmt 1              @ ../User/BSP/lcd/lcd.c:721:20
	cmp.w	r1, #-1
.Ltmp817:
	.loc	4 0 0 is_stmt 0                 @ ../User/BSP/lcd/lcd.c:0:0
	mla	r0, r8, r2, r0
	.loc	4 721 33                        @ ../User/BSP/lcd/lcd.c:721:33
	ldr	r1, [sp, #20]                   @ 4-byte Reload
	.loc	4 0 0                           @ ../User/BSP/lcd/lcd.c:0:0
	ldr	r3, [sp, #64]
	.loc	4 722 22 is_stmt 1              @ ../User/BSP/lcd/lcd.c:722:22
	uxth	r0, r0
	.loc	4 721 33                        @ ../User/BSP/lcd/lcd.c:721:33
	ite	le
	movle	r2, #48
	.loc	4 722 22                        @ ../User/BSP/lcd/lcd.c:722:22
	movgt	r2, #32
	.loc	4 0 0 is_stmt 0                 @ ../User/BSP/lcd/lcd.c:0:0
	str.w	r9, [sp]
	bl	LCD_ShowChar
.Ltmp818:
	movs	r7, #0
.Ltmp819:
	b	.LBB29_4
.Ltmp820:
.LBB29_19:
	@DEBUG_VALUE: LCD_ShowxNum:x <- [DW_OP_plus_uconst 24] [$sp+0]
	@DEBUG_VALUE: LCD_ShowxNum:y <- [DW_OP_plus_uconst 20] [$sp+0]
	.loc	4 729 1 is_stmt 1               @ ../User/BSP/lcd/lcd.c:729:1
	add	sp, #28
	pop.w	{r4, r5, r6, r7, r8, r9, r10, r11, pc}
.Ltmp821:
.Lfunc_end29:
	.size	LCD_ShowxNum, .Lfunc_end29-LCD_ShowxNum
	.cfi_endproc
	.cantunwind
	.fnend
                                        @ -- End function
	.section	.text.LCD_ShowString,"ax",%progbits
	.hidden	LCD_ShowString                  @ -- Begin function LCD_ShowString
	.globl	LCD_ShowString
	.p2align	2
	.type	LCD_ShowString,%function
	.code	16                              @ @LCD_ShowString
	.thumb_func
LCD_ShowString:
.Lfunc_begin30:
	.loc	4 732 0                         @ ../User/BSP/lcd/lcd.c:732:0
	.fnstart
	.cfi_startproc
@ %bb.0:
	@DEBUG_VALUE: LCD_ShowString:x <- $r0
	@DEBUG_VALUE: LCD_ShowString:y <- $r1
	@DEBUG_VALUE: LCD_ShowString:width <- $r2
	@DEBUG_VALUE: LCD_ShowString:height <- $r3
	.save	{r4, r5, r6, r7, r8, r9, r10, r11, lr}
	push.w	{r4, r5, r6, r7, r8, r9, r10, r11, lr}
	.cfi_def_cfa_offset 36
	.cfi_offset lr, -4
	.cfi_offset r11, -8
	.cfi_offset r10, -12
	.cfi_offset r9, -16
	.cfi_offset r8, -20
	.cfi_offset r7, -24
	.cfi_offset r6, -28
	.cfi_offset r5, -32
	.cfi_offset r4, -36
	.pad	#12
	sub	sp, #12
	.cfi_def_cfa_offset 48
.Ltmp822:
	@DEBUG_VALUE: LCD_ShowString:p <- [DW_OP_plus_uconst 52] [$sp+0]
	@DEBUG_VALUE: LCD_ShowString:x0 <- $r0
	ldr	r7, [sp, #52]
	@DEBUG_VALUE: LCD_ShowString:size <- undef
.Ltmp823:
	@DEBUG_VALUE: LCD_ShowString:p <- $r7
	@DEBUG_VALUE: LCD_ShowString:height <- undef
	@DEBUG_VALUE: LCD_ShowString:width <- undef
	@DEBUG_VALUE: LCD_ShowString:y <- undef
	@DEBUG_VALUE: LCD_ShowString:x <- undef
	mov	r4, r1
.Ltmp824:
	@DEBUG_VALUE: LCD_ShowString:y <- $r4
	.loc	4 736 12 prologue_end           @ ../User/BSP/lcd/lcd.c:736:12
	ldrb	r6, [r7]
	.loc	4 736 23 is_stmt 0              @ ../User/BSP/lcd/lcd.c:736:23
	sub.w	r1, r6, #32
	uxtb	r1, r1
	cmp	r1, #94
	@DEBUG_VALUE: LCD_ShowString:x0 <- $r0
.Ltmp825:
	@DEBUG_VALUE: LCD_ShowString:x <- $r0
	bhi	.LBB30_4
.Ltmp826:
@ %bb.1:
	@DEBUG_VALUE: LCD_ShowString:y <- $r4
	@DEBUG_VALUE: LCD_ShowString:p <- $r7
	@DEBUG_VALUE: LCD_ShowString:x0 <- $r0
	@DEBUG_VALUE: LCD_ShowString:x <- $r0
	.loc	4 0 23                          @ ../User/BSP/lcd/lcd.c:0:23
	ldr	r5, [sp, #48]
.Ltmp827:
	@DEBUG_VALUE: LCD_ShowString:size <- $r5
	mov	r8, r0
.Ltmp828:
	@DEBUG_VALUE: LCD_ShowString:x <- $r8
	@DEBUG_VALUE: LCD_ShowString:x0 <- $r8
	add	r0, r2
.Ltmp829:
	@DEBUG_VALUE: LCD_ShowString:width <- $r0
	adds	r1, r3, r4
.Ltmp830:
	@DEBUG_VALUE: LCD_ShowString:height <- $r1
	lsrs	r2, r5, #1
	.loc	4 736 23                        @ ../User/BSP/lcd/lcd.c:736:23
	adds	r7, #1
.Ltmp831:
	.loc	4 0 23                          @ ../User/BSP/lcd/lcd.c:0:23
	uxth.w	r9, r0
	uxth.w	r11, r1
	mov	r10, r8
	.loc	4 736 23                        @ ../User/BSP/lcd/lcd.c:736:23
	str	r2, [sp, #8]                    @ 4-byte Spill
.Ltmp832:
	.p2align	2
.LBB30_2:                               @ =>This Inner Loop Header: Depth=1
	@DEBUG_VALUE: LCD_ShowString:x0 <- $r8
	@DEBUG_VALUE: LCD_ShowString:size <- $r5
	@DEBUG_VALUE: LCD_ShowString:y <- $r4
	@DEBUG_VALUE: LCD_ShowString:x <- $r10
	@DEBUG_VALUE: LCD_ShowString:y <- $r4
	@DEBUG_VALUE: LCD_ShowString:p <- [DW_OP_constu 1, DW_OP_minus, DW_OP_stack_value] $r7
	.loc	4 738 14 is_stmt 1              @ ../User/BSP/lcd/lcd.c:738:14
	uxth.w	r0, r10
.Ltmp833:
	.loc	4 738 12 is_stmt 0              @ ../User/BSP/lcd/lcd.c:738:12
	cmp	r0, r9
	it	hs
	addhs	r4, r5
.Ltmp834:
	@DEBUG_VALUE: LCD_ShowString:y <- $r4
	uxth	r1, r4
.Ltmp835:
	@DEBUG_VALUE: LCD_ShowString:x <- undef
	.loc	4 739 12 is_stmt 1              @ ../User/BSP/lcd/lcd.c:739:12
	cmp	r1, r11
	bhs	.LBB30_4
.Ltmp836:
@ %bb.3:                                @   in Loop: Header=BB30_2 Depth=1
	@DEBUG_VALUE: LCD_ShowString:p <- [DW_OP_constu 1, DW_OP_minus, DW_OP_stack_value] $r7
	@DEBUG_VALUE: LCD_ShowString:x0 <- $r8
	@DEBUG_VALUE: LCD_ShowString:size <- $r5
	@DEBUG_VALUE: LCD_ShowString:y <- $r4
	.loc	4 738 12                        @ ../User/BSP/lcd/lcd.c:738:12
	cmp	r0, r9
	it	hs
	movhs	r10, r8
.Ltmp837:
	@DEBUG_VALUE: LCD_ShowString:x <- $r10
	.loc	4 741 9                         @ ../User/BSP/lcd/lcd.c:741:9
	uxth.w	r0, r10
	uxtb	r2, r6
	mov	r3, r5
	movs	r6, #0
	str	r6, [sp]
	bl	LCD_ShowChar
.Ltmp838:
	.loc	4 736 12                        @ ../User/BSP/lcd/lcd.c:736:12
	ldrb	r6, [r7], #1
.Ltmp839:
	.loc	4 736 23 is_stmt 0              @ ../User/BSP/lcd/lcd.c:736:23
	sub.w	r0, r6, #32
	uxtb	r0, r0
	cmp	r0, #95
.Ltmp840:
	.loc	4 742 11 is_stmt 1              @ ../User/BSP/lcd/lcd.c:742:11
	ldr	r0, [sp, #8]                    @ 4-byte Reload
	add	r10, r0
.Ltmp841:
	@DEBUG_VALUE: LCD_ShowString:p <- $r7
	@DEBUG_VALUE: LCD_ShowString:y <- $r4
	@DEBUG_VALUE: LCD_ShowString:x <- $r10
	.loc	4 736 23                        @ ../User/BSP/lcd/lcd.c:736:23
	blo	.LBB30_2
.Ltmp842:
.LBB30_4:
	@DEBUG_VALUE: LCD_ShowString:y <- $r4
	.loc	4 745 1                         @ ../User/BSP/lcd/lcd.c:745:1
	add	sp, #12
	pop.w	{r4, r5, r6, r7, r8, r9, r10, r11, pc}
.Ltmp843:
.Lfunc_end30:
	.size	LCD_ShowString, .Lfunc_end30-LCD_ShowString
	.cfi_endproc
	.cantunwind
	.fnend
                                        @ -- End function
	.hidden	asc2_1206                       @ @asc2_1206
	.type	asc2_1206,%object
	.section	.rodata.asc2_1206,"a",%progbits
	.globl	asc2_1206
asc2_1206:
	.zero	12
	.asciz	"\000\000\000\000?@\000\000\000\000\000"
	.asciz	"\000\0000\000@\0000\000@\000\000"
	.asciz	"\t\000\013\300=\000\013\300=\000\t"
	.asciz	"\030\300$@\177\340\"@1\200\000"
	.ascii	"\030\000$\300\033\000\r\2002@\001\200"
	.ascii	"\003\200\034@'@\034\200\007@\000@"
	.byte	16                              @ 0x10
	.byte	0                               @ 0x0
	.byte	96                              @ 0x60
	.zero	9
	.ascii	"\000\000\000\000\000\000\037\200 @@ "
	.asciz	"\000\000@  @\037\200\000\000\000"
	.asciz	"\t\000\006\000\037\200\006\000\t\000\000"
	.asciz	"\004\000\004\000?\200\004\000\004\000\000"
	.byte	0                               @ 0x0
	.byte	16                              @ 0x10
	.byte	0                               @ 0x0
	.byte	96                              @ 0x60
	.zero	8
	.asciz	"\004\000\004\000\004\000\004\000\004\000\000"
	.byte	0                               @ 0x0
	.byte	0                               @ 0x0
	.byte	0                               @ 0x0
	.byte	64                              @ 0x40
	.zero	8
	.asciz	"\000 \001\300\006\0008\000@\000\000"
	.asciz	"\037\200 @ @ @\037\200\000"
	.asciz	"\000\000\020@?\300\000@\000\000\000"
	.asciz	"\030\300!@\"@$@\030@\000"
	.asciz	"\020\200 @$@$@\033\200\000"
	.asciz	"\002\000\r\000\021\000?\300\001@\000"
	.asciz	"<\200$@$@$@#\200\000"
	.asciz	"\037\200$@$@4@\003\200\000"
	.asciz	"0\000 \000'\3008\000 \000\000"
	.asciz	"\033\200$@$@$@\033\200\000"
	.asciz	"\034\000\"\300\"@\"@\037\200\000"
	.asciz	"\000\000\000\000\b@\000\000\000\000\000"
	.asciz	"\000\000\000\000\004`\000\000\000\000\000"
	.ascii	"\000\000\004\000\n\000\021\000 \200@@"
	.asciz	"\t\000\t\000\t\000\t\000\t\000\000"
	.asciz	"\000\000@@ \200\021\000\n\000\004"
	.asciz	"\030\000 \000#@$\000\030\000\000"
	.asciz	"\037\200 @'@)@\037@\000"
	.ascii	"\000@\007\3009\000\017\000\001\300\000@"
	.asciz	" @?\300$@$@\033\200\000"
	.asciz	"\037\200 @ @ @0\200\000"
	.asciz	" @?\300 @ @\037\200\000"
	.asciz	" @?\300$@.@0\300\000"
	.asciz	" @?\300$@.\0000\000\000"
	.asciz	"\017\000\020\200 @\"@3\200\002"
	.ascii	" @?\300\004\000\004\000?\300 @"
	.asciz	" @ @?\300 @ @\000"
	.asciz	"\000`    ?\300 \000 "
	.ascii	" @?\300$@\013\0000\300 @"
	.ascii	" @?\300 @\000@\000@\000\300"
	.asciz	"?\300<\000\003\300<\000?\300\000"
	.asciz	" @?\300\f@#\000?\300 "
	.asciz	"\037\200 @ @ @\037\200\000"
	.asciz	" @?\300$@$\000\030\000\000"
	.asciz	"\037\200!@!@ \340\037\240\000"
	.ascii	" @?\300$@&\000\031\300\000@"
	.asciz	"\030\300$@$@\"@1\200\000"
	.asciz	"0\000 @?\300 @0\000\000"
	.asciz	" \000?\200\000@\000@?\200 "
	.asciz	" \000>\000\001\300\007\0008\000 "
	.asciz	"8\000\007\300<\000\007\3008\000\000"
	.asciz	" @9\300\006\0009\300 @\000"
	.asciz	" \0008@\007\3008@ \000\000"
	.asciz	"0@!\300&@8@ \300\000"
	.asciz	"\000\000\000\000\177\340@ @ \000"
	.asciz	"\000\000p\000\f\000\003\200\000@\000"
	.asciz	"\000\000@ @ \177\340\000\000\000"
	.asciz	"\000\000 \000@\000 \000\000\000\000"
	.ascii	"\000\020\000\020\000\020\000\020\000\020\000\020"
	.asciz	"\000\000\000\000@\000\000\000\000\000\000"
	.ascii	"\000\000\002\200\005@\005@\003\300\000@"
	.asciz	" \000?\300\004@\004@\003\200\000"
	.asciz	"\000\000\003\200\004@\004@\006@\000"
	.ascii	"\000\000\003\200\004@$@?\300\000@"
	.asciz	"\000\000\003\200\005@\005@\003@\000"
	.asciz	"\000\000\004@\037\300$@$@ "
	.ascii	"\000\000\002\340\005P\005P\006P\004 "
	.ascii	" @?\300\004@\004\000\003\300\000@"
	.asciz	"\000\000\004@'\300\000@\000\000\000"
	.asciz	"\000\020\000\020\004\020'\340\000\000\000"
	.ascii	" @?\300\001@\007\000\004\300\004@"
	.asciz	" @ @?\300\000@\000@\000"
	.asciz	"\007\300\004\000\007\300\004\000\003\300\000"
	.ascii	"\004@\007\300\004@\004\000\003\300\000@"
	.asciz	"\000\000\003\200\004@\004@\003\200\000"
	.asciz	"\004\020\007\360\004P\004@\003\200\000"
	.ascii	"\000\000\003\200\004@\004P\007\360\000\020"
	.asciz	"\004@\007\300\002@\004\000\004\000\000"
	.asciz	"\000\000\006@\005@\005@\004\300\000"
	.asciz	"\000\000\004\000\037\200\004@\000@\000"
	.ascii	"\004\000\007\200\000@\004@\007\300\000@"
	.asciz	"\004\000\007\000\004\300\001\200\006\000\004"
	.asciz	"\006\000\001\300\007\000\001\300\006\000\000"
	.asciz	"\004@\006\300\001\000\006\300\004@\000"
	.asciz	"\004\020\007\020\004\340\001\200\006\000\004"
	.asciz	"\000\000\004@\005\300\006@\004@\000"
	.asciz	"\000\000\000\000\004\000{\340@ \000"
	.asciz	"\000\000\000\000\000\000\377\360\000\000\000"
	.asciz	"\000\000@ {\340\004\000\000\000\000"
	.asciz	"@\000\200\000@\000 \000 \000@"
	.size	asc2_1206, 1140

	.hidden	asc2_1608                       @ @asc2_1608
	.type	asc2_1608,%object
	.section	.rodata.asc2_1608,"a",%progbits
	.globl	asc2_1608
asc2_1608:
	.zero	16
	.asciz	"\000\000\000\000\000\000\037\314\000\f\000\000\000\000\000"
	.asciz	"\000\000\b\0000\000`\000\b\0000\000`\000\000"
	.asciz	"\002 \003\374\036 \002 \003\374\036 \002 \000"
	.asciz	"\000\000\016\030\021\004?\377\020\204\fx\000\000\000"
	.asciz	"\017\000\020\204\0178\000\300\007x\030\204\000x\000"
	.ascii	"\000x\017\204\020\304\021$\016\230\000\344\000\204\000\b"
