	.text
	.syntax unified
	.eabi_attribute	67, "2.09"	@ Tag_conformance
	.cpu	cortex-m4
	.eabi_attribute	6, 13	@ Tag_CPU_arch
	.eabi_attribute	7, 77	@ Tag_CPU_arch_profile
	.eabi_attribute	8, 0	@ Tag_ARM_ISA_use
	.eabi_attribute	9, 2	@ Tag_THUMB_ISA_use
	.fpu	fpv4-sp-d16
	.eabi_attribute	27, 1	@ Tag_ABI_HardFP_use
	.eabi_attribute	36, 1	@ Tag_FP_HP_extension
	.eabi_attribute	34, 1	@ Tag_CPU_unaligned_access
	.eabi_attribute	17, 1	@ Tag_ABI_PCS_GOT_use
	.eabi_attribute	20, 2	@ Tag_ABI_FP_denormal
	.eabi_attribute	21, 0	@ Tag_ABI_FP_exceptions
	.eabi_attribute	23, 1	@ Tag_ABI_FP_number_model
	.eabi_attribute	24, 1	@ Tag_ABI_align_needed
	.eabi_attribute	25, 1	@ Tag_ABI_align_preserved
	.eabi_attribute	28, 1	@ Tag_ABI_VFP_args
	.eabi_attribute	38, 1	@ Tag_ABI_FP_16bit_format
	.eabi_attribute	18, 2	@ Tag_ABI_PCS_wchar_t
	.eabi_attribute	26, 1	@ Tag_ABI_enum_size
	.eabi_attribute	14, 0	@ Tag_ABI_PCS_R9_use
	.file	"stm32f4xx_hal_pwr_ex.c"
	.file	1 "E:\\StudyNote\\study_STM32-HAL\\STM32F4_Quick_Start_Guide_HAL\\2.code\\19.RTC-Alarms\\Project" "../Libraries/STM32F4xx_HAL_Driver/Inc/stm32f4xx_hal_def.h"
	.file	2 "E:\\StudyNote\\study_STM32-HAL\\STM32F4_Quick_Start_Guide_HAL\\2.code\\19.RTC-Alarms\\Project" "../Libraries/CMSIS/Device/ST/STM32F4xx/Include\\stm32f4xx.h"
	.file	3 "E:\\dianzi\\MDKv5\\ARM\\ARMCLANG\\Bin\\..\\include" "stdint.h"
	.file	4 "E:\\StudyNote\\study_STM32-HAL\\STM32F4_Quick_Start_Guide_HAL\\2.code\\19.RTC-Alarms\\Project" "../Libraries/CMSIS/Device/ST/STM32F4xx/Include/stm32f407xx.h"
	.section	.text.HAL_PWREx_EnableBkUpReg,"ax",%progbits
	.hidden	HAL_PWREx_EnableBkUpReg         @ -- Begin function HAL_PWREx_EnableBkUpReg
	.globl	HAL_PWREx_EnableBkUpReg
	.p2align	2
	.type	HAL_PWREx_EnableBkUpReg,%function
	.code	16                              @ @HAL_PWREx_EnableBkUpReg
	.thumb_func
HAL_PWREx_EnableBkUpReg:
.Lfunc_begin0:
	.file	5 "E:\\StudyNote\\study_STM32-HAL\\STM32F4_Quick_Start_Guide_HAL\\2.code\\19.RTC-Alarms\\Project" "../Libraries/STM32F4xx_HAL_Driver/Src/stm32f4xx_hal_pwr_ex.c"
	.loc	5 144 0                         @ ../Libraries/STM32F4xx_HAL_Driver/Src/stm32f4xx_hal_pwr_ex.c:144:0
	.fnstart
	.cfi_sections .debug_frame
	.cfi_startproc
@ %bb.0:
	.save	{r4, r5, r7, lr}
	push	{r4, r5, r7, lr}
	.cfi_def_cfa_offset 16
	.cfi_offset lr, -4
	.cfi_offset r7, -8
	.cfi_offset r5, -12
	.cfi_offset r4, -16
.Ltmp0:
	@DEBUG_VALUE: HAL_PWREx_EnableBkUpReg:tickstart <- 0
	movs	r0, #164
	movt	r0, #16910
	movs	r1, #1
.Ltmp1:
	.loc	5 147 33 prologue_end           @ ../Libraries/STM32F4xx_HAL_Driver/Src/stm32f4xx_hal_pwr_ex.c:147:33
	str	r1, [r0]
	.loc	5 150 15                        @ ../Libraries/STM32F4xx_HAL_Driver/Src/stm32f4xx_hal_pwr_ex.c:150:15
	bl	HAL_GetTick
.Ltmp2:
	.loc	5 0 15 is_stmt 0                @ ../Libraries/STM32F4xx_HAL_Driver/Src/stm32f4xx_hal_pwr_ex.c:0:15
	movw	r5, #28676
	.loc	5 150 15                        @ ../Libraries/STM32F4xx_HAL_Driver/Src/stm32f4xx_hal_pwr_ex.c:150:15
	mov	r4, r0
.Ltmp3:
	@DEBUG_VALUE: HAL_PWREx_EnableBkUpReg:tickstart <- $r4
	.loc	5 0 15                          @ ../Libraries/STM32F4xx_HAL_Driver/Src/stm32f4xx_hal_pwr_ex.c:0:15
	movt	r5, #16384
.Ltmp4:
	.p2align	2
.LBB0_1:                                @ =>This Inner Loop Header: Depth=1
	@DEBUG_VALUE: HAL_PWREx_EnableBkUpReg:tickstart <- $r4
	.loc	5 153 9 is_stmt 1               @ ../Libraries/STM32F4xx_HAL_Driver/Src/stm32f4xx_hal_pwr_ex.c:153:9
	ldr	r0, [r5]
	.loc	5 153 3 is_stmt 0               @ ../Libraries/STM32F4xx_HAL_Driver/Src/stm32f4xx_hal_pwr_ex.c:153:3
	lsls	r0, r0, #28
	bmi	.LBB0_4
.Ltmp5:
@ %bb.2:                                @   in Loop: Header=BB0_1 Depth=1
	@DEBUG_VALUE: HAL_PWREx_EnableBkUpReg:tickstart <- $r4
	.loc	5 155 9 is_stmt 1               @ ../Libraries/STM32F4xx_HAL_Driver/Src/stm32f4xx_hal_pwr_ex.c:155:9
	bl	HAL_GetTick
.Ltmp6:
	.loc	5 155 23 is_stmt 0              @ ../Libraries/STM32F4xx_HAL_Driver/Src/stm32f4xx_hal_pwr_ex.c:155:23
	subs	r0, r0, r4
.Ltmp7:
	.loc	5 155 8                         @ ../Libraries/STM32F4xx_HAL_Driver/Src/stm32f4xx_hal_pwr_ex.c:155:8
	cmp.w	r0, #1000
	bls	.LBB0_1
.Ltmp8:
@ %bb.3:
	@DEBUG_VALUE: HAL_PWREx_EnableBkUpReg:tickstart <- $r4
	.loc	5 0 8                           @ ../Libraries/STM32F4xx_HAL_Driver/Src/stm32f4xx_hal_pwr_ex.c:0:8
	movs	r0, #3
	.loc	5 161 1 is_stmt 1               @ ../Libraries/STM32F4xx_HAL_Driver/Src/stm32f4xx_hal_pwr_ex.c:161:1
	pop	{r4, r5, r7, pc}
.Ltmp9:
.LBB0_4:
	@DEBUG_VALUE: HAL_PWREx_EnableBkUpReg:tickstart <- $r4
	.loc	5 0 1 is_stmt 0                 @ ../Libraries/STM32F4xx_HAL_Driver/Src/stm32f4xx_hal_pwr_ex.c:0:1
	movs	r0, #0
	.loc	5 161 1                         @ ../Libraries/STM32F4xx_HAL_Driver/Src/stm32f4xx_hal_pwr_ex.c:161:1
	pop	{r4, r5, r7, pc}
.Ltmp10:
.Lfunc_end0:
	.size	HAL_PWREx_EnableBkUpReg, .Lfunc_end0-HAL_PWREx_EnableBkUpReg
	.cfi_endproc
	.cantunwind
	.fnend
                                        @ -- End function
	.section	.text.HAL_PWREx_DisableBkUpReg,"ax",%progbits
	.hidden	HAL_PWREx_DisableBkUpReg        @ -- Begin function HAL_PWREx_DisableBkUpReg
	.globl	HAL_PWREx_DisableBkUpReg
	.p2align	2
	.type	HAL_PWREx_DisableBkUpReg,%function
	.code	16                              @ @HAL_PWREx_DisableBkUpReg
	.thumb_func
HAL_PWREx_DisableBkUpReg:
.Lfunc_begin1:
	.loc	5 168 0 is_stmt 1               @ ../Libraries/STM32F4xx_HAL_Driver/Src/stm32f4xx_hal_pwr_ex.c:168:0
	.fnstart
	.cfi_startproc
@ %bb.0:
	.save	{r4, r5, r7, lr}
	push	{r4, r5, r7, lr}
	.cfi_def_cfa_offset 16
	.cfi_offset lr, -4
	.cfi_offset r7, -8
	.cfi_offset r5, -12
	.cfi_offset r4, -16
.Ltmp11:
	@DEBUG_VALUE: HAL_PWREx_DisableBkUpReg:tickstart <- 0
	movs	r0, #164
	movt	r0, #16910
	movs	r1, #0
.Ltmp12:
	.loc	5 171 33 prologue_end           @ ../Libraries/STM32F4xx_HAL_Driver/Src/stm32f4xx_hal_pwr_ex.c:171:33
	str	r1, [r0]
	.loc	5 174 15                        @ ../Libraries/STM32F4xx_HAL_Driver/Src/stm32f4xx_hal_pwr_ex.c:174:15
	bl	HAL_GetTick
.Ltmp13:
	.loc	5 0 15 is_stmt 0                @ ../Libraries/STM32F4xx_HAL_Driver/Src/stm32f4xx_hal_pwr_ex.c:0:15
	movw	r5, #28676
	.loc	5 174 15                        @ ../Libraries/STM32F4xx_HAL_Driver/Src/stm32f4xx_hal_pwr_ex.c:174:15
	mov	r4, r0
.Ltmp14:
	@DEBUG_VALUE: HAL_PWREx_DisableBkUpReg:tickstart <- $r4
	.loc	5 0 15                          @ ../Libraries/STM32F4xx_HAL_Driver/Src/stm32f4xx_hal_pwr_ex.c:0:15
	movt	r5, #16384
.Ltmp15:
	.p2align	2
.LBB1_1:                                @ =>This Inner Loop Header: Depth=1
	@DEBUG_VALUE: HAL_PWREx_DisableBkUpReg:tickstart <- $r4
	.loc	5 177 9 is_stmt 1               @ ../Libraries/STM32F4xx_HAL_Driver/Src/stm32f4xx_hal_pwr_ex.c:177:9
	ldr	r0, [r5]
	.loc	5 177 3 is_stmt 0               @ ../Libraries/STM32F4xx_HAL_Driver/Src/stm32f4xx_hal_pwr_ex.c:177:3
	lsls	r0, r0, #28
	bpl	.LBB1_4
.Ltmp16:
@ %bb.2:                                @   in Loop: Header=BB1_1 Depth=1
	@DEBUG_VALUE: HAL_PWREx_DisableBkUpReg:tickstart <- $r4
	.loc	5 179 9 is_stmt 1               @ ../Libraries/STM32F4xx_HAL_Driver/Src/stm32f4xx_hal_pwr_ex.c:179:9
	bl	HAL_GetTick
.Ltmp17:
	.loc	5 179 23 is_stmt 0              @ ../Libraries/STM32F4xx_HAL_Driver/Src/stm32f4xx_hal_pwr_ex.c:179:23
	subs	r0, r0, r4
.Ltmp18:
	.loc	5 179 8                         @ ../Libraries/STM32F4xx_HAL_Driver/Src/stm32f4xx_hal_pwr_ex.c:179:8
	cmp.w	r0, #1000
	bls	.LBB1_1
.Ltmp19:
@ %bb.3:
	@DEBUG_VALUE: HAL_PWREx_DisableBkUpReg:tickstart <- $r4
	.loc	5 0 8                           @ ../Libraries/STM32F4xx_HAL_Driver/Src/stm32f4xx_hal_pwr_ex.c:0:8
	movs	r0, #3
	.loc	5 185 1 is_stmt 1               @ ../Libraries/STM32F4xx_HAL_Driver/Src/stm32f4xx_hal_pwr_ex.c:185:1
	pop	{r4, r5, r7, pc}
.Ltmp20:
.LBB1_4:
	@DEBUG_VALUE: HAL_PWREx_DisableBkUpReg:tickstart <- $r4
	.loc	5 0 1 is_stmt 0                 @ ../Libraries/STM32F4xx_HAL_Driver/Src/stm32f4xx_hal_pwr_ex.c:0:1
	movs	r0, #0
	.loc	5 185 1                         @ ../Libraries/STM32F4xx_HAL_Driver/Src/stm32f4xx_hal_pwr_ex.c:185:1
	pop	{r4, r5, r7, pc}
.Ltmp21:
.Lfunc_end1:
	.size	HAL_PWREx_DisableBkUpReg, .Lfunc_end1-HAL_PWREx_DisableBkUpReg
	.cfi_endproc
	.cantunwind
	.fnend
                                        @ -- End function
	.section	.text.HAL_PWREx_EnableFlashPowerDown,"ax",%progbits
	.hidden	HAL_PWREx_EnableFlashPowerDown  @ -- Begin function HAL_PWREx_EnableFlashPowerDown
	.globl	HAL_PWREx_EnableFlashPowerDown
	.p2align	2
	.type	HAL_PWREx_EnableFlashPowerDown,%function
	.code	16                              @ @HAL_PWREx_EnableFlashPowerDown
	.thumb_func
HAL_PWREx_EnableFlashPowerDown:
.Lfunc_begin2:
	.loc	5 192 0 is_stmt 1               @ ../Libraries/STM32F4xx_HAL_Driver/Src/stm32f4xx_hal_pwr_ex.c:192:0
	.fnstart
	.cfi_startproc
@ %bb.0:
	movs	r0, #36
	movt	r0, #16910
	movs	r1, #1
.Ltmp22:
	.loc	5 193 33 prologue_end           @ ../Libraries/STM32F4xx_HAL_Driver/Src/stm32f4xx_hal_pwr_ex.c:193:33
	str	r1, [r0]
	.loc	5 194 1                         @ ../Libraries/STM32F4xx_HAL_Driver/Src/stm32f4xx_hal_pwr_ex.c:194:1
	bx	lr
.Ltmp23:
.Lfunc_end2:
	.size	HAL_PWREx_EnableFlashPowerDown, .Lfunc_end2-HAL_PWREx_EnableFlashPowerDown
	.cfi_endproc
	.cantunwind
	.fnend
                                        @ -- End function
	.section	.text.HAL_PWREx_DisableFlashPowerDown,"ax",%progbits
	.hidden	HAL_PWREx_DisableFlashPowerDown @ -- Begin function HAL_PWREx_DisableFlashPowerDown
	.globl	HAL_PWREx_DisableFlashPowerDown
	.p2align	2
	.type	HAL_PWREx_DisableFlashPowerDown,%function
	.code	16                              @ @HAL_PWREx_DisableFlashPowerDown
	.thumb_func
HAL_PWREx_DisableFlashPowerDown:
.Lfunc_begin3:
	.loc	5 201 0                         @ ../Libraries/STM32F4xx_HAL_Driver/Src/stm32f4xx_hal_pwr_ex.c:201:0
	.fnstart
	.cfi_startproc
@ %bb.0:
	movs	r0, #36
	movt	r0, #16910
	movs	r1, #0
.Ltmp24:
	.loc	5 202 33 prologue_end           @ ../Libraries/STM32F4xx_HAL_Driver/Src/stm32f4xx_hal_pwr_ex.c:202:33
	str	r1, [r0]
	.loc	5 203 1                         @ ../Libraries/STM32F4xx_HAL_Driver/Src/stm32f4xx_hal_pwr_ex.c:203:1
	bx	lr
.Ltmp25:
.Lfunc_end3:
	.size	HAL_PWREx_DisableFlashPowerDown, .Lfunc_end3-HAL_PWREx_DisableFlashPowerDown
	.cfi_endproc
	.cantunwind
	.fnend
                                        @ -- End function
	.section	.text.HAL_PWREx_GetVoltageRange,"ax",%progbits
	.hidden	HAL_PWREx_GetVoltageRange       @ -- Begin function HAL_PWREx_GetVoltageRange
	.globl	HAL_PWREx_GetVoltageRange
	.p2align	2
	.type	HAL_PWREx_GetVoltageRange,%function
	.code	16                              @ @HAL_PWREx_GetVoltageRange
	.thumb_func
HAL_PWREx_GetVoltageRange:
.Lfunc_begin4:
	.loc	5 214 0                         @ ../Libraries/STM32F4xx_HAL_Driver/Src/stm32f4xx_hal_pwr_ex.c:214:0
	.fnstart
	.cfi_startproc
@ %bb.0:
	movw	r0, #28672
	movt	r0, #16384
.Ltmp26:
	.loc	5 215 16 prologue_end           @ ../Libraries/STM32F4xx_HAL_Driver/Src/stm32f4xx_hal_pwr_ex.c:215:16
	ldr	r0, [r0]
	.loc	5 215 19 is_stmt 0              @ ../Libraries/STM32F4xx_HAL_Driver/Src/stm32f4xx_hal_pwr_ex.c:215:19
	and	r0, r0, #16384
	.loc	5 215 3                         @ ../Libraries/STM32F4xx_HAL_Driver/Src/stm32f4xx_hal_pwr_ex.c:215:3
	bx	lr
.Ltmp27:
.Lfunc_end4:
	.size	HAL_PWREx_GetVoltageRange, .Lfunc_end4-HAL_PWREx_GetVoltageRange
	.cfi_endproc
	.cantunwind
	.fnend
                                        @ -- End function
	.section	.text.HAL_PWREx_ControlVoltageScaling,"ax",%progbits
	.hidden	HAL_PWREx_ControlVoltageScaling @ -- Begin function HAL_PWREx_ControlVoltageScaling
	.globl	HAL_PWREx_ControlVoltageScaling
	.p2align	2
	.type	HAL_PWREx_ControlVoltageScaling,%function
	.code	16                              @ @HAL_PWREx_ControlVoltageScaling
	.thumb_func
HAL_PWREx_ControlVoltageScaling:
.Lfunc_begin5:
	.loc	5 235 0 is_stmt 1               @ ../Libraries/STM32F4xx_HAL_Driver/Src/stm32f4xx_hal_pwr_ex.c:235:0
	.fnstart
	.cfi_startproc
@ %bb.0:
	@DEBUG_VALUE: HAL_PWREx_ControlVoltageScaling:VoltageScaling <- $r0
	.save	{r4, r5, r7, lr}
	push	{r4, r5, r7, lr}
	.cfi_def_cfa_offset 16
	.cfi_offset lr, -4
	.cfi_offset r7, -8
	.cfi_offset r5, -12
	.cfi_offset r4, -16
	.pad	#8
	sub	sp, #8
	.cfi_def_cfa_offset 24
	movs	r1, #0
	movw	r2, #14400
.Ltmp28:
	.loc	5 241 3 prologue_end            @ ../Libraries/STM32F4xx_HAL_Driver/Src/stm32f4xx_hal_pwr_ex.c:241:3
	str	r1, [sp, #4]
	movt	r2, #16386
	ldr	r3, [r2]
	movw	r5, #28672
	orr	r3, r3, #268435456
	str	r3, [r2]
	ldr	r2, [r2]
	movt	r5, #16384
.Ltmp29:
	@DEBUG_VALUE: HAL_PWREx_ControlVoltageScaling:tickstart <- 0
	and	r2, r2, #268435456
	str	r2, [sp, #4]
	ldr	r2, [sp, #4]
.Ltmp30:
	.loc	5 244 3                         @ ../Libraries/STM32F4xx_HAL_Driver/Src/stm32f4xx_hal_pwr_ex.c:244:3
	str	r1, [sp]
	ldr	r1, [r5]
	bic	r1, r1, #16384
	orrs	r0, r1
.Ltmp31:
	@DEBUG_VALUE: HAL_PWREx_ControlVoltageScaling:VoltageScaling <- [DW_OP_LLVM_entry_value 1] $r0
	str	r0, [r5]
	ldr	r0, [r5]
	and	r0, r0, #16384
	str	r0, [sp]
	ldr	r0, [sp]
.Ltmp32:
	.loc	5 247 15                        @ ../Libraries/STM32F4xx_HAL_Driver/Src/stm32f4xx_hal_pwr_ex.c:247:15
	bl	HAL_GetTick
.Ltmp33:
	mov	r4, r0
.Ltmp34:
	@DEBUG_VALUE: HAL_PWREx_ControlVoltageScaling:tickstart <- $r4
	.p2align	2
.LBB5_1:                                @ =>This Inner Loop Header: Depth=1
	@DEBUG_VALUE: HAL_PWREx_ControlVoltageScaling:tickstart <- $r4
	@DEBUG_VALUE: HAL_PWREx_ControlVoltageScaling:VoltageScaling <- [DW_OP_LLVM_entry_value 1] $r0
	.loc	5 248 10                        @ ../Libraries/STM32F4xx_HAL_Driver/Src/stm32f4xx_hal_pwr_ex.c:248:10
	ldr	r0, [r5, #4]
	.loc	5 248 3 is_stmt 0               @ ../Libraries/STM32F4xx_HAL_Driver/Src/stm32f4xx_hal_pwr_ex.c:248:3
	lsls	r0, r0, #17
	bmi	.LBB5_4
.Ltmp35:
@ %bb.2:                                @   in Loop: Header=BB5_1 Depth=1
	@DEBUG_VALUE: HAL_PWREx_ControlVoltageScaling:tickstart <- $r4
	@DEBUG_VALUE: HAL_PWREx_ControlVoltageScaling:VoltageScaling <- [DW_OP_LLVM_entry_value 1] $r0
	.loc	5 250 9 is_stmt 1               @ ../Libraries/STM32F4xx_HAL_Driver/Src/stm32f4xx_hal_pwr_ex.c:250:9
	bl	HAL_GetTick
.Ltmp36:
	.loc	5 250 23 is_stmt 0              @ ../Libraries/STM32F4xx_HAL_Driver/Src/stm32f4xx_hal_pwr_ex.c:250:23
	subs	r0, r0, r4
.Ltmp37:
	.loc	5 250 8                         @ ../Libraries/STM32F4xx_HAL_Driver/Src/stm32f4xx_hal_pwr_ex.c:250:8
	cmp.w	r0, #1000
	bls	.LBB5_1
.Ltmp38:
@ %bb.3:
	@DEBUG_VALUE: HAL_PWREx_ControlVoltageScaling:tickstart <- $r4
	@DEBUG_VALUE: HAL_PWREx_ControlVoltageScaling:VoltageScaling <- [DW_OP_LLVM_entry_value 1] $r0
	.loc	5 0 8                           @ ../Libraries/STM32F4xx_HAL_Driver/Src/stm32f4xx_hal_pwr_ex.c:0:8
	movs	r0, #3
	.loc	5 257 1 is_stmt 1               @ ../Libraries/STM32F4xx_HAL_Driver/Src/stm32f4xx_hal_pwr_ex.c:257:1
	add	sp, #8
	pop	{r4, r5, r7, pc}
.Ltmp39:
.LBB5_4:
	@DEBUG_VALUE: HAL_PWREx_ControlVoltageScaling:tickstart <- $r4
	@DEBUG_VALUE: HAL_PWREx_ControlVoltageScaling:VoltageScaling <- [DW_OP_LLVM_entry_value 1] $r0
	.loc	5 0 1 is_stmt 0                 @ ../Libraries/STM32F4xx_HAL_Driver/Src/stm32f4xx_hal_pwr_ex.c:0:1
	movs	r0, #0
	.loc	5 257 1                         @ ../Libraries/STM32F4xx_HAL_Driver/Src/stm32f4xx_hal_pwr_ex.c:257:1
	add	sp, #8
	pop	{r4, r5, r7, pc}
.Ltmp40:
.Lfunc_end5:
	.size	HAL_PWREx_ControlVoltageScaling, .Lfunc_end5-HAL_PWREx_ControlVoltageScaling
	.cfi_endproc
	.cantunwind
	.fnend
                                        @ -- End function
	.section	".note.GNU-stack","",%progbits
	.eabi_attribute	30, 1	@ Tag_ABI_optimization_goals
	.ARM_attribute	16, 1	@ Tag_AV_eba