	.text
	.syntax unified
	.eabi_attribute	67, "2.09"	@ Tag_conformance
	.cpu	cortex-m4
	.eabi_attribute	6, 13	@ Tag_CPU_arch
	.eabi_attribute	7, 77	@ Tag_CPU_arch_profile
	.eabi_attribute	8, 0	@ Tag_ARM_ISA_use
	.eabi_attribute	9, 2	@ Tag_THUMB_ISA_use
	.fpu	fpv4-sp-d16
	.eabi_attribute	27, 1	@ Tag_ABI_HardFP_use
	.eabi_attribute	36, 1	@ Tag_FP_HP_extension
	.eabi_attribute	34, 1	@ Tag_CPU_unaligned_access
	.eabi_attribute	17, 1	@ Tag_ABI_PCS_GOT_use
	.eabi_attribute	20, 2	@ Tag_ABI_FP_denormal
	.eabi_attribute	21, 0	@ Tag_ABI_FP_exceptions
	.eabi_attribute	23, 1	@ Tag_ABI_FP_number_model
	.eabi_attribute	24, 1	@ Tag_ABI_align_needed
	.eabi_attribute	25, 1	@ Tag_ABI_align_preserved
	.eabi_attribute	28, 1	@ Tag_ABI_VFP_args
	.eabi_attribute	38, 1	@ Tag_ABI_FP_16bit_format
	.eabi_attribute	18, 2	@ Tag_ABI_PCS_wchar_t
	.eabi_attribute	26, 1	@ Tag_ABI_enum_size
	.eabi_attribute	14, 0	@ Tag_ABI_PCS_R9_use
	.file	"stm32f4xx_hal_rcc_ex.c"
	.file	1 "E:\\StudyNote\\study_STM32-HAL\\STM32F4_Quick_Start_Guide_HAL\\2.code\\19.RTC-Alarms\\Project" "../Libraries/STM32F4xx_HAL_Driver/Inc/stm32f4xx_hal_def.h"
	.file	2 "E:\\StudyNote\\study_STM32-HAL\\STM32F4_Quick_Start_Guide_HAL\\2.code\\19.RTC-Alarms\\Project" "../Libraries/CMSIS/Device/ST/STM32F4xx/Include\\stm32f4xx.h"
	.file	3 "E:\\dianzi\\MDKv5\\ARM\\ARMCLANG\\Bin\\..\\include" "stdint.h"
	.file	4 "E:\\StudyNote\\study_STM32-HAL\\STM32F4_Quick_Start_Guide_HAL\\2.code\\19.RTC-Alarms\\Project" "../Libraries/CMSIS/Device/ST/STM32F4xx/Include/stm32f407xx.h"
	.section	.text.HAL_RCCEx_PeriphCLKConfig,"ax",%progbits
	.hidden	HAL_RCCEx_PeriphCLKConfig       @ -- Begin function HAL_RCCEx_PeriphCLKConfig
	.globl	HAL_RCCEx_PeriphCLKConfig
	.p2align	2
	.type	HAL_RCCEx_PeriphCLKConfig,%function
	.code	16                              @ @HAL_RCCEx_PeriphCLKConfig
	.thumb_func
HAL_RCCEx_PeriphCLKConfig:
.Lfunc_begin0:
	.file	5 "E:\\StudyNote\\study_STM32-HAL\\STM32F4_Quick_Start_Guide_HAL\\2.code\\19.RTC-Alarms\\Project" "../Libraries/STM32F4xx_HAL_Driver/Src/stm32f4xx_hal_rcc_ex.c"
	.loc	5 2516 0                        @ ../Libraries/STM32F4xx_HAL_Driver/Src/stm32f4xx_hal_rcc_ex.c:2516:0
	.fnstart
	.cfi_sections .debug_frame
	.cfi_startproc
@ %bb.0:
	@DEBUG_VALUE: HAL_RCCEx_PeriphCLKConfig:PeriphClkInit <- $r0
	.save	{r4, r5, r6, r7, lr}
	push	{r4, r5, r6, r7, lr}
	.cfi_def_cfa_offset 20
	.cfi_offset lr, -4
	.cfi_offset r7, -8
	.cfi_offset r6, -12
	.cfi_offset r5, -16
	.cfi_offset r4, -20
	.pad	#4
	sub	sp, #4
	.cfi_def_cfa_offset 24
	mov	r4, r0
.Ltmp0:
	@DEBUG_VALUE: HAL_RCCEx_PeriphCLKConfig:tmpreg1 <- 0
	@DEBUG_VALUE: HAL_RCCEx_PeriphCLKConfig:tickstart <- 0
	@DEBUG_VALUE: HAL_RCCEx_PeriphCLKConfig:PeriphClkInit <- $r4
	.loc	5 2524 24 prologue_end          @ ../Libraries/STM32F4xx_HAL_Driver/Src/stm32f4xx_hal_rcc_ex.c:2524:24
	ldr	r0, [r0]
	.loc	5 2524 89 is_stmt 0             @ ../Libraries/STM32F4xx_HAL_Driver/Src/stm32f4xx_hal_rcc_ex.c:2524:89
	tst.w	r0, #5
	beq	.LBB0_8
.Ltmp1:
@ %bb.1:
	@DEBUG_VALUE: HAL_RCCEx_PeriphCLKConfig:PeriphClkInit <- $r4
	@DEBUG_VALUE: HAL_RCCEx_PeriphCLKConfig:tickstart <- 0
	@DEBUG_VALUE: HAL_RCCEx_PeriphCLKConfig:tmpreg1 <- 0
	.loc	5 0 89                          @ ../Libraries/STM32F4xx_HAL_Driver/Src/stm32f4xx_hal_rcc_ex.c:0:89
	movs	r7, #104
	movt	r7, #16967
	movw	r6, #14448
	movs	r0, #0
	movt	r6, #16386
.Ltmp2:
	.loc	5 2534 5 is_stmt 1              @ ../Libraries/STM32F4xx_HAL_Driver/Src/stm32f4xx_hal_rcc_ex.c:2534:5
	str	r0, [r7]
	.loc	5 2536 17                       @ ../Libraries/STM32F4xx_HAL_Driver/Src/stm32f4xx_hal_rcc_ex.c:2536:17
	bl	HAL_GetTick
.Ltmp3:
	mov	r5, r0
.Ltmp4:
	@DEBUG_VALUE: HAL_RCCEx_PeriphCLKConfig:tickstart <- $r5
	.p2align	2
.LBB0_2:                                @ =>This Inner Loop Header: Depth=1
	@DEBUG_VALUE: HAL_RCCEx_PeriphCLKConfig:tickstart <- $r5
	@DEBUG_VALUE: HAL_RCCEx_PeriphCLKConfig:PeriphClkInit <- $r4
	@DEBUG_VALUE: HAL_RCCEx_PeriphCLKConfig:tmpreg1 <- 0
	.loc	5 2538 11                       @ ../Libraries/STM32F4xx_HAL_Driver/Src/stm32f4xx_hal_rcc_ex.c:2538:11
	ldr	r0, [r6, #-112]
	.loc	5 2538 5 is_stmt 0              @ ../Libraries/STM32F4xx_HAL_Driver/Src/stm32f4xx_hal_rcc_ex.c:2538:5
	lsls	r0, r0, #4
	bpl	.LBB0_4
.Ltmp5:
@ %bb.3:                                @   in Loop: Header=BB0_2 Depth=1
	@DEBUG_VALUE: HAL_RCCEx_PeriphCLKConfig:tickstart <- $r5
	@DEBUG_VALUE: HAL_RCCEx_PeriphCLKConfig:PeriphClkInit <- $r4
	@DEBUG_VALUE: HAL_RCCEx_PeriphCLKConfig:tmpreg1 <- 0
	.loc	5 2540 11 is_stmt 1             @ ../Libraries/STM32F4xx_HAL_Driver/Src/stm32f4xx_hal_rcc_ex.c:2540:11
	bl	HAL_GetTick
.Ltmp6:
	.loc	5 2540 25 is_stmt 0             @ ../Libraries/STM32F4xx_HAL_Driver/Src/stm32f4xx_hal_rcc_ex.c:2540:25
	subs	r0, r0, r5
.Ltmp7:
	.loc	5 2540 10                       @ ../Libraries/STM32F4xx_HAL_Driver/Src/stm32f4xx_hal_rcc_ex.c:2540:10
	cmp	r0, #2
	bls	.LBB0_2
	b	.LBB0_12
.Ltmp8:
.LBB0_4:
	@DEBUG_VALUE: HAL_RCCEx_PeriphCLKConfig:tickstart <- $r5
	@DEBUG_VALUE: HAL_RCCEx_PeriphCLKConfig:PeriphClkInit <- $r4
	@DEBUG_VALUE: HAL_RCCEx_PeriphCLKConfig:tmpreg1 <- 0
	.loc	5 2556 5 is_stmt 1              @ ../Libraries/STM32F4xx_HAL_Driver/Src/stm32f4xx_hal_rcc_ex.c:2556:5
	ldrd	r1, r0, [r4, #4]
	lsls	r0, r0, #28
	orr.w	r0, r0, r1, lsl #6
	str	r0, [r6, #20]
	movs	r0, #1
	.loc	5 2560 5                        @ ../Libraries/STM32F4xx_HAL_Driver/Src/stm32f4xx_hal_rcc_ex.c:2560:5
	str	r0, [r7]
	.loc	5 2562 17                       @ ../Libraries/STM32F4xx_HAL_Driver/Src/stm32f4xx_hal_rcc_ex.c:2562:17
	bl	HAL_GetTick
.Ltmp9:
	mov	r5, r0
.Ltmp10:
	@DEBUG_VALUE: HAL_RCCEx_PeriphCLKConfig:tickstart <- $r5
	.p2align	2
.LBB0_5:                                @ =>This Inner Loop Header: Depth=1
	@DEBUG_VALUE: HAL_RCCEx_PeriphCLKConfig:tickstart <- $r5
	@DEBUG_VALUE: HAL_RCCEx_PeriphCLKConfig:PeriphClkInit <- $r4
	@DEBUG_VALUE: HAL_RCCEx_PeriphCLKConfig:tmpreg1 <- 0
	.loc	5 2564 11                       @ ../Libraries/STM32F4xx_HAL_Driver/Src/stm32f4xx_hal_rcc_ex.c:2564:11
	ldr	r0, [r6, #-112]
	.loc	5 2564 5 is_stmt 0              @ ../Libraries/STM32F4xx_HAL_Driver/Src/stm32f4xx_hal_rcc_ex.c:2564:5
	lsls	r0, r0, #4
	bmi	.LBB0_7
.Ltmp11:
@ %bb.6:                                @   in Loop: Header=BB0_5 Depth=1
	@DEBUG_VALUE: HAL_RCCEx_PeriphCLKConfig:tickstart <- $r5
	@DEBUG_VALUE: HAL_RCCEx_PeriphCLKConfig:PeriphClkInit <- $r4
	@DEBUG_VALUE: HAL_RCCEx_PeriphCLKConfig:tmpreg1 <- 0
	.loc	5 2566 11 is_stmt 1             @ ../Libraries/STM32F4xx_HAL_Driver/Src/stm32f4xx_hal_rcc_ex.c:2566:11
	bl	HAL_GetTick
.Ltmp12:
	.loc	5 2566 25 is_stmt 0             @ ../Libraries/STM32F4xx_HAL_Driver/Src/stm32f4xx_hal_rcc_ex.c:2566:25
	subs	r0, r0, r5
.Ltmp13:
	.loc	5 2566 10                       @ ../Libraries/STM32F4xx_HAL_Driver/Src/stm32f4xx_hal_rcc_ex.c:2566:10
	cmp	r0, #2
	bls	.LBB0_5
	b	.LBB0_12
.Ltmp14:
.LBB0_7:
	@DEBUG_VALUE: HAL_RCCEx_PeriphCLKConfig:tickstart <- $r5
	@DEBUG_VALUE: HAL_RCCEx_PeriphCLKConfig:PeriphClkInit <- $r4
	@DEBUG_VALUE: HAL_RCCEx_PeriphCLKConfig:tmpreg1 <- 0
	.loc	5 2575 23 is_stmt 1             @ ../Libraries/STM32F4xx_HAL_Driver/Src/stm32f4xx_hal_rcc_ex.c:2575:23
	ldr	r0, [r4]
.Ltmp15:
.LBB0_8:
	@DEBUG_VALUE: HAL_RCCEx_PeriphCLKConfig:PeriphClkInit <- $r4
	@DEBUG_VALUE: HAL_RCCEx_PeriphCLKConfig:tmpreg1 <- 0
	.loc	5 2575 6 is_stmt 0              @ ../Libraries/STM32F4xx_HAL_Driver/Src/stm32f4xx_hal_rcc_ex.c:2575:6
	lsls	r0, r0, #30
	mov.w	r0, #0
	bpl	.LBB0_17
.Ltmp16:
@ %bb.9:
	@DEBUG_VALUE: HAL_RCCEx_PeriphCLKConfig:PeriphClkInit <- $r4
	@DEBUG_VALUE: HAL_RCCEx_PeriphCLKConfig:tmpreg1 <- 0
	.loc	5 0 6                           @ ../Libraries/STM32F4xx_HAL_Driver/Src/stm32f4xx_hal_rcc_ex.c:0:6
	movw	r6, #14448
	movt	r6, #16386
.Ltmp17:
	.loc	5 2581 5 is_stmt 1              @ ../Libraries/STM32F4xx_HAL_Driver/Src/stm32f4xx_hal_rcc_ex.c:2581:5
	str	r0, [sp]
	ldr	r0, [r6, #-48]
	movw	r7, #28672
	orr	r0, r0, #268435456
	str	r0, [r6, #-48]
	ldr	r0, [r6, #-48]
	movt	r7, #16384
	and	r0, r0, #268435456
	str	r0, [sp]
	ldr	r0, [sp]
.Ltmp18:
	.loc	5 2584 13                       @ ../Libraries/STM32F4xx_HAL_Driver/Src/stm32f4xx_hal_rcc_ex.c:2584:13
	ldr	r0, [r7]
	orr	r0, r0, #256
	str	r0, [r7]
	.loc	5 2587 17                       @ ../Libraries/STM32F4xx_HAL_Driver/Src/stm32f4xx_hal_rcc_ex.c:2587:17
	bl	HAL_GetTick
.Ltmp19:
	mov	r5, r0
.Ltmp20:
	@DEBUG_VALUE: HAL_RCCEx_PeriphCLKConfig:tickstart <- $r5
	.p2align	2
.LBB0_10:                               @ =>This Inner Loop Header: Depth=1
	@DEBUG_VALUE: HAL_RCCEx_PeriphCLKConfig:tickstart <- $r5
	@DEBUG_VALUE: HAL_RCCEx_PeriphCLKConfig:PeriphClkInit <- $r4
	@DEBUG_VALUE: HAL_RCCEx_PeriphCLKConfig:tmpreg1 <- 0
	.loc	5 2589 17                       @ ../Libraries/STM32F4xx_HAL_Driver/Src/stm32f4xx_hal_rcc_ex.c:2589:17
	ldr	r0, [r7]
	.loc	5 2589 5 is_stmt 0              @ ../Libraries/STM32F4xx_HAL_Driver/Src/stm32f4xx_hal_rcc_ex.c:2589:5
	lsls	r0, r0, #23
	bmi	.LBB0_13
.Ltmp21:
@ %bb.11:                               @   in Loop: Header=BB0_10 Depth=1
	@DEBUG_VALUE: HAL_RCCEx_PeriphCLKConfig:tickstart <- $r5
	@DEBUG_VALUE: HAL_RCCEx_PeriphCLKConfig:PeriphClkInit <- $r4
	@DEBUG_VALUE: HAL_RCCEx_PeriphCLKConfig:tmpreg1 <- 0
	.loc	5 2591 11 is_stmt 1             @ ../Libraries/STM32F4xx_HAL_Driver/Src/stm32f4xx_hal_rcc_ex.c:2591:11
	bl	HAL_GetTick
.Ltmp22:
	.loc	5 2591 25 is_stmt 0             @ ../Libraries/STM32F4xx_HAL_Driver/Src/stm32f4xx_hal_rcc_ex.c:2591:25
	subs	r0, r0, r5
.Ltmp23:
	.loc	5 2591 10                       @ ../Libraries/STM32F4xx_HAL_Driver/Src/stm32f4xx_hal_rcc_ex.c:2591:10
	cmp	r0, #2
	bls	.LBB0_10
.Ltmp24:
.LBB0_12:
	@DEBUG_VALUE: HAL_RCCEx_PeriphCLKConfig:tickstart <- $r5
	@DEBUG_VALUE: HAL_RCCEx_PeriphCLKConfig:PeriphClkInit <- $r4
	@DEBUG_VALUE: HAL_RCCEx_PeriphCLKConfig:tmpreg1 <- 0
	.loc	5 0 10                          @ ../Libraries/STM32F4xx_HAL_Driver/Src/stm32f4xx_hal_rcc_ex.c:0:10
	movs	r0, #3
	.loc	5 2634 1 is_stmt 1              @ ../Libraries/STM32F4xx_HAL_Driver/Src/stm32f4xx_hal_rcc_ex.c:2634:1
	add	sp, #4
	pop	{r4, r5, r6, r7, pc}
.Ltmp25:
.LBB0_13:
	@DEBUG_VALUE: HAL_RCCEx_PeriphCLKConfig:tickstart <- $r5
	@DEBUG_VALUE: HAL_RCCEx_PeriphCLKConfig:PeriphClkInit <- $r4
	@DEBUG_VALUE: HAL_RCCEx_PeriphCLKConfig:tmpreg1 <- 0
	.loc	5 2597 21                       @ ../Libraries/STM32F4xx_HAL_Driver/Src/stm32f4xx_hal_rcc_ex.c:2597:21
	ldr	r0, [r6]
	.loc	5 2597 26 is_stmt 0             @ ../Libraries/STM32F4xx_HAL_Driver/Src/stm32f4xx_hal_rcc_ex.c:2597:26
	ands	r0, r0, #768
.Ltmp26:
	@DEBUG_VALUE: HAL_RCCEx_PeriphCLKConfig:tmpreg1 <- $r0
	.loc	5 2598 33 is_stmt 1             @ ../Libraries/STM32F4xx_HAL_Driver/Src/stm32f4xx_hal_rcc_ex.c:2598:33
	beq	.LBB0_16
.Ltmp27:
@ %bb.14:
	@DEBUG_VALUE: HAL_RCCEx_PeriphCLKConfig:tmpreg1 <- $r0
	@DEBUG_VALUE: HAL_RCCEx_PeriphCLKConfig:tickstart <- $r5
	@DEBUG_VALUE: HAL_RCCEx_PeriphCLKConfig:PeriphClkInit <- $r4
	.loc	5 2598 66 is_stmt 0             @ ../Libraries/STM32F4xx_HAL_Driver/Src/stm32f4xx_hal_rcc_ex.c:2598:66
	ldr	r1, [r4, #12]
	.loc	5 2598 84                       @ ../Libraries/STM32F4xx_HAL_Driver/Src/stm32f4xx_hal_rcc_ex.c:2598:84
	and	r1, r1, #768
.Ltmp28:
	.loc	5 2598 8                        @ ../Libraries/STM32F4xx_HAL_Driver/Src/stm32f4xx_hal_rcc_ex.c:2598:8
	cmp	r0, r1
	beq	.LBB0_16
.Ltmp29:
@ %bb.15:
	@DEBUG_VALUE: HAL_RCCEx_PeriphCLKConfig:tmpreg1 <- $r0
	@DEBUG_VALUE: HAL_RCCEx_PeriphCLKConfig:tickstart <- $r5
	@DEBUG_VALUE: HAL_RCCEx_PeriphCLKConfig:PeriphClkInit <- $r4
	.loc	5 2601 23 is_stmt 1             @ ../Libraries/STM32F4xx_HAL_Driver/Src/stm32f4xx_hal_rcc_ex.c:2601:23
	ldr	r0, [r6]
.Ltmp30:
	.loc	5 0 23 is_stmt 0                @ ../Libraries/STM32F4xx_HAL_Driver/Src/stm32f4xx_hal_rcc_ex.c:0:23
	movw	r1, #3648
	movt	r1, #16967
	movs	r2, #1
	.loc	5 2601 28                       @ ../Libraries/STM32F4xx_HAL_Driver/Src/stm32f4xx_hal_rcc_ex.c:2601:28
	bic	r0, r0, #768
.Ltmp31:
	@DEBUG_VALUE: HAL_RCCEx_PeriphCLKConfig:tmpreg1 <- $r0
	.loc	5 2603 7 is_stmt 1              @ ../Libraries/STM32F4xx_HAL_Driver/Src/stm32f4xx_hal_rcc_ex.c:2603:7
	str	r2, [r1]
	movs	r2, #0
	.loc	5 2604 7                        @ ../Libraries/STM32F4xx_HAL_Driver/Src/stm32f4xx_hal_rcc_ex.c:2604:7
	str	r2, [r1]
	.loc	5 2606 17                       @ ../Libraries/STM32F4xx_HAL_Driver/Src/stm32f4xx_hal_rcc_ex.c:2606:17
	str	r0, [r6]
.Ltmp32:
	.loc	5 2609 10                       @ ../Libraries/STM32F4xx_HAL_Driver/Src/stm32f4xx_hal_rcc_ex.c:2609:10
	ldr	r0, [r6]
.Ltmp33:
	.loc	5 2609 10 is_stmt 0             @ ../Libraries/STM32F4xx_HAL_Driver/Src/stm32f4xx_hal_rcc_ex.c:2609:10
	lsls	r0, r0, #31
	bne	.LBB0_18
.Ltmp34:
.LBB0_16:
	@DEBUG_VALUE: HAL_RCCEx_PeriphCLKConfig:tickstart <- $r5
	@DEBUG_VALUE: HAL_RCCEx_PeriphCLKConfig:PeriphClkInit <- $r4
	.loc	5 2624 5 is_stmt 1              @ ../Libraries/STM32F4xx_HAL_Driver/Src/stm32f4xx_hal_rcc_ex.c:2624:5
	ldr	r0, [r4, #12]
	ldr	r1, [r6, #-104]
	movw	r3, #64767
	and	r2, r0, #768
	bic	r1, r1, #2031616
	movt	r3, #4095
	ands	r3, r0
	cmp.w	r2, #768
	it	eq
	orreq	r1, r3
	str	r1, [r6, #-104]
	ldr	r1, [r6]
	bfc	r0, #12, #20
	orrs	r0, r1
	str	r0, [r6]
	movs	r0, #0
.Ltmp35:
.LBB0_17:
	@DEBUG_VALUE: HAL_RCCEx_PeriphCLKConfig:PeriphClkInit <- $r4
	.loc	5 2634 1                        @ ../Libraries/STM32F4xx_HAL_Driver/Src/stm32f4xx_hal_rcc_ex.c:2634:1
	add	sp, #4
	pop	{r4, r5, r6, r7, pc}
.Ltmp36:
.LBB0_18:
	@DEBUG_VALUE: HAL_RCCEx_PeriphCLKConfig:tickstart <- $r5
	@DEBUG_VALUE: HAL_RCCEx_PeriphCLKConfig:PeriphClkInit <- $r4
	.loc	5 2612 21                       @ ../Libraries/STM32F4xx_HAL_Driver/Src/stm32f4xx_hal_rcc_ex.c:2612:21
	bl	HAL_GetTick
.Ltmp37:
	mov	r5, r0
.Ltmp38:
	@DEBUG_VALUE: HAL_RCCEx_PeriphCLKConfig:tickstart <- $r5
	.loc	5 0 21 is_stmt 0                @ ../Libraries/STM32F4xx_HAL_Driver/Src/stm32f4xx_hal_rcc_ex.c:0:21
	movw	r7, #5000
.Ltmp39:
	.p2align	2
.LBB0_19:                               @ =>This Inner Loop Header: Depth=1
	@DEBUG_VALUE: HAL_RCCEx_PeriphCLKConfig:tickstart <- $r5
	@DEBUG_VALUE: HAL_RCCEx_PeriphCLKConfig:PeriphClkInit <- $r4
	.loc	5 2615 15 is_stmt 1             @ ../Libraries/STM32F4xx_HAL_Driver/Src/stm32f4xx_hal_rcc_ex.c:2615:15
	ldr	r0, [r6]
	.loc	5 2615 9 is_stmt 0              @ ../Libraries/STM32F4xx_HAL_Driver/Src/stm32f4xx_hal_rcc_ex.c:2615:9
	lsls	r0, r0, #30
	bmi	.LBB0_16
.Ltmp40:
@ %bb.20:                               @   in Loop: Header=BB0_19 Depth=1
	@DEBUG_VALUE: HAL_RCCEx_PeriphCLKConfig:tickstart <- $r5
	@DEBUG_VALUE: HAL_RCCEx_PeriphCLKConfig:PeriphClkInit <- $r4
	.loc	5 2617 15 is_stmt 1             @ ../Libraries/STM32F4xx_HAL_Driver/Src/stm32f4xx_hal_rcc_ex.c:2617:15
	bl	HAL_GetTick
.Ltmp41:
	.loc	5 2617 29 is_stmt 0             @ ../Libraries/STM32F4xx_HAL_Driver/Src/stm32f4xx_hal_rcc_ex.c:2617:29
	subs	r0, r0, r5
.Ltmp42:
	.loc	5 2617 14                       @ ../Libraries/STM32F4xx_HAL_Driver/Src/stm32f4xx_hal_rcc_ex.c:2617:14
	cmp	r0, r7
	mov.w	r0, #3
	bls	.LBB0_19
	b	.LBB0_17
.Ltmp43:
.Lfunc_end0:
	.size	HAL_RCCEx_PeriphCLKConfig, .Lfunc_end0-HAL_RCCEx_PeriphCLKConfig
	.cfi_endproc
	.cantunwind
	.fnend
                                        @ -- End function
	.section	.text.HAL_RCCEx_GetPeriphCLKConfig,"ax",%progbits
	.hidden	HAL_RCCEx_GetPeriphCLKConfig    @ -- Begin function HAL_RCCEx_GetPeriphCLKConfig
	.globl	HAL_RCCEx_GetPeriphCLKConfig
	.p2align	2
	.type	HAL_RCCEx_GetPeriphCLKConfig,%function
	.code	16                              @ @HAL_RCCEx_GetPeriphCLKConfig
	.thumb_func
HAL_RCCEx_GetPeriphCLKConfig:
.Lfunc_begin1:
	.loc	5 2644 0 is_stmt 1              @ ../Libraries/STM32F4xx_HAL_Driver/Src/stm32f4xx_hal_rcc_ex.c:2644:0
	.fnstart
	.cfi_startproc
@ %bb.0:
	@DEBUG_VALUE: HAL_RCCEx_GetPeriphCLKConfig:PeriphClkInit <- $r0
	movs	r1, #3
.Ltmp44:
	.loc	5 2648 39 prologue_end          @ ../Libraries/STM32F4xx_HAL_Driver/Src/stm32f4xx_hal_rcc_ex.c:2648:39
	str	r1, [r0]
	movw	r1, #14468
	movt	r1, #16386
	.loc	5 2651 52                       @ ../Libraries/STM32F4xx_HAL_Driver/Src/stm32f4xx_hal_rcc_ex.c:2651:52
	ldr	r2, [r1]
	.loc	5 2651 89 is_stmt 0             @ ../Libraries/STM32F4xx_HAL_Driver/Src/stm32f4xx_hal_rcc_ex.c:2651:89
	ubfx	r2, r2, #6, #9
	.loc	5 2651 33                       @ ../Libraries/STM32F4xx_HAL_Driver/Src/stm32f4xx_hal_rcc_ex.c:2651:33
	str	r2, [r0, #4]
	.loc	5 2652 52 is_stmt 1             @ ../Libraries/STM32F4xx_HAL_Driver/Src/stm32f4xx_hal_rcc_ex.c:2652:52
	ldr	r2, [r1]
	.loc	5 2652 89 is_stmt 0             @ ../Libraries/STM32F4xx_HAL_Driver/Src/stm32f4xx_hal_rcc_ex.c:2652:89
	ubfx	r2, r2, #28, #3
	.loc	5 2652 33                       @ ../Libraries/STM32F4xx_HAL_Driver/Src/stm32f4xx_hal_rcc_ex.c:2652:33
	str	r2, [r0, #8]
	.loc	5 2657 19 is_stmt 1             @ ../Libraries/STM32F4xx_HAL_Driver/Src/stm32f4xx_hal_rcc_ex.c:2657:19
	ldr	r2, [r1, #-124]
	.loc	5 2658 67                       @ ../Libraries/STM32F4xx_HAL_Driver/Src/stm32f4xx_hal_rcc_ex.c:2658:67
	ldr	r1, [r1, #-20]
	.loc	5 2657 24                       @ ../Libraries/STM32F4xx_HAL_Driver/Src/stm32f4xx_hal_rcc_ex.c:2657:24
	and	r2, r2, #2031616
.Ltmp45:
	@DEBUG_VALUE: HAL_RCCEx_GetPeriphCLKConfig:tempreg <- $r2
	.loc	5 2658 72                       @ ../Libraries/STM32F4xx_HAL_Driver/Src/stm32f4xx_hal_rcc_ex.c:2658:72
	and	r1, r1, #768
	.loc	5 2658 59 is_stmt 0             @ ../Libraries/STM32F4xx_HAL_Driver/Src/stm32f4xx_hal_rcc_ex.c:2658:59
	add	r1, r2
	.loc	5 2658 36                       @ ../Libraries/STM32F4xx_HAL_Driver/Src/stm32f4xx_hal_rcc_ex.c:2658:36
	str	r1, [r0, #12]
	.loc	5 2671 1 is_stmt 1              @ ../Libraries/STM32F4xx_HAL_Driver/Src/stm32f4xx_hal_rcc_ex.c:2671:1
	bx	lr
.Ltmp46:
.Lfunc_end1:
	.size	HAL_RCCEx_GetPeriphCLKConfig, .Lfunc_end1-HAL_RCCEx_GetPeriphCLKConfig
	.cfi_endproc
	.cantunwind
	.fnend
                                        @ -- End function
	.section	.text.HAL_RCCEx_GetPeriphCLKFreq,"ax",%progbits
	.hidden	HAL_RCCEx_GetPeriphCLKFreq      @ -- Begin function HAL_RCCEx_GetPeriphCLKFreq
	.globl	HAL_RCCEx_GetPeriphCLKFreq
	.p2align	2
	.type	HAL_RCCEx_GetPeriphCLKFreq,%function
	.code	16                              @ @HAL_RCCEx_GetPeriphCLKFreq
	.thumb_func
HAL_RCCEx_GetPeriphCLKFreq:
.Lfunc_begin2:
	.loc	5 2682 0                        @ ../Libraries/STM32F4xx_HAL_Driver/Src/stm32f4xx_hal_rcc_ex.c:2682:0
	.fnstart
	.cfi_startproc
@ %bb.0:
	@DEBUG_VALUE: HAL_RCCEx_GetPeriphCLKFreq:PeriphClk <- $r0
	@DEBUG_VALUE: HAL_RCCEx_GetPeriphCLKFreq:frequency <- 0
	@DEBUG_VALUE: HAL_RCCEx_GetPeriphCLKFreq:vcoinput <- 0
	@DEBUG_VALUE: HAL_RCCEx_GetPeriphCLKFreq:srcclk <- 0
	@DEBUG_VALUE: HAL_RCCEx_GetPeriphCLKFreq:vcooutput <- 0
	.loc	5 2690 3 prologue_end           @ ../Libraries/STM32F4xx_HAL_Driver/Src/stm32f4xx_hal_rcc_ex.c:2690:3
	cmp	r0, #1
	bne	.LBB2_3
.Ltmp47:
@ %bb.1:
	@DEBUG_VALUE: HAL_RCCEx_GetPeriphCLKFreq:vcooutput <- 0
	@DEBUG_VALUE: HAL_RCCEx_GetPeriphCLKFreq:srcclk <- 0
	@DEBUG_VALUE: HAL_RCCEx_GetPeriphCLKFreq:vcoinput <- 0
	@DEBUG_VALUE: HAL_RCCEx_GetPeriphCLKFreq:frequency <- 0
	@DEBUG_VALUE: HAL_RCCEx_GetPeriphCLKFreq:PeriphClk <- $r0
	.loc	5 0 3 is_stmt 0                 @ ../Libraries/STM32F4xx_HAL_Driver/Src/stm32f4xx_hal_rcc_ex.c:0:3
	movw	r0, #14340
.Ltmp48:
	@DEBUG_VALUE: HAL_RCCEx_GetPeriphCLKFreq:PeriphClk <- [DW_OP_LLVM_entry_value 1] $r0
	movt	r0, #16386
.Ltmp49:
	.loc	5 2695 16 is_stmt 1             @ ../Libraries/STM32F4xx_HAL_Driver/Src/stm32f4xx_hal_rcc_ex.c:2695:16
	ldr	r1, [r0, #4]
	.loc	5 2696 7                        @ ../Libraries/STM32F4xx_HAL_Driver/Src/stm32f4xx_hal_rcc_ex.c:2696:7
	lsls	r1, r1, #8
.Ltmp50:
	@DEBUG_VALUE: HAL_RCCEx_GetPeriphCLKFreq:srcclk <- $r1
	bmi	.LBB2_3
.Ltmp51:
@ %bb.2:
	@DEBUG_VALUE: HAL_RCCEx_GetPeriphCLKFreq:srcclk <- $r1
	@DEBUG_VALUE: HAL_RCCEx_GetPeriphCLKFreq:PeriphClk <- [DW_OP_LLVM_entry_value 1] $r0
	@DEBUG_VALUE: HAL_RCCEx_GetPeriphCLKFreq:vcooutput <- 0
	@DEBUG_VALUE: HAL_RCCEx_GetPeriphCLKFreq:vcoinput <- 0
	@DEBUG_VALUE: HAL_RCCEx_GetPeriphCLKFreq:frequency <- 0
	.loc	5 2724 20                       @ ../Libraries/STM32F4xx_HAL_Driver/Src/stm32f4xx_hal_rcc_ex.c:2724:20
	ldr	r1, [r0]
.Ltmp52:
	.loc	5 0 0 is_stmt 0                 @ ../Libraries/STM32F4xx_HAL_Driver/Src/stm32f4xx_hal_rcc_ex.c:0:0
	ldr	r2, [r0]
	lsls	r1, r1, #9
	movw	r1, #4608
	movt	r1, #122
	and	r2, r2, #63
	itt	pl
	movwpl	r1, #9216
	movtpl	r1, #244
.Ltmp53:
	.loc	5 2736 53 is_stmt 1             @ ../Libraries/STM32F4xx_HAL_Driver/Src/stm32f4xx_hal_rcc_ex.c:2736:53
	ldr.w	r3, [r0, #128]
.Ltmp54:
	.loc	5 0 0 is_stmt 0                 @ ../Libraries/STM32F4xx_HAL_Driver/Src/stm32f4xx_hal_rcc_ex.c:0:0
	udiv	r1, r1, r2
.Ltmp55:
	@DEBUG_VALUE: HAL_RCCEx_GetPeriphCLKFreq:vcoinput <- $r1
	.loc	5 2738 53 is_stmt 1             @ ../Libraries/STM32F4xx_HAL_Driver/Src/stm32f4xx_hal_rcc_ex.c:2738:53
	ldr.w	r0, [r0, #128]
	.loc	5 2736 90                       @ ../Libraries/STM32F4xx_HAL_Driver/Src/stm32f4xx_hal_rcc_ex.c:2736:90
	ubfx	r2, r3, #6, #9
	.loc	5 2736 43 is_stmt 0             @ ../Libraries/STM32F4xx_HAL_Driver/Src/stm32f4xx_hal_rcc_ex.c:2736:43
	muls	r1, r2, r1
.Ltmp56:
	@DEBUG_VALUE: HAL_RCCEx_GetPeriphCLKFreq:vcooutput <- $r1
	.loc	5 2738 90 is_stmt 1             @ ../Libraries/STM32F4xx_HAL_Driver/Src/stm32f4xx_hal_rcc_ex.c:2738:90
	ubfx	r0, r0, #28, #3
	.loc	5 2738 44 is_stmt 0             @ ../Libraries/STM32F4xx_HAL_Driver/Src/stm32f4xx_hal_rcc_ex.c:2738:44
	udiv	r0, r1, r0
.Ltmp57:
	@DEBUG_VALUE: HAL_RCCEx_GetPeriphCLKFreq:frequency <- $r0
	@DEBUG_VALUE: HAL_RCCEx_GetPeriphCLKFreq:frequency <- $r0
	.loc	5 2751 3 is_stmt 1              @ ../Libraries/STM32F4xx_HAL_Driver/Src/stm32f4xx_hal_rcc_ex.c:2751:3
	bx	lr
.Ltmp58:
.LBB2_3:
	@DEBUG_VALUE: HAL_RCCEx_GetPeriphCLKFreq:vcooutput <- 0
	@DEBUG_VALUE: HAL_RCCEx_GetPeriphCLKFreq:vcoinput <- 0
	@DEBUG_VALUE: HAL_RCCEx_GetPeriphCLKFreq:frequency <- 0
	.loc	5 0 3 is_stmt 0                 @ ../Libraries/STM32F4xx_HAL_Driver/Src/stm32f4xx_hal_rcc_ex.c:0:3
	movs	r0, #0
.Ltmp59:
	@DEBUG_VALUE: HAL_RCCEx_GetPeriphCLKFreq:frequency <- $r0
	.loc	5 2751 3                        @ ../Libraries/STM32F4xx_HAL_Driver/Src/stm32f4xx_hal_rcc_ex.c:2751:3
	bx	lr
.Ltmp60:
.Lfunc_end2:
	.size	HAL_RCCEx_GetPeriphCLKFreq, .Lfunc_end2-HAL_RCCEx_GetPeriphCLKFreq
	.cfi_endproc
	.cantunwind
	.fnend
                                        @ -- End function
	.section	.text.HAL_RCCEx_EnablePLLI2S,"ax",%progbits
	.hidden	HAL_RCCEx_EnablePLLI2S          @ -- Begin function HAL_RCCEx_EnablePLLI2S
	.globl	HAL_RCCEx_EnablePLLI2S
	.p2align	2
	.type	HAL_RCCEx_EnablePLLI2S,%function
	.code	16                              @ @HAL_RCCEx_EnablePLLI2S
	.thumb_func
HAL_RCCEx_EnablePLLI2S:
.Lfunc_begin3:
	.loc	5 2806 0 is_stmt 1              @ ../Libraries/STM32F4xx_HAL_Driver/Src/stm32f4xx_hal_rcc_ex.c:2806:0
	.fnstart
	.cfi_startproc
@ %bb.0:
	@DEBUG_VALUE: HAL_RCCEx_EnablePLLI2S:PLLI2SInit <- $r0
	.save	{r4, r5, r6, r7, lr}
	push	{r4, r5, r6, r7, lr}
	.cfi_def_cfa_offset 20
	.cfi_offset lr, -4
	.cfi_offset r7, -8
	.cfi_offset r6, -12
	.cfi_offset r5, -16
	.cfi_offset r4, -20
	.pad	#4
	sub	sp, #4
	.cfi_def_cfa_offset 24
	movs	r7, #104
	mov	r4, r0
.Ltmp61:
	@DEBUG_VALUE: HAL_RCCEx_EnablePLLI2S:PLLI2SInit <- $r4
	@DEBUG_VALUE: HAL_RCCEx_EnablePLLI2S:PLLI2SInit <- $r4
	movt	r7, #16967
	movw	r6, #14336
	movs	r0, #0
	movt	r6, #16386
.Ltmp62:
	.loc	5 2823 3 prologue_end           @ ../Libraries/STM32F4xx_HAL_Driver/Src/stm32f4xx_hal_rcc_ex.c:2823:3
	str	r0, [r7]
	.loc	5 2826 15                       @ ../Libraries/STM32F4xx_HAL_Driver/Src/stm32f4xx_hal_rcc_ex.c:2826:15
	bl	HAL_GetTick
.Ltmp63:
	mov	r5, r0
.Ltmp64:
	@DEBUG_VALUE: HAL_RCCEx_EnablePLLI2S:tickstart <- $r5
	.p2align	2
.LBB3_1:                                @ =>This Inner Loop Header: Depth=1
	@DEBUG_VALUE: HAL_RCCEx_EnablePLLI2S:tickstart <- $r5
	@DEBUG_VALUE: HAL_RCCEx_EnablePLLI2S:PLLI2SInit <- $r4
	.loc	5 2827 9                        @ ../Libraries/STM32F4xx_HAL_Driver/Src/stm32f4xx_hal_rcc_ex.c:2827:9
	ldr	r0, [r6]
	.loc	5 2827 3 is_stmt 0              @ ../Libraries/STM32F4xx_HAL_Driver/Src/stm32f4xx_hal_rcc_ex.c:2827:3
	lsls	r0, r0, #4
	bpl	.LBB3_3
.Ltmp65:
@ %bb.2:                                @   in Loop: Header=BB3_1 Depth=1
	@DEBUG_VALUE: HAL_RCCEx_EnablePLLI2S:tickstart <- $r5
	@DEBUG_VALUE: HAL_RCCEx_EnablePLLI2S:PLLI2SInit <- $r4
	.loc	5 2829 9 is_stmt 1              @ ../Libraries/STM32F4xx_HAL_Driver/Src/stm32f4xx_hal_rcc_ex.c:2829:9
	bl	HAL_GetTick
.Ltmp66:
	.loc	5 2829 23 is_stmt 0             @ ../Libraries/STM32F4xx_HAL_Driver/Src/stm32f4xx_hal_rcc_ex.c:2829:23
	subs	r0, r0, r5
.Ltmp67:
	.loc	5 2829 8                        @ ../Libraries/STM32F4xx_HAL_Driver/Src/stm32f4xx_hal_rcc_ex.c:2829:8
	cmp	r0, #2
	bls	.LBB3_1
	b	.LBB3_6
.Ltmp68:
.LBB3_3:
	@DEBUG_VALUE: HAL_RCCEx_EnablePLLI2S:tickstart <- $r5
	@DEBUG_VALUE: HAL_RCCEx_EnablePLLI2S:PLLI2SInit <- $r4
	.loc	5 2864 3 is_stmt 1              @ ../Libraries/STM32F4xx_HAL_Driver/Src/stm32f4xx_hal_rcc_ex.c:2864:3
	ldrd	r1, r0, [r4]
	lsls	r0, r0, #28
	orr.w	r0, r0, r1, lsl #6
	str.w	r0, [r6, #132]
	movs	r0, #1
	.loc	5 2868 3                        @ ../Libraries/STM32F4xx_HAL_Driver/Src/stm32f4xx_hal_rcc_ex.c:2868:3
	str	r0, [r7]
	.loc	5 2871 15                       @ ../Libraries/STM32F4xx_HAL_Driver/Src/stm32f4xx_hal_rcc_ex.c:2871:15
	bl	HAL_GetTick
.Ltmp69:
	mov	r4, r0
.Ltmp70:
	@DEBUG_VALUE: HAL_RCCEx_EnablePLLI2S:PLLI2SInit <- [DW_OP_LLVM_entry_value 1] $r0
	@DEBUG_VALUE: HAL_RCCEx_EnablePLLI2S:tickstart <- $r4
	.p2align	2
.LBB3_4:                                @ =>This Inner Loop Header: Depth=1
	@DEBUG_VALUE: HAL_RCCEx_EnablePLLI2S:tickstart <- $r4
	@DEBUG_VALUE: HAL_RCCEx_EnablePLLI2S:PLLI2SInit <- [DW_OP_LLVM_entry_value 1] $r0
	.loc	5 2872 9                        @ ../Libraries/STM32F4xx_HAL_Driver/Src/stm32f4xx_hal_rcc_ex.c:2872:9
	ldr	r0, [r6]
	.loc	5 2872 3 is_stmt 0              @ ../Libraries/STM32F4xx_HAL_Driver/Src/stm32f4xx_hal_rcc_ex.c:2872:3
	lsls	r0, r0, #4
	bmi	.LBB3_7
.Ltmp71:
@ %bb.5:                                @   in Loop: Header=BB3_4 Depth=1
	@DEBUG_VALUE: HAL_RCCEx_EnablePLLI2S:tickstart <- $r4
	@DEBUG_VALUE: HAL_RCCEx_EnablePLLI2S:PLLI2SInit <- [DW_OP_LLVM_entry_value 1] $r0
	.loc	5 2874 9 is_stmt 1              @ ../Libraries/STM32F4xx_HAL_Driver/Src/stm32f4xx_hal_rcc_ex.c:2874:9
	bl	HAL_GetTick
.Ltmp72:
	.loc	5 2874 23 is_stmt 0             @ ../Libraries/STM32F4xx_HAL_Driver/Src/stm32f4xx_hal_rcc_ex.c:2874:23
	subs	r0, r0, r4
.Ltmp73:
	.loc	5 2874 8                        @ ../Libraries/STM32F4xx_HAL_Driver/Src/stm32f4xx_hal_rcc_ex.c:2874:8
	cmp	r0, #3
	blo	.LBB3_4
.Ltmp74:
.LBB3_6:
	.loc	5 0 8                           @ ../Libraries/STM32F4xx_HAL_Driver/Src/stm32f4xx_hal_rcc_ex.c:0:8
	movs	r0, #3
	.loc	5 2882 1 is_stmt 1              @ ../Libraries/STM32F4xx_HAL_Driver/Src/stm32f4xx_hal_rcc_ex.c:2882:1
	add	sp, #4
	pop	{r4, r5, r6, r7, pc}
.LBB3_7:
.Ltmp75:
	@DEBUG_VALUE: HAL_RCCEx_EnablePLLI2S:tickstart <- $r4
	@DEBUG_VALUE: HAL_RCCEx_EnablePLLI2S:PLLI2SInit <- [DW_OP_LLVM_entry_value 1] $r0
	.loc	5 0 1 is_stmt 0                 @ ../Libraries/STM32F4xx_HAL_Driver/Src/stm32f4xx_hal_rcc_ex.c:0:1
	movs	r0, #0
	.loc	5 2882 1                        @ ../Libraries/STM32F4xx_HAL_Driver/Src/stm32f4xx_hal_rcc_ex.c:2882:1
	add	sp, #4
	pop	{r4, r5, r6, r7, pc}
.Ltmp76:
.Lfunc_end3:
	.size	HAL_RCCEx_EnablePLLI2S, .Lfunc_end3-HAL_RCCEx_EnablePLLI2S
	.cfi_endproc
	.cantunwind
	.fnend
                                        @ -- End function
	.section	.text.HAL_RCCEx_DisablePLLI2S,"ax",%progbits
	.hidden	HAL_RCCEx_DisablePLLI2S         @ -- Begin function HAL_RCCEx_DisablePLLI2S
	.globl	HAL_RCCEx_DisablePLLI2S
	.p2align	2
	.type	HAL_RCCEx_DisablePLLI2S,%function
	.code	16                              @ @HAL_RCCEx_DisablePLLI2S
	.thumb_func
HAL_RCCEx_DisablePLLI2S:
.Lfunc_begin4:
	.loc	5 2889 0 is_stmt 1              @ ../Libraries/STM32F4xx_HAL_Driver/Src/stm32f4xx_hal_rcc_ex.c:2889:0
	.fnstart
	.cfi_startproc
@ %bb.0:
	.save	{r4, r5, r7, lr}
	push	{r4, r5, r7, lr}
	.cfi_def_cfa_offset 16
	.cfi_offset lr, -4
	.cfi_offset r7, -8
	.cfi_offset r5, -12
	.cfi_offset r4, -16
	movs	r0, #104
	movt	r0, #16967
	movs	r1, #0
.Ltmp77:
	.loc	5 2893 3 prologue_end           @ ../Libraries/STM32F4xx_HAL_Driver/Src/stm32f4xx_hal_rcc_ex.c:2893:3
	str	r1, [r0]
	.loc	5 2896 15                       @ ../Libraries/STM32F4xx_HAL_Driver/Src/stm32f4xx_hal_rcc_ex.c:2896:15
	bl	HAL_GetTick
.Ltmp78:
	.loc	5 0 15 is_stmt 0                @ ../Libraries/STM32F4xx_HAL_Driver/Src/stm32f4xx_hal_rcc_ex.c:0:15
	movw	r5, #14336
	.loc	5 2896 15                       @ ../Libraries/STM32F4xx_HAL_Driver/Src/stm32f4xx_hal_rcc_ex.c:2896:15
	mov	r4, r0
.Ltmp79:
	@DEBUG_VALUE: HAL_RCCEx_DisablePLLI2S:tickstart <- $r4
	.loc	5 0 15                          @ ../Libraries/STM32F4xx_HAL_Driver/Src/stm32f4xx_hal_rcc_ex.c:0:15
	movt	r5, #16386
.Ltmp80:
	.p2align	2
.LBB4_1:                                @ =>This Inner Loop Header: Depth=1
	@DEBUG_VALUE: HAL_RCCEx_DisablePLLI2S:tickstart <- $r4
	.loc	5 2897 9 is_stmt 1              @ ../Libraries/STM32F4xx_HAL_Driver/Src/stm32f4xx_hal_rcc_ex.c:2897:9
	ldr	r0, [r5]
	.loc	5 2897 3 is_stmt 0              @ ../Libraries/STM32F4xx_HAL_Driver/Src/stm32f4xx_hal_rcc_ex.c:2897:3
	lsls	r0, r0, #4
	bpl	.LBB4_4
.Ltmp81:
@ %bb.2:                                @   in Loop: Header=BB4_1 Depth=1
	@DEBUG_VALUE: HAL_RCCEx_DisablePLLI2S:tickstart <- $r4
	.loc	5 2899 9 is_stmt 1              @ ../Libraries/STM32F4xx_HAL_Driver/Src/stm32f4xx_hal_rcc_ex.c:2899:9
	bl	HAL_GetTick
.Ltmp82:
	.loc	5 2899 23 is_stmt 0             @ ../Libraries/STM32F4xx_HAL_Driver/Src/stm32f4xx_hal_rcc_ex.c:2899:23
	subs	r0, r0, r4
.Ltmp83:
	.loc	5 2899 8                        @ ../Libraries/STM32F4xx_HAL_Driver/Src/stm32f4xx_hal_rcc_ex.c:2899:8
	cmp	r0, #3
	blo	.LBB4_1
.Ltmp84:
@ %bb.3:
	@DEBUG_VALUE: HAL_RCCEx_DisablePLLI2S:tickstart <- $r4
	.loc	5 0 8                           @ ../Libraries/STM32F4xx_HAL_Driver/Src/stm32f4xx_hal_rcc_ex.c:0:8
	movs	r0, #3
	.loc	5 2907 1 is_stmt 1              @ ../Libraries/STM32F4xx_HAL_Driver/Src/stm32f4xx_hal_rcc_ex.c:2907:1
	pop	{r4, r5, r7, pc}
.Ltmp85:
.LBB4_4:
	@DEBUG_VALUE: HAL_RCCEx_DisablePLLI2S:tickstart <- $r4
	.loc	5 0 1 is_stmt 0                 @ ../Libraries/STM32F4xx_HAL_Driver/Src/stm32f4xx_hal_rcc_ex.c:0:1
	movs	r0, #0
	.loc	5 2907 1                        @ ../Libraries/STM32F4xx_HAL_Driver/Src/stm32f4xx_hal_rcc_ex.c:2907:1
	pop	{r4, r5, r7, pc}
.Ltmp86:
.Lfunc_end4:
	.size	HAL_RCCEx_DisablePLLI2S, .Lfunc_end4-HAL_RCCEx_DisablePLLI2S
	.cfi_endproc
	.cantunwind
	.fnend
                                        @ -- End function
	.section	.text.HAL_RCC_DeInit,"ax",%progbits
	.hidden	HAL_RCC_DeInit                  @ -- Begin function HAL_RCC_DeInit
	.globl	HAL_RCC_DeInit
	.p2align	2
	.type	HAL_RCC_DeInit,%function
	.code	16                              @ @HAL_RCC_DeInit
	.thumb_func
HAL_RCC_DeInit:
.Lfunc_begin5:
	.loc	5 3146 0 is_stmt 1              @ ../Libraries/STM32F4xx_HAL_Driver/Src/stm32f4xx_hal_rcc_ex.c:3146:0
	.fnstart
	.cfi_startproc
@ %bb.0:
	.save	{r4, r5, r6, r7, lr}
	push	{r4, r5, r6, r7, lr}
	.cfi_def_cfa_offset 20
	.cfi_offset lr, -4
	.cfi_offset r7, -8
	.cfi_offset r6, -12
	.cfi_offset r5, -16
	.cfi_offset r4, -20
	.pad	#4
	sub	sp, #4
	.cfi_def_cfa_offset 24
	movw	r6, #14336
	movt	r6, #16386
.Ltmp87:
	.loc	5 3150 15 prologue_end          @ ../Libraries/STM32F4xx_HAL_Driver/Src/stm32f4xx_hal_rcc_ex.c:3150:15
	bl	HAL_GetTick
.Ltmp88:
	.loc	5 3153 3                        @ ../Libraries/STM32F4xx_HAL_Driver/Src/stm32f4xx_hal_rcc_ex.c:3153:3
	ldr	r1, [r6]
	.loc	5 3150 15                       @ ../Libraries/STM32F4xx_HAL_Driver/Src/stm32f4xx_hal_rcc_ex.c:3150:15
	mov	r4, r0
.Ltmp89:
	@DEBUG_VALUE: HAL_RCC_DeInit:tickstart <- $r4
	.loc	5 3153 3                        @ ../Libraries/STM32F4xx_HAL_Driver/Src/stm32f4xx_hal_rcc_ex.c:3153:3
	orr	r0, r1, #1
	str	r0, [r6]
.Ltmp90:
	.p2align	2
.LBB5_1:                                @ =>This Inner Loop Header: Depth=1
	@DEBUG_VALUE: HAL_RCC_DeInit:tickstart <- $r4
	.loc	5 3156 10                       @ ../Libraries/STM32F4xx_HAL_Driver/Src/stm32f4xx_hal_rcc_ex.c:3156:10
	ldr	r0, [r6]
	.loc	5 3156 3 is_stmt 0              @ ../Libraries/STM32F4xx_HAL_Driver/Src/stm32f4xx_hal_rcc_ex.c:3156:3
	lsls	r0, r0, #30
	bmi	.LBB5_3
.Ltmp91:
@ %bb.2:                                @   in Loop: Header=BB5_1 Depth=1
	@DEBUG_VALUE: HAL_RCC_DeInit:tickstart <- $r4
	.loc	5 3158 10 is_stmt 1             @ ../Libraries/STM32F4xx_HAL_Driver/Src/stm32f4xx_hal_rcc_ex.c:3158:10
	bl	HAL_GetTick
.Ltmp92:
	.loc	5 3158 24 is_stmt 0             @ ../Libraries/STM32F4xx_HAL_Driver/Src/stm32f4xx_hal_rcc_ex.c:3158:24
	subs	r0, r0, r4
.Ltmp93:
	.loc	5 3158 9                        @ ../Libraries/STM32F4xx_HAL_Driver/Src/stm32f4xx_hal_rcc_ex.c:3158:9
	cmp	r0, #2
	bls	.LBB5_1
	b	.LBB5_15
.Ltmp94:
.LBB5_3:
	@DEBUG_VALUE: HAL_RCC_DeInit:tickstart <- $r4
	.loc	5 3165 3 is_stmt 1              @ ../Libraries/STM32F4xx_HAL_Driver/Src/stm32f4xx_hal_rcc_ex.c:3165:3
	ldr	r0, [r6]
	orr	r0, r0, #128
	str	r0, [r6]
	.loc	5 3168 15                       @ ../Libraries/STM32F4xx_HAL_Driver/Src/stm32f4xx_hal_rcc_ex.c:3168:15
	bl	HAL_GetTick
.Ltmp95:
	mov	r5, r0
.Ltmp96:
	@DEBUG_VALUE: HAL_RCC_DeInit:tickstart <- $r5
	.loc	5 0 15 is_stmt 0                @ ../Libraries/STM32F4xx_HAL_Driver/Src/stm32f4xx_hal_rcc_ex.c:0:15
	movs	r0, #0
	movw	r7, #5000
	.loc	5 3171 3 is_stmt 1              @ ../Libraries/STM32F4xx_HAL_Driver/Src/stm32f4xx_hal_rcc_ex.c:3171:3
	str	r0, [r6, #8]
.Ltmp97:
	.p2align	2
.LBB5_4:                                @ =>This Inner Loop Header: Depth=1
	@DEBUG_VALUE: HAL_RCC_DeInit:tickstart <- $r5
	.loc	5 3174 10                       @ ../Libraries/STM32F4xx_HAL_Driver/Src/stm32f4xx_hal_rcc_ex.c:3174:10
	ldr	r4, [r6, #8]
	.loc	5 0 0 is_stmt 0                 @ ../Libraries/STM32F4xx_HAL_Driver/Src/stm32f4xx_hal_rcc_ex.c:0:0
	bl	HAL_GetTick
.Ltmp98:
	.loc	5 3174 3                        @ ../Libraries/STM32F4xx_HAL_Driver/Src/stm32f4xx_hal_rcc_ex.c:3174:3
	tst.w	r4, #12
	.loc	5 0 0                           @ ../Libraries/STM32F4xx_HAL_Driver/Src/stm32f4xx_hal_rcc_ex.c:0:0
	mov	r4, r0
	.loc	5 3174 3                        @ ../Libraries/STM32F4xx_HAL_Driver/Src/stm32f4xx_hal_rcc_ex.c:3174:3
	beq	.LBB5_6
.Ltmp99:
@ %bb.5:                                @   in Loop: Header=BB5_4 Depth=1
	@DEBUG_VALUE: HAL_RCC_DeInit:tickstart <- $r5
	.loc	5 3176 24 is_stmt 1             @ ../Libraries/STM32F4xx_HAL_Driver/Src/stm32f4xx_hal_rcc_ex.c:3176:24
	subs	r0, r4, r5
.Ltmp100:
	.loc	5 3176 9 is_stmt 0              @ ../Libraries/STM32F4xx_HAL_Driver/Src/stm32f4xx_hal_rcc_ex.c:3176:9
	cmp	r0, r7
	bls	.LBB5_4
	b	.LBB5_15
.Ltmp101:
.LBB5_6:
	@DEBUG_VALUE: HAL_RCC_DeInit:tickstart <- $r5
	@DEBUG_VALUE: HAL_RCC_DeInit:tickstart <- $r4
	.loc	5 3186 3 is_stmt 1              @ ../Libraries/STM32F4xx_HAL_Driver/Src/stm32f4xx_hal_rcc_ex.c:3186:3
	ldr	r0, [r6]
	bic	r0, r0, #851968
	str	r0, [r6]
.Ltmp102:
	.p2align	2
.LBB5_7:                                @ =>This Inner Loop Header: Depth=1
	@DEBUG_VALUE: HAL_RCC_DeInit:tickstart <- $r4
	.loc	5 3189 10                       @ ../Libraries/STM32F4xx_HAL_Driver/Src/stm32f4xx_hal_rcc_ex.c:3189:10
	ldr	r5, [r6]
	.loc	5 0 0 is_stmt 0                 @ ../Libraries/STM32F4xx_HAL_Driver/Src/stm32f4xx_hal_rcc_ex.c:0:0
	bl	HAL_GetTick
.Ltmp103:
	.loc	5 3189 3                        @ ../Libraries/STM32F4xx_HAL_Driver/Src/stm32f4xx_hal_rcc_ex.c:3189:3
	lsls	r1, r5, #14
	.loc	5 0 0                           @ ../Libraries/STM32F4xx_HAL_Driver/Src/stm32f4xx_hal_rcc_ex.c:0:0
	mov	r5, r0
	.loc	5 3189 3                        @ ../Libraries/STM32F4xx_HAL_Driver/Src/stm32f4xx_hal_rcc_ex.c:3189:3
	bpl	.LBB5_9
.Ltmp104:
@ %bb.8:                                @   in Loop: Header=BB5_7 Depth=1
	@DEBUG_VALUE: HAL_RCC_DeInit:tickstart <- $r4
	.loc	5 3191 24 is_stmt 1             @ ../Libraries/STM32F4xx_HAL_Driver/Src/stm32f4xx_hal_rcc_ex.c:3191:24
	subs	r0, r5, r4
.Ltmp105:
	.loc	5 3191 9 is_stmt 0              @ ../Libraries/STM32F4xx_HAL_Driver/Src/stm32f4xx_hal_rcc_ex.c:3191:9
	cmp	r0, #100
	bls	.LBB5_7
	b	.LBB5_15
.Ltmp106:
.LBB5_9:
	@DEBUG_VALUE: HAL_RCC_DeInit:tickstart <- $r4
	@DEBUG_VALUE: HAL_RCC_DeInit:tickstart <- $r5
	.loc	5 3201 3 is_stmt 1              @ ../Libraries/STM32F4xx_HAL_Driver/Src/stm32f4xx_hal_rcc_ex.c:3201:3
	ldr	r0, [r6]
	bic	r0, r0, #16777216
	str	r0, [r6]
.Ltmp107:
	.p2align	2
.LBB5_10:                               @ =>This Inner Loop Header: Depth=1
	@DEBUG_VALUE: HAL_RCC_DeInit:tickstart <- $r5
	.loc	5 3204 10                       @ ../Libraries/STM32F4xx_HAL_Driver/Src/stm32f4xx_hal_rcc_ex.c:3204:10
	ldr	r4, [r6]
	.loc	5 0 0 is_stmt 0                 @ ../Libraries/STM32F4xx_HAL_Driver/Src/stm32f4xx_hal_rcc_ex.c:0:0
	bl	HAL_GetTick
.Ltmp108:
	.loc	5 3204 3                        @ ../Libraries/STM32F4xx_HAL_Driver/Src/stm32f4xx_hal_rcc_ex.c:3204:3
	lsls	r1, r4, #6
	.loc	5 0 0                           @ ../Libraries/STM32F4xx_HAL_Driver/Src/stm32f4xx_hal_rcc_ex.c:0:0
	mov	r4, r0
	.loc	5 3204 3                        @ ../Libraries/STM32F4xx_HAL_Driver/Src/stm32f4xx_hal_rcc_ex.c:3204:3
	bpl	.LBB5_12
.Ltmp109:
@ %bb.11:                               @   in Loop: Header=BB5_10 Depth=1
	@DEBUG_VALUE: HAL_RCC_DeInit:tickstart <- $r5
	.loc	5 3206 24 is_stmt 1             @ ../Libraries/STM32F4xx_HAL_Driver/Src/stm32f4xx_hal_rcc_ex.c:3206:24
	subs	r0, r4, r5
.Ltmp110:
	.loc	5 3206 9 is_stmt 0              @ ../Libraries/STM32F4xx_HAL_Driver/Src/stm32f4xx_hal_rcc_ex.c:3206:9
	cmp	r0, #2
	bls	.LBB5_10
	b	.LBB5_15
.Ltmp111:
.LBB5_12:
	@DEBUG_VALUE: HAL_RCC_DeInit:tickstart <- $r5
	@DEBUG_VALUE: HAL_RCC_DeInit:tickstart <- $r4
	.loc	5 3217 3 is_stmt 1              @ ../Libraries/STM32F4xx_HAL_Driver/Src/stm32f4xx_hal_rcc_ex.c:3217:3
	ldr	r0, [r6]
	bic	r0, r0, #67108864
	str	r0, [r6]
.Ltmp112:
	.p2align	2
.LBB5_13:                               @ =>This Inner Loop Header: Depth=1
	@DEBUG_VALUE: HAL_RCC_DeInit:tickstart <- $r4
	.loc	5 3220 10                       @ ../Libraries/STM32F4xx_HAL_Driver/Src/stm32f4xx_hal_rcc_ex.c:3220:10
	ldr	r0, [r6]
	.loc	5 3220 3 is_stmt 0              @ ../Libraries/STM32F4xx_HAL_Driver/Src/stm32f4xx_hal_rcc_ex.c:3220:3
	lsls	r0, r0, #4
	bpl	.LBB5_16
.Ltmp113:
@ %bb.14:                               @   in Loop: Header=BB5_13 Depth=1
	@DEBUG_VALUE: HAL_RCC_DeInit:tickstart <- $r4
	.loc	5 3222 10 is_stmt 1             @ ../Libraries/STM32F4xx_HAL_Driver/Src/stm32f4xx_hal_rcc_ex.c:3222:10
	bl	HAL_GetTick
.Ltmp114:
	.loc	5 3222 24 is_stmt 0             @ ../Libraries/STM32F4xx_HAL_Driver/Src/stm32f4xx_hal_rcc_ex.c:3222:24
	subs	r0, r0, r4
.Ltmp115:
	.loc	5 3222 9                        @ ../Libraries/STM32F4xx_HAL_Driver/Src/stm32f4xx_hal_rcc_ex.c:3222:9
	cmp	r0, #2
	bls	.LBB5_13
.Ltmp116:
.LBB5_15:
	.loc	5 0 9                           @ ../Libraries/STM32F4xx_HAL_Driver/Src/stm32f4xx_hal_rcc_ex.c:0:9
	movs	r0, #3
	.loc	5 3315 1 is_stmt 1              @ ../Libraries/STM32F4xx_HAL_Driver/Src/stm32f4xx_hal_rcc_ex.c:3315:1
	add	sp, #4
	pop	{r4, r5, r6, r7, pc}
.LBB5_16:
.Ltmp117:
	@DEBUG_VALUE: HAL_RCC_DeInit:tickstart <- $r4
	.loc	5 0 1 is_stmt 0                 @ ../Libraries/STM32F4xx_HAL_Driver/Src/stm32f4xx_hal_rcc_ex.c:0:1
	movw	r0, #12304
	movt	r0, #1024
	.loc	5 3253 16 is_stmt 1             @ ../Libraries/STM32F4xx_HAL_Driver/Src/stm32f4xx_hal_rcc_ex.c:3253:16
	str	r0, [r6, #4]
	movw	r0, #12288
	movt	r0, #8192
	.loc	5 3261 19                       @ ../Libraries/STM32F4xx_HAL_Driver/Src/stm32f4xx_hal_rcc_ex.c:3261:19
	str.w	r0, [r6, #132]
	.loc	5 3276 3                        @ ../Libraries/STM32F4xx_HAL_Driver/Src/stm32f4xx_hal_rcc_ex.c:3276:3
	ldr	r0, [r6, #12]
	.loc	5 3304 19                       @ ../Libraries/STM32F4xx_HAL_Driver/Src/stm32f4xx_hal_rcc_ex.c:3304:19
	movw	r1, :lower16:SystemCoreClock
	.loc	5 3276 3                        @ ../Libraries/STM32F4xx_HAL_Driver/Src/stm32f4xx_hal_rcc_ex.c:3276:3
	bic	r0, r0, #7936
	str	r0, [r6, #12]
	.loc	5 3279 3                        @ ../Libraries/STM32F4xx_HAL_Driver/Src/stm32f4xx_hal_rcc_ex.c:3279:3
	ldr	r0, [r6, #12]
	movw	r2, #9216
	bic	r0, r0, #8192
	str	r0, [r6, #12]
	.loc	5 3287 3                        @ ../Libraries/STM32F4xx_HAL_Driver/Src/stm32f4xx_hal_rcc_ex.c:3287:3
	ldr	r0, [r6, #12]
	.loc	5 3304 19                       @ ../Libraries/STM32F4xx_HAL_Driver/Src/stm32f4xx_hal_rcc_ex.c:3304:19
	movt	r1, :upper16:SystemCoreClock
	.loc	5 3287 3                        @ ../Libraries/STM32F4xx_HAL_Driver/Src/stm32f4xx_hal_rcc_ex.c:3287:3
	orr	r0, r0, #10420224
	str	r0, [r6, #12]
	.loc	5 3290 3                        @ ../Libraries/STM32F4xx_HAL_Driver/Src/stm32f4xx_hal_rcc_ex.c:3290:3
	ldr	r0, [r6, #12]
	movt	r2, #244
	orr	r0, r0, #2097152
	str	r0, [r6, #12]
	.loc	5 3298 3                        @ ../Libraries/STM32F4xx_HAL_Driver/Src/stm32f4xx_hal_rcc_ex.c:3298:3
	ldr	r0, [r6, #116]
	bic	r0, r0, #1
	str	r0, [r6, #116]
	.loc	5 3301 3                        @ ../Libraries/STM32F4xx_HAL_Driver/Src/stm32f4xx_hal_rcc_ex.c:3301:3
	ldr	r0, [r6, #116]
	orr	r0, r0, #16777216
	str	r0, [r6, #116]
.Ltmp118:
	.loc	5 3307 19                       @ ../Libraries/STM32F4xx_HAL_Driver/Src/stm32f4xx_hal_rcc_ex.c:3307:19
	movw	r0, :lower16:uwTickPrio
	movt	r0, :upper16:uwTickPrio
	ldr	r0, [r0]
.Ltmp119:
	.loc	5 3304 19                       @ ../Libraries/STM32F4xx_HAL_Driver/Src/stm32f4xx_hal_rcc_ex.c:3304:19
	str	r2, [r1]
.Ltmp120:
	.loc	5 3307 6                        @ ../Libraries/STM32F4xx_HAL_Driver/Src/stm32f4xx_hal_rcc_ex.c:3307:6
	bl	HAL_InitTick
.Ltmp121:
	.loc	5 3307 31 is_stmt 0             @ ../Libraries/STM32F4xx_HAL_Driver/Src/stm32f4xx_hal_rcc_ex.c:3307:31
	cmp	r0, #0
	it	ne
	movne	r0, #1
.Ltmp122:
	.loc	5 3315 1 is_stmt 1              @ ../Libraries/STM32F4xx_HAL_Driver/Src/stm32f4xx_hal_rcc_ex.c:3315:1
	add	sp, #4
	pop	{r4, r5, r6, r7, pc}
.Ltmp123:
.Lfunc_end5:
	.size	HAL_RCC_DeInit, .Lfunc_end5-HAL_RCC_DeInit
	.cfi_endproc
	.cantunwind
	.fnend
                                        @ -- End function
	.file	6 "E:\\StudyNote\\study_STM32-HAL\\STM32F4_Quick_Start_Guide_HAL\\2.code\\19.RTC-Alarms\\Project" "../Libraries/STM32F4xx_HAL_Driver/Inc/stm32f4xx_hal_rcc_ex.h"
	.section	".note.GNU-stack","",%progbits
	.eabi_attribute	30, 1	@ Tag_ABI_optimization_goals
	.ARM_attribute	16, 1	@ Tag_AV_eba