	.text
	.syntax unified
	.eabi_attribute	67, "2.09"	@ Tag_conformance
	.cpu	cortex-m4
	.eabi_attribute	6, 13	@ Tag_CPU_arch
	.eabi_attribute	7, 77	@ Tag_CPU_arch_profile
	.eabi_attribute	8, 0	@ Tag_ARM_ISA_use
	.eabi_attribute	9, 2	@ Tag_THUMB_ISA_use
	.fpu	fpv4-sp-d16
	.eabi_attribute	27, 1	@ Tag_ABI_HardFP_use
	.eabi_attribute	36, 1	@ Tag_FP_HP_extension
	.eabi_attribute	34, 1	@ Tag_CPU_unaligned_access
	.eabi_attribute	17, 1	@ Tag_ABI_PCS_GOT_use
	.eabi_attribute	20, 2	@ Tag_ABI_FP_denormal
	.eabi_attribute	21, 0	@ Tag_ABI_FP_exceptions
	.eabi_attribute	23, 1	@ Tag_ABI_FP_number_model
	.eabi_attribute	24, 1	@ Tag_ABI_align_needed
	.eabi_attribute	25, 1	@ Tag_ABI_align_preserved
	.eabi_attribute	28, 1	@ Tag_ABI_VFP_args
	.eabi_attribute	38, 1	@ Tag_ABI_FP_16bit_format
	.eabi_attribute	18, 2	@ Tag_ABI_PCS_wchar_t
	.eabi_attribute	26, 1	@ Tag_ABI_enum_size
	.eabi_attribute	14, 0	@ Tag_ABI_PCS_R9_use
	.file	"usmart_str.c"
	.file	1 "E:\\StudyNote\\study_STM32-HAL\\STM32F4_Quick_Start_Guide_HAL\\2.code\\19.RTC-Alarms\\Project" "../Middlewares/USMART/usmart_str.c"
	.file	2 "E:\\StudyNote\\study_STM32-HAL\\STM32F4_Quick_Start_Guide_HAL\\2.code\\19.RTC-Alarms\\Project" "../Middlewares/USMART/usmart_port.h"
	.section	.text.usmart_strcmp,"ax",%progbits
	.hidden	usmart_strcmp                   @ -- Begin function usmart_strcmp
	.globl	usmart_strcmp
	.p2align	2
	.type	usmart_strcmp,%function
	.code	16                              @ @usmart_strcmp
	.thumb_func
usmart_strcmp:
.Lfunc_begin0:
	.loc	1 11 0                          @ ../Middlewares/USMART/usmart_str.c:11:0
	.fnstart
	.cfi_sections .debug_frame
	.cfi_startproc
@ %bb.0:
	@DEBUG_VALUE: usmart_strcmp:str1 <- $r0
	@DEBUG_VALUE: usmart_strcmp:str2 <- $r1
	.save	{r4, lr}
	push	{r4, lr}
	.cfi_def_cfa_offset 8
	.cfi_offset lr, -4
	.cfi_offset r4, -8
.Ltmp0:
	.loc	1 14 13 prologue_end            @ ../Middlewares/USMART/usmart_str.c:14:13
	ldrb	r2, [r0]
	.loc	1 14 22 is_stmt 0               @ ../Middlewares/USMART/usmart_str.c:14:22
	ldrb	r3, [r1]
.Ltmp1:
	.loc	1 14 13                         @ ../Middlewares/USMART/usmart_str.c:14:13
	cmp	r2, r3
	bne	.LBB0_10
.Ltmp2:
@ %bb.1:
	@DEBUG_VALUE: usmart_strcmp:str2 <- $r1
	@DEBUG_VALUE: usmart_strcmp:str1 <- $r0
	.loc	1 0 13                          @ ../Middlewares/USMART/usmart_str.c:0:13
	mov.w	r12, #0
.Ltmp3:
.LBB0_2:                                @ =>This Inner Loop Header: Depth=1
	@DEBUG_VALUE: usmart_strcmp:str1 <- [DW_OP_LLVM_arg 0, DW_OP_consts 4, DW_OP_div, DW_OP_consts 4, DW_OP_mul, DW_OP_LLVM_arg 0, DW_OP_plus, DW_OP_stack_value] undef
	@DEBUG_VALUE: usmart_strcmp:str2 <- [DW_OP_LLVM_arg 0, DW_OP_consts 4, DW_OP_div, DW_OP_consts 4, DW_OP_mul, DW_OP_LLVM_arg 0, DW_OP_plus, DW_OP_stack_value] undef
	.loc	1 16 13 is_stmt 1               @ ../Middlewares/USMART/usmart_str.c:16:13
	cbz	r2, .LBB0_11
.Ltmp4:
@ %bb.3:                                @   in Loop: Header=BB0_2 Depth=1
	@DEBUG_VALUE: usmart_strcmp:str1 <- [DW_OP_LLVM_arg 0, DW_OP_consts 4, DW_OP_div, DW_OP_consts 4, DW_OP_mul, DW_OP_consts 1, DW_OP_LLVM_arg 0, DW_OP_plus, DW_OP_plus, DW_OP_stack_value] undef
	.loc	1 19 13                         @ ../Middlewares/USMART/usmart_str.c:19:13
	add.w	r2, r0, r12
.Ltmp5:
	@DEBUG_VALUE: usmart_strcmp:str2 <- [DW_OP_LLVM_arg 0, DW_OP_consts 4, DW_OP_div, DW_OP_consts 4, DW_OP_mul, DW_OP_consts 1, DW_OP_LLVM_arg 0, DW_OP_plus, DW_OP_plus, DW_OP_stack_value] undef
	.loc	1 14 13                         @ ../Middlewares/USMART/usmart_str.c:14:13
	add.w	lr, r1, r12
	ldrb	r3, [r2, #1]
	.loc	1 14 22 is_stmt 0               @ ../Middlewares/USMART/usmart_str.c:14:22
	ldrb.w	r4, [lr, #1]
.Ltmp6:
	.loc	1 14 13                         @ ../Middlewares/USMART/usmart_str.c:14:13
	cmp	r3, r4
	bne	.LBB0_10
.Ltmp7:
@ %bb.4:                                @   in Loop: Header=BB0_2 Depth=1
	@DEBUG_VALUE: usmart_strcmp:str1 <- [DW_OP_LLVM_arg 0, DW_OP_consts 4, DW_OP_div, DW_OP_consts 4, DW_OP_mul, DW_OP_consts 1, DW_OP_LLVM_arg 0, DW_OP_plus, DW_OP_plus, DW_OP_stack_value] undef
	@DEBUG_VALUE: usmart_strcmp:str2 <- [DW_OP_LLVM_arg 0, DW_OP_consts 4, DW_OP_div, DW_OP_consts 4, DW_OP_mul, DW_OP_consts 1, DW_OP_LLVM_arg 0, DW_OP_plus, DW_OP_plus, DW_OP_stack_value] undef
	.loc	1 16 13 is_stmt 1               @ ../Middlewares/USMART/usmart_str.c:16:13
	cbz	r3, .LBB0_11
.Ltmp8:
@ %bb.5:                                @   in Loop: Header=BB0_2 Depth=1
	@DEBUG_VALUE: usmart_strcmp:str1 <- [DW_OP_LLVM_arg 0, DW_OP_consts 4, DW_OP_div, DW_OP_consts 4, DW_OP_mul, DW_OP_consts 2, DW_OP_LLVM_arg 0, DW_OP_plus, DW_OP_plus, DW_OP_stack_value] undef
	@DEBUG_VALUE: usmart_strcmp:str2 <- [DW_OP_LLVM_arg 0, DW_OP_consts 4, DW_OP_div, DW_OP_consts 4, DW_OP_mul, DW_OP_consts 2, DW_OP_LLVM_arg 0, DW_OP_plus, DW_OP_plus, DW_OP_stack_value] undef
	.loc	1 14 13                         @ ../Middlewares/USMART/usmart_str.c:14:13
	ldrb	r3, [r2, #2]
	.loc	1 14 22 is_stmt 0               @ ../Middlewares/USMART/usmart_str.c:14:22
	ldrb.w	r4, [lr, #2]
.Ltmp9:
	.loc	1 14 13                         @ ../Middlewares/USMART/usmart_str.c:14:13
	cmp	r3, r4
	bne	.LBB0_10
.Ltmp10:
@ %bb.6:                                @   in Loop: Header=BB0_2 Depth=1
	@DEBUG_VALUE: usmart_strcmp:str1 <- [DW_OP_LLVM_arg 0, DW_OP_consts 4, DW_OP_div, DW_OP_consts 4, DW_OP_mul, DW_OP_consts 2, DW_OP_LLVM_arg 0, DW_OP_plus, DW_OP_plus, DW_OP_stack_value] undef
	@DEBUG_VALUE: usmart_strcmp:str2 <- [DW_OP_LLVM_arg 0, DW_OP_consts 4, DW_OP_div, DW_OP_consts 4, DW_OP_mul, DW_OP_consts 2, DW_OP_LLVM_arg 0, DW_OP_plus, DW_OP_plus, DW_OP_stack_value] undef
	.loc	1 16 13 is_stmt 1               @ ../Middlewares/USMART/usmart_str.c:16:13
	cbz	r3, .LBB0_11
.Ltmp11:
@ %bb.7:                                @   in Loop: Header=BB0_2 Depth=1
	@DEBUG_VALUE: usmart_strcmp:str1 <- [DW_OP_LLVM_arg 0, DW_OP_consts 4, DW_OP_div, DW_OP_consts 4, DW_OP_mul, DW_OP_consts 3, DW_OP_LLVM_arg 0, DW_OP_plus, DW_OP_plus, DW_OP_stack_value] undef
	@DEBUG_VALUE: usmart_strcmp:str2 <- [DW_OP_LLVM_arg 0, DW_OP_consts 4, DW_OP_div, DW_OP_consts 4, DW_OP_mul, DW_OP_consts 3, DW_OP_LLVM_arg 0, DW_OP_plus, DW_OP_plus, DW_OP_stack_value] undef
	.loc	1 14 13                         @ ../Middlewares/USMART/usmart_str.c:14:13
	ldrb	r3, [r2, #3]
	.loc	1 14 22 is_stmt 0               @ ../Middlewares/USMART/usmart_str.c:14:22
	ldrb.w	r4, [lr, #3]
.Ltmp12:
	.loc	1 14 13                         @ ../Middlewares/USMART/usmart_str.c:14:13
	cmp	r3, r4
	bne	.LBB0_10
.Ltmp13:
@ %bb.8:                                @   in Loop: Header=BB0_2 Depth=1
	@DEBUG_VALUE: usmart_strcmp:str1 <- [DW_OP_LLVM_arg 0, DW_OP_consts 4, DW_OP_div, DW_OP_consts 4, DW_OP_mul, DW_OP_consts 3, DW_OP_LLVM_arg 0, DW_OP_plus, DW_OP_plus, DW_OP_stack_value] undef
	@DEBUG_VALUE: usmart_strcmp:str2 <- [DW_OP_LLVM_arg 0, DW_OP_consts 4, DW_OP_div, DW_OP_consts 4, DW_OP_mul, DW_OP_consts 3, DW_OP_LLVM_arg 0, DW_OP_plus, DW_OP_plus, DW_OP_stack_value] undef
	.loc	1 16 13 is_stmt 1               @ ../Middlewares/USMART/usmart_str.c:16:13
	cbz	r3, .LBB0_11
.Ltmp14:
@ %bb.9:                                @   in Loop: Header=BB0_2 Depth=1
	@DEBUG_VALUE: usmart_strcmp:str1 <- [DW_OP_LLVM_arg 0, DW_OP_consts 4, DW_OP_div, DW_OP_consts 4, DW_OP_mul, DW_OP_consts 4, DW_OP_LLVM_arg 0, DW_OP_plus, DW_OP_plus, DW_OP_stack_value] undef
	@DEBUG_VALUE: usmart_strcmp:str2 <- [DW_OP_LLVM_arg 0, DW_OP_consts 4, DW_OP_div, DW_OP_consts 4, DW_OP_mul, DW_OP_consts 4, DW_OP_LLVM_arg 0, DW_OP_plus, DW_OP_plus, DW_OP_stack_value] undef
	.loc	1 14 13                         @ ../Middlewares/USMART/usmart_str.c:14:13
	ldrb	r2, [r2, #4]
	.loc	1 14 22 is_stmt 0               @ ../Middlewares/USMART/usmart_str.c:14:22
	ldrb.w	r3, [lr, #4]
.Ltmp15:
	.loc	1 14 13                         @ ../Middlewares/USMART/usmart_str.c:14:13
	add.w	r12, r12, #4
	cmp	r2, r3
	beq	.LBB0_2
.Ltmp16:
.LBB0_10:
	.loc	1 0 13                          @ ../Middlewares/USMART/usmart_str.c:0:13
	movs	r0, #1
	.loc	1 23 1 is_stmt 1                @ ../Middlewares/USMART/usmart_str.c:23:1
	pop	{r4, pc}
.LBB0_11:
	.loc	1 0 1 is_stmt 0                 @ ../Middlewares/USMART/usmart_str.c:0:1
	movs	r0, #0
	.loc	1 23 1                          @ ../Middlewares/USMART/usmart_str.c:23:1
	pop	{r4, pc}
.Ltmp17:
.Lfunc_end0:
	.size	usmart_strcmp, .Lfunc_end0-usmart_strcmp
	.cfi_endproc
	.cantunwind
	.fnend
                                        @ -- End function
	.section	.text.usmart_strcopy,"ax",%progbits
	.hidden	usmart_strcopy                  @ -- Begin function usmart_strcopy
	.globl	usmart_strcopy
	.p2align	2
	.type	usmart_strcopy,%function
	.code	16                              @ @usmart_strcopy
	.thumb_func
usmart_strcopy:
.Lfunc_begin1:
	.loc	1 32 0 is_stmt 1                @ ../Middlewares/USMART/usmart_str.c:32:0
	.fnstart
	.cfi_startproc
@ %bb.0:
	@DEBUG_VALUE: usmart_strcopy:src <- $r0
	@DEBUG_VALUE: usmart_strcopy:dst <- $r1
	.save	{r4, lr}
	push	{r4, lr}
	.cfi_def_cfa_offset 8
	.cfi_offset lr, -4
	.cfi_offset r4, -8
.Ltmp18:
	.loc	1 35 16 prologue_end            @ ../Middlewares/USMART/usmart_str.c:35:16
	ldrb	r2, [r0]
	.loc	1 35 14 is_stmt 0               @ ../Middlewares/USMART/usmart_str.c:35:14
	strb	r2, [r1]
.Ltmp19:
	.loc	1 37 13 is_stmt 1               @ ../Middlewares/USMART/usmart_str.c:37:13
	ldrb	r2, [r0]
.Ltmp20:
	.loc	1 37 13 is_stmt 0               @ ../Middlewares/USMART/usmart_str.c:37:13
	cbz	r2, .LBB1_6
.Ltmp21:
@ %bb.1:
	@DEBUG_VALUE: usmart_strcopy:dst <- $r1
	@DEBUG_VALUE: usmart_strcopy:src <- $r0
	.loc	1 0 13                          @ ../Middlewares/USMART/usmart_str.c:0:13
	mov.w	r12, #0
	b	.LBB1_4
.Ltmp22:
	.p2align	2
.LBB1_2:                                @   in Loop: Header=BB1_4 Depth=1
	@DEBUG_VALUE: usmart_strcopy:src <- [DW_OP_LLVM_arg 0, DW_OP_consts 4, DW_OP_div, DW_OP_consts 4, DW_OP_mul, DW_OP_consts 3, DW_OP_LLVM_arg 0, DW_OP_plus, DW_OP_plus, DW_OP_stack_value] undef
	@DEBUG_VALUE: usmart_strcopy:dst <- [DW_OP_LLVM_arg 0, DW_OP_consts 4, DW_OP_div, DW_OP_consts 4, DW_OP_mul, DW_OP_consts 3, DW_OP_LLVM_arg 0, DW_OP_plus, DW_OP_plus, DW_OP_stack_value] undef
	.loc	1 35 16 is_stmt 1               @ ../Middlewares/USMART/usmart_str.c:35:16
	ldrb	r2, [r3, #3]
	.loc	1 35 14 is_stmt 0               @ ../Middlewares/USMART/usmart_str.c:35:14
	strb	r2, [r4, #3]
.Ltmp23:
	.loc	1 37 13 is_stmt 1               @ ../Middlewares/USMART/usmart_str.c:37:13
	ldrb	r2, [r3, #3]
.Ltmp24:
	.loc	1 37 13 is_stmt 0               @ ../Middlewares/USMART/usmart_str.c:37:13
	cmp	r2, #0
.Ltmp25:
	.loc	1 42 1 is_stmt 1                @ ../Middlewares/USMART/usmart_str.c:42:1
	it	eq
	popeq	{r4, pc}
.Ltmp26:
.LBB1_3:                                @   in Loop: Header=BB1_4 Depth=1
	@DEBUG_VALUE: usmart_strcopy:src <- [DW_OP_LLVM_arg 0, DW_OP_consts 4, DW_OP_div, DW_OP_consts 4, DW_OP_mul, DW_OP_consts 4, DW_OP_LLVM_arg 0, DW_OP_plus, DW_OP_plus, DW_OP_stack_value] undef
	@DEBUG_VALUE: usmart_strcopy:dst <- [DW_OP_LLVM_arg 0, DW_OP_consts 4, DW_OP_div, DW_OP_consts 4, DW_OP_mul, DW_OP_consts 4, DW_OP_LLVM_arg 0, DW_OP_plus, DW_OP_plus, DW_OP_stack_value] undef
	.loc	1 35 16                         @ ../Middlewares/USMART/usmart_str.c:35:16
	ldrb	r2, [r3, #4]
	.loc	1 37 13                         @ ../Middlewares/USMART/usmart_str.c:37:13
	add.w	r12, r12, #4
	.loc	1 35 14                         @ ../Middlewares/USMART/usmart_str.c:35:14
	strb	r2, [r4, #4]
.Ltmp27:
	.loc	1 37 13                         @ ../Middlewares/USMART/usmart_str.c:37:13
	ldrb	r2, [r3, #4]
.Ltmp28:
	.loc	1 37 13 is_stmt 0               @ ../Middlewares/USMART/usmart_str.c:37:13
	cbz	r2, .LBB1_6
.Ltmp29:
.LBB1_4:                                @ =>This Inner Loop Header: Depth=1
	@DEBUG_VALUE: usmart_strcopy:src <- [DW_OP_LLVM_arg 0, DW_OP_consts 4, DW_OP_div, DW_OP_consts 4, DW_OP_mul, DW_OP_consts 1, DW_OP_LLVM_arg 0, DW_OP_plus, DW_OP_plus, DW_OP_stack_value] undef
	@DEBUG_VALUE: usmart_strcopy:dst <- [DW_OP_LLVM_arg 0, DW_OP_consts 4, DW_OP_div, DW_OP_consts 4, DW_OP_mul, DW_OP_LLVM_arg 0, DW_OP_plus, DW_OP_stack_value] undef
	.loc	1 40 12 is_stmt 1               @ ../Middlewares/USMART/usmart_str.c:40:12
	add.w	r3, r0, r12
.Ltmp30:
	@DEBUG_VALUE: usmart_strcopy:dst <- [DW_OP_LLVM_arg 0, DW_OP_consts 4, DW_OP_div, DW_OP_consts 4, DW_OP_mul, DW_OP_consts 1, DW_OP_LLVM_arg 0, DW_OP_plus, DW_OP_plus, DW_OP_stack_value] undef
	.loc	1 35 16                         @ ../Middlewares/USMART/usmart_str.c:35:16
	ldrb.w	lr, [r3, #1]
	add.w	r4, r1, r12
	.loc	1 35 14 is_stmt 0               @ ../Middlewares/USMART/usmart_str.c:35:14
	strb.w	lr, [r4, #1]
.Ltmp31:
	.loc	1 37 13 is_stmt 1               @ ../Middlewares/USMART/usmart_str.c:37:13
	ldrb	r2, [r3, #1]
.Ltmp32:
	.loc	1 37 13 is_stmt 0               @ ../Middlewares/USMART/usmart_str.c:37:13
	cbz	r2, .LBB1_6
.Ltmp33:
@ %bb.5:                                @   in Loop: Header=BB1_4 Depth=1
	@DEBUG_VALUE: usmart_strcopy:src <- [DW_OP_LLVM_arg 0, DW_OP_consts 4, DW_OP_div, DW_OP_consts 4, DW_OP_mul, DW_OP_consts 2, DW_OP_LLVM_arg 0, DW_OP_plus, DW_OP_plus, DW_OP_stack_value] undef
	@DEBUG_VALUE: usmart_strcopy:dst <- [DW_OP_LLVM_arg 0, DW_OP_consts 4, DW_OP_div, DW_OP_consts 4, DW_OP_mul, DW_OP_consts 2, DW_OP_LLVM_arg 0, DW_OP_plus, DW_OP_plus, DW_OP_stack_value] undef
	.loc	1 35 16 is_stmt 1               @ ../Middlewares/USMART/usmart_str.c:35:16
	ldrb	r2, [r3, #2]
	.loc	1 35 14 is_stmt 0               @ ../Middlewares/USMART/usmart_str.c:35:14
	strb	r2, [r4, #2]
.Ltmp34:
	.loc	1 37 13 is_stmt 1               @ ../Middlewares/USMART/usmart_str.c:37:13
	ldrb	r2, [r3, #2]
.Ltmp35:
	.loc	1 37 13 is_stmt 0               @ ../Middlewares/USMART/usmart_str.c:37:13
	cmp	r2, #0
	bne	.LBB1_2
.Ltmp36:
.LBB1_6:
	.loc	1 42 1 is_stmt 1                @ ../Middlewares/USMART/usmart_str.c:42:1
	pop	{r4, pc}
.Ltmp37:
.Lfunc_end1:
	.size	usmart_strcopy, .Lfunc_end1-usmart_strcopy
	.cfi_endproc
	.cantunwind
	.fnend
                                        @ -- End function
	.section	.text.usmart_strlen,"ax",%progbits
	.hidden	usmart_strlen                   @ -- Begin function usmart_strlen
	.globl	usmart_strlen
	.p2align	2
	.type	usmart_strlen,%function
	.code	16                              @ @usmart_strlen
	.thumb_func
usmart_strlen:
.Lfunc_begin2:
	.loc	1 50 0                          @ ../Middlewares/USMART/usmart_str.c:50:0
	.fnstart
	.cfi_startproc
@ %bb.0:
	@DEBUG_VALUE: usmart_strlen:str <- $r0
	@DEBUG_VALUE: usmart_strlen:len <- 0
	.loc	1 55 13 prologue_end            @ ../Middlewares/USMART/usmart_str.c:55:13
	ldrb	r1, [r0]
.Ltmp38:
	.loc	1 55 13 is_stmt 0               @ ../Middlewares/USMART/usmart_str.c:55:13
	cbz	r1, .LBB2_7
.Ltmp39:
@ %bb.1:
	@DEBUG_VALUE: usmart_strlen:len <- 0
	@DEBUG_VALUE: usmart_strlen:str <- $r0
	.loc	1 53 5 is_stmt 1                @ ../Middlewares/USMART/usmart_str.c:53:5
	adds	r1, r0, #2
	movs	r0, #0
.Ltmp40:
	@DEBUG_VALUE: usmart_strlen:str <- [DW_OP_LLVM_entry_value 1] $r0
	.p2align	2
.LBB2_2:                                @ =>This Inner Loop Header: Depth=1
	@DEBUG_VALUE: usmart_strlen:str <- [DW_OP_constu 1, DW_OP_minus, DW_OP_stack_value] $r1
	@DEBUG_VALUE: usmart_strlen:len <- [DW_OP_constu 1, DW_OP_or, DW_OP_stack_value] $r0
	.loc	1 55 13                         @ ../Middlewares/USMART/usmart_str.c:55:13
	ldrb	r2, [r1, #-1]
.Ltmp41:
	.loc	1 55 13 is_stmt 0               @ ../Middlewares/USMART/usmart_str.c:55:13
	cbz	r2, .LBB2_8
.Ltmp42:
@ %bb.3:                                @   in Loop: Header=BB2_2 Depth=1
	@DEBUG_VALUE: usmart_strlen:len <- [DW_OP_constu 1, DW_OP_or, DW_OP_stack_value] $r0
	@DEBUG_VALUE: usmart_strlen:str <- [DW_OP_constu 1, DW_OP_minus, DW_OP_stack_value] $r1
	@DEBUG_VALUE: usmart_strlen:str <- $r1
	@DEBUG_VALUE: usmart_strlen:len <- [DW_OP_constu 2, DW_OP_or, DW_OP_stack_value] $r0
	.loc	1 55 13                         @ ../Middlewares/USMART/usmart_str.c:55:13
	ldrb	r2, [r1]
.Ltmp43:
	.loc	1 55 13                         @ ../Middlewares/USMART/usmart_str.c:55:13
	cbz	r2, .LBB2_9
.Ltmp44:
@ %bb.4:                                @   in Loop: Header=BB2_2 Depth=1
	@DEBUG_VALUE: usmart_strlen:len <- [DW_OP_constu 2, DW_OP_or, DW_OP_stack_value] $r0
	@DEBUG_VALUE: usmart_strlen:str <- $r1
	@DEBUG_VALUE: usmart_strlen:str <- [DW_OP_plus_uconst 1, DW_OP_stack_value] $r1
	@DEBUG_VALUE: usmart_strlen:len <- [DW_OP_constu 3, DW_OP_or, DW_OP_stack_value] $r0
	.loc	1 55 13                         @ ../Middlewares/USMART/usmart_str.c:55:13
	ldrb	r2, [r1, #1]
.Ltmp45:
	.loc	1 55 13                         @ ../Middlewares/USMART/usmart_str.c:55:13
	cbz	r2, .LBB2_10
.Ltmp46:
@ %bb.5:                                @   in Loop: Header=BB2_2 Depth=1
	@DEBUG_VALUE: usmart_strlen:len <- [DW_OP_constu 3, DW_OP_or, DW_OP_stack_value] $r0
	@DEBUG_VALUE: usmart_strlen:str <- [DW_OP_plus_uconst 1, DW_OP_stack_value] $r1
	@DEBUG_VALUE: usmart_strlen:str <- [DW_OP_plus_uconst 1, DW_OP_stack_value] $r1
	@DEBUG_VALUE: usmart_strlen:len <- [DW_OP_constu 3, DW_OP_or, DW_OP_stack_value] $r0
	.loc	1 55 13                         @ ../Middlewares/USMART/usmart_str.c:55:13
	ldrb	r2, [r1, #2]
.Ltmp47:
	.loc	1 57 12 is_stmt 1               @ ../Middlewares/USMART/usmart_str.c:57:12
	adds	r0, #4
.Ltmp48:
	@DEBUG_VALUE: usmart_strlen:len <- $r0
	@DEBUG_VALUE: usmart_strlen:str <- [DW_OP_plus_uconst 2, DW_OP_stack_value] $r1
	.loc	1 55 13                         @ ../Middlewares/USMART/usmart_str.c:55:13
	cmp	r2, #0
	add.w	r1, r1, #4
.Ltmp49:
	bne	.LBB2_2
.Ltmp50:
@ %bb.6:
	@DEBUG_VALUE: usmart_strlen:len <- $r0
	.loc	1 61 5                          @ ../Middlewares/USMART/usmart_str.c:61:5
	uxtb	r0, r0
.Ltmp51:
	bx	lr
.LBB2_7:
.Ltmp52:
	@DEBUG_VALUE: usmart_strlen:len <- 0
	@DEBUG_VALUE: usmart_strlen:str <- $r0
	.loc	1 0 5 is_stmt 0                 @ ../Middlewares/USMART/usmart_str.c:0:5
	movs	r0, #0
.Ltmp53:
	@DEBUG_VALUE: usmart_strlen:str <- [DW_OP_LLVM_entry_value 1] $r0
	.loc	1 61 5                          @ ../Middlewares/USMART/usmart_str.c:61:5
	uxtb	r0, r0
	bx	lr
.Ltmp54:
.LBB2_8:
	@DEBUG_VALUE: usmart_strlen:len <- [DW_OP_constu 1, DW_OP_or, DW_OP_stack_value] $r0
	@DEBUG_VALUE: usmart_strlen:str <- [DW_OP_constu 1, DW_OP_minus, DW_OP_stack_value] $r1
	.loc	1 57 12 is_stmt 1               @ ../Middlewares/USMART/usmart_str.c:57:12
	orr	r0, r0, #1
.Ltmp55:
	.loc	1 61 5                          @ ../Middlewares/USMART/usmart_str.c:61:5
	uxtb	r0, r0
	bx	lr
.Ltmp56:
.LBB2_9:
	@DEBUG_VALUE: usmart_strlen:len <- [DW_OP_constu 2, DW_OP_or, DW_OP_stack_value] $r0
	@DEBUG_VALUE: usmart_strlen:str <- $r1
	.loc	1 57 12                         @ ../Middlewares/USMART/usmart_str.c:57:12
	orr	r0, r0, #2
.Ltmp57:
	.loc	1 61 5                          @ ../Middlewares/USMART/usmart_str.c:61:5
	uxtb	r0, r0
	bx	lr
.Ltmp58:
.LBB2_10:
	@DEBUG_VALUE: usmart_strlen:len <- [DW_OP_constu 3, DW_OP_or, DW_OP_stack_value] $r0
	@DEBUG_VALUE: usmart_strlen:str <- [DW_OP_plus_uconst 1, DW_OP_stack_value] $r1
	.loc	1 57 12                         @ ../Middlewares/USMART/usmart_str.c:57:12
	orr	r0, r0, #3
.Ltmp59:
	.loc	1 61 5                          @ ../Middlewares/USMART/usmart_str.c:61:5
	uxtb	r0, r0
	bx	lr
.Ltmp60:
.Lfunc_end2:
	.size	usmart_strlen, .Lfunc_end2-usmart_strlen
	.cfi_endproc
	.cantunwind
	.fnend
                                        @ -- End function
	.section	.text.usmart_pow,"ax",%progbits
	.hidden	usmart_pow                      @ -- Begin function usmart_pow
	.globl	usmart_pow
	.p2align	2
	.type	usmart_pow,%function
	.code	16                              @ @usmart_pow
	.thumb_func
usmart_pow:
.Lfunc_begin3:
	.loc	1 71 0                          @ ../Middlewares/USMART/usmart_str.c:71:0
	.fnstart
	.cfi_startproc
@ %bb.0:
	@DEBUG_VALUE: usmart_pow:m <- $r0
	@DEBUG_VALUE: usmart_pow:n <- [DW_OP_constu 1, DW_OP_minus, DW_OP_stack_value] $r1
	.loc	1 74 5 prologue_end             @ ../Middlewares/USMART/usmart_str.c:74:5
	cmp	r1, #0
.Ltmp61:
	@DEBUG_VALUE: usmart_pow:result <- 1
	.loc	1 0 5 is_stmt 0                 @ ../Middlewares/USMART/usmart_str.c:0:5
	itt	eq
	moveq	r0, #1
.Ltmp62:
	@DEBUG_VALUE: usmart_pow:m <- [DW_OP_LLVM_entry_value 1] $r0
	.loc	1 76 5 is_stmt 1                @ ../Middlewares/USMART/usmart_str.c:76:5
	bxeq	lr
.Ltmp63:
.LBB3_1:
	@DEBUG_VALUE: usmart_pow:m <- [DW_OP_LLVM_entry_value 1] $r0
	@DEBUG_VALUE: usmart_pow:result <- 1
	@DEBUG_VALUE: usmart_pow:n <- [DW_OP_constu 1, DW_OP_minus, DW_OP_stack_value] $r1
	@DEBUG_VALUE: usmart_pow:m <- $r0
	.save	{r7, lr}
	push	{r7, lr}
	.cfi_def_cfa_offset 8
	.cfi_offset lr, -4
	.cfi_offset r7, -8
	.loc	1 74 5                          @ ../Middlewares/USMART/usmart_str.c:74:5
	subs	r2, r1, #1
	uxtb	r2, r2
	cmp	r2, #3
	and	r12, r1, #3
	bhs	.LBB3_3
.Ltmp64:
@ %bb.2:
	@DEBUG_VALUE: usmart_pow:result <- 1
	@DEBUG_VALUE: usmart_pow:n <- [DW_OP_constu 1, DW_OP_minus, DW_OP_stack_value] $r1
	@DEBUG_VALUE: usmart_pow:m <- $r0
	.loc	1 0 5 is_stmt 0                 @ ../Middlewares/USMART/usmart_str.c:0:5
	movs	r1, #1
.Ltmp65:
	b	.LBB3_5
.Ltmp66:
.LBB3_3:
	@DEBUG_VALUE: usmart_pow:result <- 1
	@DEBUG_VALUE: usmart_pow:n <- [DW_OP_constu 1, DW_OP_minus, DW_OP_stack_value] $r1
	@DEBUG_VALUE: usmart_pow:m <- $r0
	.loc	1 74 5                          @ ../Middlewares/USMART/usmart_str.c:74:5
	and	lr, r1, #252
	movs	r2, #0
	movs	r1, #1
.Ltmp67:
	.p2align	2
.LBB3_4:                                @ =>This Inner Loop Header: Depth=1
	@DEBUG_VALUE: usmart_pow:m <- $r0
	@DEBUG_VALUE: usmart_pow:n <- [DW_OP_constu 1, DW_OP_minus, DW_OP_stack_value] undef
	@DEBUG_VALUE: usmart_pow:result <- $r1
	.loc	1 74 23                         @ ../Middlewares/USMART/usmart_str.c:74:23
	muls	r1, r0, r1
.Ltmp68:
	@DEBUG_VALUE: usmart_pow:result <- $r1
	@DEBUG_VALUE: usmart_pow:n <- [DW_OP_constu 2, DW_OP_minus, DW_OP_stack_value] undef
	muls	r1, r0, r1
.Ltmp69:
	@DEBUG_VALUE: usmart_pow:result <- $r1
	@DEBUG_VALUE: usmart_pow:n <- [DW_OP_constu 3, DW_OP_minus, DW_OP_stack_value] undef
	.loc	1 74 5                          @ ../Middlewares/USMART/usmart_str.c:74:5
	adds	r2, #4
	.loc	1 74 23                         @ ../Middlewares/USMART/usmart_str.c:74:23
	muls	r1, r0, r1
.Ltmp70:
	@DEBUG_VALUE: usmart_pow:result <- $r1
	@DEBUG_VALUE: usmart_pow:n <- [DW_OP_constu 4, DW_OP_minus, DW_OP_stack_value] undef
	.loc	1 74 5                          @ ../Middlewares/USMART/usmart_str.c:74:5
	uxtb	r3, r2
	cmp	r3, lr
	.loc	1 74 23                         @ ../Middlewares/USMART/usmart_str.c:74:23
	mul	r1, r0, r1
.Ltmp71:
	@DEBUG_VALUE: usmart_pow:result <- $r1
	@DEBUG_VALUE: usmart_pow:n <- [DW_OP_constu 4, DW_OP_minus, DW_OP_constu 1, DW_OP_minus, DW_OP_stack_value] undef
	.loc	1 74 5                          @ ../Middlewares/USMART/usmart_str.c:74:5
	bne	.LBB3_4
.Ltmp72:
.LBB3_5:
	@DEBUG_VALUE: usmart_pow:m <- $r0
	cmp.w	r12, #0
	pop.w	{r7, lr}
	beq	.LBB3_8
.Ltmp73:
@ %bb.6:
	@DEBUG_VALUE: usmart_pow:m <- $r0
	@DEBUG_VALUE: usmart_pow:n <- [DW_OP_constu 1, DW_OP_minus, DW_OP_stack_value] undef
	@DEBUG_VALUE: usmart_pow:result <- $r1
	cmp.w	r12, #1
	.loc	1 74 23                         @ ../Middlewares/USMART/usmart_str.c:74:23
	mul	r1, r0, r1
.Ltmp74:
	@DEBUG_VALUE: usmart_pow:result <- $r1
	@DEBUG_VALUE: usmart_pow:n <- [DW_OP_constu 1, DW_OP_minus, DW_OP_constu 1, DW_OP_minus, DW_OP_stack_value] undef
	.loc	1 74 5                          @ ../Middlewares/USMART/usmart_str.c:74:5
	beq	.LBB3_8
.Ltmp75:
@ %bb.7:
	@DEBUG_VALUE: usmart_pow:result <- $r1
	@DEBUG_VALUE: usmart_pow:m <- $r0
	@DEBUG_VALUE: usmart_pow:n <- [DW_OP_constu 1, DW_OP_minus, DW_OP_constu 1, DW_OP_minus, DW_OP_stack_value] undef
	@DEBUG_VALUE: usmart_pow:result <- undef
	.loc	1 74 23                         @ ../Middlewares/USMART/usmart_str.c:74:23
	muls	r1, r0, r1
.Ltmp76:
	@DEBUG_VALUE: usmart_pow:result <- $r1
	@DEBUG_VALUE: usmart_pow:n <- [DW_OP_constu 1, DW_OP_minus, DW_OP_constu 1, DW_OP_minus, DW_OP_constu 1, DW_OP_minus, DW_OP_stack_value] undef
	.loc	1 74 5                          @ ../Middlewares/USMART/usmart_str.c:74:5
	cmp.w	r12, #2
	it	ne
	mulne	r1, r0, r1
.Ltmp77:
.LBB3_8:
	@DEBUG_VALUE: usmart_pow:m <- $r0
	.loc	1 76 5 is_stmt 1                @ ../Middlewares/USMART/usmart_str.c:76:5
	mov	r0, r1
.Ltmp78:
	bx	lr
.Ltmp79:
.Lfunc_end3:
	.size	usmart_pow, .Lfunc_end3-usmart_pow
	.cfi_endproc
	.cantunwind
	.fnend
                                        @ -- End function
	.section	.text.usmart_str2num,"ax",%progbits
	.hidden	usmart_str2num                  @ -- Begin function usmart_str2num
	.globl	usmart_str2num
	.p2align	2
	.type	usmart_str2num,%function
	.code	16                              @ @usmart_str2num
	.thumb_func
usmart_str2num:
.Lfunc_begin4:
	.loc	1 94 0                          @ ../Middlewares/USMART/usmart_str.c:94:0
	.fnstart
	.cfi_startproc
@ %bb.0:
	@DEBUG_VALUE: usmart_str2num:str <- $r0
	@DEBUG_VALUE: usmart_str2num:res <- $r1
	.save	{r4, r5, r6, r7, r8, r9, r10, r11, lr}
	push.w	{r4, r5, r6, r7, r8, r9, r10, r11, lr}
	.cfi_def_cfa_offset 36
	.cfi_offset lr, -4
	.cfi_offset r11, -8
	.cfi_offset r10, -12
	.cfi_offset r9, -16
	.cfi_offset r8, -20
	.cfi_offset r7, -24
	.cfi_offset r6, -28
	.cfi_offset r5, -32
	.cfi_offset r4, -36
.Ltmp80:
	@DEBUG_VALUE: usmart_str2num:p <- $r0
	@DEBUG_VALUE: usmart_str2num:bnum <- 0
	@DEBUG_VALUE: usmart_str2num:hexdec <- 10
	@DEBUG_VALUE: usmart_str2num:flag <- 0
	mov.w	lr, #0
	movs	r2, #10
	mov	r3, r0
	mov.w	r12, #0
.Ltmp81:
	.loc	1 102 10 prologue_end           @ ../Middlewares/USMART/usmart_str.c:102:10
	str.w	lr, [r1]
	b	.LBB4_3
.Ltmp82:
.LBB4_1:                                @   in Loop: Header=BB4_3 Depth=1
	@DEBUG_VALUE: usmart_str2num:flag <- $r12
	@DEBUG_VALUE: usmart_str2num:hexdec <- $r2
	@DEBUG_VALUE: usmart_str2num:bnum <- $lr
	@DEBUG_VALUE: usmart_str2num:p <- $r3
	@DEBUG_VALUE: usmart_str2num:res <- $r1
	@DEBUG_VALUE: usmart_str2num:str <- $r0
	.loc	1 109 17                        @ ../Middlewares/USMART/usmart_str.c:109:17
	cmp	r5, #64
	it	hi
	movhi	r2, #16
.Ltmp83:
.LBB4_2:                                @   in Loop: Header=BB4_3 Depth=1
	@DEBUG_VALUE: usmart_str2num:flag <- $r12
	@DEBUG_VALUE: usmart_str2num:bnum <- $lr
	@DEBUG_VALUE: usmart_str2num:p <- $r3
	@DEBUG_VALUE: usmart_str2num:res <- $r1
	@DEBUG_VALUE: usmart_str2num:str <- $r0
	@DEBUG_VALUE: usmart_str2num:flag <- 2
	.loc	1 114 21                        @ ../Middlewares/USMART/usmart_str.c:114:21
	adds	r0, #1
.Ltmp84:
	@DEBUG_VALUE: usmart_str2num:str <- $r0
	.loc	1 0 21 is_stmt 0                @ ../Middlewares/USMART/usmart_str.c:0:21
	mov.w	r12, #2
.Ltmp85:
	@DEBUG_VALUE: usmart_str2num:str <- $r0
	@DEBUG_VALUE: usmart_str2num:bnum <- $lr
	@DEBUG_VALUE: usmart_str2num:flag <- $r12
	.loc	1 135 10 is_stmt 1              @ ../Middlewares/USMART/usmart_str.c:135:10
	adds	r3, #1
.Ltmp86:
	@DEBUG_VALUE: usmart_str2num:p <- $r3
.LBB4_3:                                @ =>This Inner Loop Header: Depth=1
	@DEBUG_VALUE: usmart_str2num:res <- $r1
	@DEBUG_VALUE: usmart_str2num:str <- $r0
	@DEBUG_VALUE: usmart_str2num:str <- $r0
	@DEBUG_VALUE: usmart_str2num:p <- $r3
	@DEBUG_VALUE: usmart_str2num:bnum <- $lr
	@DEBUG_VALUE: usmart_str2num:hexdec <- $r2
	@DEBUG_VALUE: usmart_str2num:flag <- $r12
	.loc	1 107 14                        @ ../Middlewares/USMART/usmart_str.c:107:14
	ldrb	r5, [r3]
	.loc	1 107 24 is_stmt 0              @ ../Middlewares/USMART/usmart_str.c:107:24
	sub.w	r4, r5, #48
	cmp	r4, #10
	blo	.LBB4_10
.Ltmp87:
@ %bb.4:                                @   in Loop: Header=BB4_3 Depth=1
	@DEBUG_VALUE: usmart_str2num:flag <- $r12
	@DEBUG_VALUE: usmart_str2num:hexdec <- $r2
	@DEBUG_VALUE: usmart_str2num:bnum <- $lr
	@DEBUG_VALUE: usmart_str2num:p <- $r3
	@DEBUG_VALUE: usmart_str2num:res <- $r1
	@DEBUG_VALUE: usmart_str2num:str <- $r0
	.loc	1 107 43                        @ ../Middlewares/USMART/usmart_str.c:107:43
	ldrb	r4, [r0]
	.loc	1 107 55                        @ ../Middlewares/USMART/usmart_str.c:107:55
	cmp	r4, #45
	bne	.LBB4_6
.Ltmp88:
@ %bb.5:                                @   in Loop: Header=BB4_3 Depth=1
	@DEBUG_VALUE: usmart_str2num:flag <- $r12
	@DEBUG_VALUE: usmart_str2num:hexdec <- $r2
	@DEBUG_VALUE: usmart_str2num:bnum <- $lr
	@DEBUG_VALUE: usmart_str2num:p <- $r3
	@DEBUG_VALUE: usmart_str2num:res <- $r1
	@DEBUG_VALUE: usmart_str2num:str <- $r0
	.loc	1 107 85                        @ ../Middlewares/USMART/usmart_str.c:107:85
	lsls.w	r6, lr, #24
	bne	.LBB4_7
	b	.LBB4_1
.Ltmp89:
	.p2align	2
.LBB4_6:                                @   in Loop: Header=BB4_3 Depth=1
	@DEBUG_VALUE: usmart_str2num:flag <- $r12
	@DEBUG_VALUE: usmart_str2num:hexdec <- $r2
	@DEBUG_VALUE: usmart_str2num:bnum <- $lr
	@DEBUG_VALUE: usmart_str2num:p <- $r3
	@DEBUG_VALUE: usmart_str2num:res <- $r1
	@DEBUG_VALUE: usmart_str2num:str <- $r0
	.loc	1 107 63                        @ ../Middlewares/USMART/usmart_str.c:107:63
	eor	r6, r4, #43
	uxtb.w	r7, lr
	.loc	1 107 71                        @ ../Middlewares/USMART/usmart_str.c:107:71
	orrs	r6, r7
	beq	.LBB4_10
.Ltmp90:
.LBB4_7:                                @   in Loop: Header=BB4_3 Depth=1
	@DEBUG_VALUE: usmart_str2num:flag <- $r12
	@DEBUG_VALUE: usmart_str2num:hexdec <- $r2
	@DEBUG_VALUE: usmart_str2num:bnum <- $lr
	@DEBUG_VALUE: usmart_str2num:p <- $r3
	@DEBUG_VALUE: usmart_str2num:res <- $r1
	@DEBUG_VALUE: usmart_str2num:str <- $r0
	.loc	1 0 71                          @ ../Middlewares/USMART/usmart_str.c:0:71
	sub.w	r6, r5, #65
	cmp	r6, #6
	blo	.LBB4_10
.Ltmp91:
@ %bb.8:                                @   in Loop: Header=BB4_3 Depth=1
	@DEBUG_VALUE: usmart_str2num:flag <- $r12
	@DEBUG_VALUE: usmart_str2num:hexdec <- $r2
	@DEBUG_VALUE: usmart_str2num:bnum <- $lr
	@DEBUG_VALUE: usmart_str2num:p <- $r3
	@DEBUG_VALUE: usmart_str2num:res <- $r1
	@DEBUG_VALUE: usmart_str2num:str <- $r0
	.loc	1 107 127                       @ ../Middlewares/USMART/usmart_str.c:107:127
	cmp	r5, #88
	bne	.LBB4_14
.Ltmp92:
@ %bb.9:                                @   in Loop: Header=BB4_3 Depth=1
	@DEBUG_VALUE: usmart_str2num:flag <- $r12
	@DEBUG_VALUE: usmart_str2num:hexdec <- $r2
	@DEBUG_VALUE: usmart_str2num:bnum <- $lr
	@DEBUG_VALUE: usmart_str2num:p <- $r3
	@DEBUG_VALUE: usmart_str2num:res <- $r1
	@DEBUG_VALUE: usmart_str2num:str <- $r0
	.loc	1 0 127                         @ ../Middlewares/USMART/usmart_str.c:0:127
	uxtb.w	r6, lr
	.loc	1 107 127                       @ ../Middlewares/USMART/usmart_str.c:107:127
	cmp	r6, #1
	bne	.LBB4_14
.Ltmp93:
.LBB4_10:                               @   in Loop: Header=BB4_3 Depth=1
	@DEBUG_VALUE: usmart_str2num:flag <- $r12
	@DEBUG_VALUE: usmart_str2num:hexdec <- $r2
	@DEBUG_VALUE: usmart_str2num:bnum <- $lr
	@DEBUG_VALUE: usmart_str2num:p <- $r3
	@DEBUG_VALUE: usmart_str2num:res <- $r1
	@DEBUG_VALUE: usmart_str2num:str <- $r0
	.loc	1 111 17 is_stmt 1              @ ../Middlewares/USMART/usmart_str.c:111:17
	ldrb	r4, [r0]
.Ltmp94:
	.loc	1 109 17                        @ ../Middlewares/USMART/usmart_str.c:109:17
	cmp	r5, #64
	it	hi
	movhi	r2, #16
.Ltmp95:
	@DEBUG_VALUE: usmart_str2num:hexdec <- $r2
	.loc	1 111 17                        @ ../Middlewares/USMART/usmart_str.c:111:17
	cmp	r4, #43
	beq	.LBB4_13
.Ltmp96:
@ %bb.11:                               @   in Loop: Header=BB4_3 Depth=1
	@DEBUG_VALUE: usmart_str2num:flag <- $r12
	@DEBUG_VALUE: usmart_str2num:hexdec <- $r2
	@DEBUG_VALUE: usmart_str2num:bnum <- $lr
	@DEBUG_VALUE: usmart_str2num:p <- $r3
	@DEBUG_VALUE: usmart_str2num:res <- $r1
	@DEBUG_VALUE: usmart_str2num:str <- $r0
	cmp	r4, #45
	beq	.LBB4_2
.Ltmp97:
@ %bb.12:                               @   in Loop: Header=BB4_3 Depth=1
	@DEBUG_VALUE: usmart_str2num:flag <- $r12
	@DEBUG_VALUE: usmart_str2num:hexdec <- $r2
	@DEBUG_VALUE: usmart_str2num:bnum <- $lr
	@DEBUG_VALUE: usmart_str2num:p <- $r3
	@DEBUG_VALUE: usmart_str2num:res <- $r1
	@DEBUG_VALUE: usmart_str2num:str <- $r0
	.loc	1 123 21                        @ ../Middlewares/USMART/usmart_str.c:123:21
	add.w	lr, lr, #1
.Ltmp98:
	@DEBUG_VALUE: usmart_str2num:bnum <- $lr
	@DEBUG_VALUE: usmart_str2num:str <- $r0
	@DEBUG_VALUE: usmart_str2num:bnum <- $lr
	@DEBUG_VALUE: usmart_str2num:flag <- $r12
	.loc	1 135 10                        @ ../Middlewares/USMART/usmart_str.c:135:10
	adds	r3, #1
.Ltmp99:
	@DEBUG_VALUE: usmart_str2num:p <- $r3
	.loc	1 0 10 is_stmt 0                @ ../Middlewares/USMART/usmart_str.c:0:10
	b	.LBB4_3
.Ltmp100:
	.p2align	2
.LBB4_13:                               @   in Loop: Header=BB4_3 Depth=1
	@DEBUG_VALUE: usmart_str2num:flag <- $r12
	@DEBUG_VALUE: usmart_str2num:hexdec <- $r2
	@DEBUG_VALUE: usmart_str2num:bnum <- $lr
	@DEBUG_VALUE: usmart_str2num:p <- $r3
	@DEBUG_VALUE: usmart_str2num:res <- $r1
	@DEBUG_VALUE: usmart_str2num:str <- $r0
	@DEBUG_VALUE: usmart_str2num:flag <- 1
	.loc	1 119 21 is_stmt 1              @ ../Middlewares/USMART/usmart_str.c:119:21
	adds	r0, #1
.Ltmp101:
	@DEBUG_VALUE: usmart_str2num:str <- $r0
	.loc	1 0 21 is_stmt 0                @ ../Middlewares/USMART/usmart_str.c:0:21
	mov.w	r12, #1
.Ltmp102:
	@DEBUG_VALUE: usmart_str2num:str <- $r0
	@DEBUG_VALUE: usmart_str2num:bnum <- $lr
	@DEBUG_VALUE: usmart_str2num:flag <- $r12
	.loc	1 135 10 is_stmt 1              @ ../Middlewares/USMART/usmart_str.c:135:10
	adds	r3, #1
.Ltmp103:
	@DEBUG_VALUE: usmart_str2num:p <- $r3
	.loc	1 0 10 is_stmt 0                @ ../Middlewares/USMART/usmart_str.c:0:10
	b	.LBB4_3
.Ltmp104:
.LBB4_14:
	@DEBUG_VALUE: usmart_str2num:flag <- $r12
	@DEBUG_VALUE: usmart_str2num:hexdec <- $r2
	@DEBUG_VALUE: usmart_str2num:bnum <- $lr
	@DEBUG_VALUE: usmart_str2num:p <- $r3
	@DEBUG_VALUE: usmart_str2num:res <- $r1
	@DEBUG_VALUE: usmart_str2num:str <- $r0
	.loc	1 126 18 is_stmt 1              @ ../Middlewares/USMART/usmart_str.c:126:18
	cmp	r5, #0
	itt	ne
	movne	r0, #1
.Ltmp105:
	.loc	1 179 1                         @ ../Middlewares/USMART/usmart_str.c:179:1
	popne.w	{r4, r5, r6, r7, r8, r9, r10, r11, pc}
.Ltmp106:
.LBB4_15:
	@DEBUG_VALUE: usmart_str2num:flag <- $r12
	@DEBUG_VALUE: usmart_str2num:hexdec <- $r2
	@DEBUG_VALUE: usmart_str2num:bnum <- $lr
	@DEBUG_VALUE: usmart_str2num:p <- $r3
	@DEBUG_VALUE: usmart_str2num:res <- $r1
	@DEBUG_VALUE: usmart_str2num:p <- $r0
	.loc	1 140 16                        @ ../Middlewares/USMART/usmart_str.c:140:16
	uxtb	r2, r2
.Ltmp107:
	.loc	1 140 9 is_stmt 0               @ ../Middlewares/USMART/usmart_str.c:140:9
	cmp	r2, #16
	bne	.LBB4_20
.Ltmp108:
@ %bb.16:
	@DEBUG_VALUE: usmart_str2num:flag <- $r12
	@DEBUG_VALUE: usmart_str2num:bnum <- $lr
	@DEBUG_VALUE: usmart_str2num:p <- $r0
	@DEBUG_VALUE: usmart_str2num:res <- $r1
	.loc	1 142 18 is_stmt 1              @ ../Middlewares/USMART/usmart_str.c:142:18
	uxtb.w	r3, lr
.Ltmp109:
	.loc	1 142 13 is_stmt 0              @ ../Middlewares/USMART/usmart_str.c:142:13
	cmp	r3, #3
	itt	lo
	movlo	r0, #2
.Ltmp110:
	.loc	1 179 1 is_stmt 1               @ ../Middlewares/USMART/usmart_str.c:179:1
	poplo.w	{r4, r5, r6, r7, r8, r9, r10, r11, pc}
.Ltmp111:
.LBB4_17:
	@DEBUG_VALUE: usmart_str2num:flag <- $r12
	@DEBUG_VALUE: usmart_str2num:bnum <- $lr
	@DEBUG_VALUE: usmart_str2num:res <- $r1
	.loc	1 144 23                        @ ../Middlewares/USMART/usmart_str.c:144:23
	cmp	r4, #48
	itt	ne
	movne	r0, #3
.Ltmp112:
	.loc	1 179 1                         @ ../Middlewares/USMART/usmart_str.c:179:1
	popne.w	{r4, r5, r6, r7, r8, r9, r10, r11, pc}
.Ltmp113:
.LBB4_18:
	@DEBUG_VALUE: usmart_str2num:flag <- $r12
	@DEBUG_VALUE: usmart_str2num:bnum <- $lr
	@DEBUG_VALUE: usmart_str2num:res <- $r1
	.loc	1 144 27                        @ ../Middlewares/USMART/usmart_str.c:144:27
	ldrb	r3, [r0, #1]
.Ltmp114:
	.loc	1 144 13 is_stmt 0              @ ../Middlewares/USMART/usmart_str.c:144:13
	cmp	r3, #88
	itt	ne
	movne	r0, #3
.Ltmp115:
	.loc	1 179 1 is_stmt 1               @ ../Middlewares/USMART/usmart_str.c:179:1
	popne.w	{r4, r5, r6, r7, r8, r9, r10, r11, pc}
.Ltmp116:
.LBB4_19:
	@DEBUG_VALUE: usmart_str2num:flag <- $r12
	@DEBUG_VALUE: usmart_str2num:bnum <- $lr
	@DEBUG_VALUE: usmart_str2num:res <- $r1
	.loc	1 146 15                        @ ../Middlewares/USMART/usmart_str.c:146:15
	adds	r0, #2
.Ltmp117:
	@DEBUG_VALUE: usmart_str2num:p <- $r0
	.loc	1 147 18                        @ ../Middlewares/USMART/usmart_str.c:147:18
	sub.w	lr, lr, #2
.Ltmp118:
	@DEBUG_VALUE: usmart_str2num:bnum <- $lr
	.loc	1 0 18 is_stmt 0                @ ../Middlewares/USMART/usmart_str.c:0:18
	b	.LBB4_21
.Ltmp119:
.LBB4_20:
	@DEBUG_VALUE: usmart_str2num:flag <- $r12
	@DEBUG_VALUE: usmart_str2num:bnum <- $lr
	@DEBUG_VALUE: usmart_str2num:p <- $r0
	@DEBUG_VALUE: usmart_str2num:res <- $r1
	.loc	1 154 14 is_stmt 1              @ ../Middlewares/USMART/usmart_str.c:154:14
	lsls.w	r3, lr, #24
	beq	.LBB4_34
.Ltmp120:
.LBB4_21:
	@DEBUG_VALUE: usmart_str2num:flag <- $r12
	@DEBUG_VALUE: usmart_str2num:bnum <- $lr
	@DEBUG_VALUE: usmart_str2num:p <- $r0
	@DEBUG_VALUE: usmart_str2num:res <- $r1
	@DEBUG_VALUE: usmart_str2num:p <- $r0
	@DEBUG_VALUE: usmart_str2num:bnum <- $lr
	.loc	1 163 13                        @ ../Middlewares/USMART/usmart_str.c:163:13
	ldrb.w	r10, [r0]
	mov.w	r11, #0
	b	.LBB4_24
.Ltmp121:
	.p2align	2
.LBB4_22:                               @   in Loop: Header=BB4_24 Depth=1
	@DEBUG_VALUE: usmart_pow:n <- [DW_OP_constu 1, DW_OP_minus, DW_OP_stack_value] $r5
	@DEBUG_VALUE: usmart_pow:result <- 1
	@DEBUG_VALUE: usmart_str2num:bnum <- $r5
	@DEBUG_VALUE: usmart_str2num:flag <- $r12
	@DEBUG_VALUE: usmart_str2num:p <- $r0
	@DEBUG_VALUE: usmart_str2num:res <- $r1
	.loc	1 0 13 is_stmt 0                @ ../Middlewares/USMART/usmart_str.c:0:13
	movs	r7, #1
.Ltmp122:
.LBB4_23:                               @   in Loop: Header=BB4_24 Depth=1
	@DEBUG_VALUE: usmart_str2num:bnum <- $r5
	@DEBUG_VALUE: usmart_str2num:flag <- $r12
	@DEBUG_VALUE: usmart_str2num:p <- $r0
	@DEBUG_VALUE: usmart_str2num:res <- $r1
	add.w	r3, r9, r10
.Ltmp123:
	@DEBUG_VALUE: usmart_str2num:t <- $r3
	.loc	1 166 14 is_stmt 1              @ ../Middlewares/USMART/usmart_str.c:166:14
	mla	r11, r7, r3, r11
	mov	lr, r5
.Ltmp124:
	@DEBUG_VALUE: usmart_str2num:bnum <- $lr
	str.w	r11, [r1]
.Ltmp125:
	.loc	1 169 13                        @ ../Middlewares/USMART/usmart_str.c:169:13
	ldrb	r10, [r0, #1]!
.Ltmp126:
	@DEBUG_VALUE: usmart_str2num:p <- $r0
	.loc	1 169 13 is_stmt 0              @ ../Middlewares/USMART/usmart_str.c:169:13
	cmp.w	r10, #0
	beq	.LBB4_32
.Ltmp127:
.LBB4_24:                               @ =>This Loop Header: Depth=1
                                        @     Child Loop BB4_28 Depth 2
	@DEBUG_VALUE: usmart_str2num:flag <- $r12
	@DEBUG_VALUE: usmart_str2num:bnum <- $lr
	@DEBUG_VALUE: usmart_str2num:p <- $r0
	@DEBUG_VALUE: usmart_str2num:res <- $r1
	@DEBUG_VALUE: usmart_str2num:p <- $r0
	@DEBUG_VALUE: usmart_str2num:bnum <- $lr
	.loc	1 161 13 is_stmt 1              @ ../Middlewares/USMART/usmart_str.c:161:13
	uxtb.w	r5, lr
.Ltmp128:
	.loc	1 161 13 is_stmt 0              @ ../Middlewares/USMART/usmart_str.c:161:13
	cmp	r5, #0
.Ltmp129:
	.loc	1 163 23 is_stmt 1              @ ../Middlewares/USMART/usmart_str.c:163:23
	sub.w	r4, r10, #48
	sub.w	r8, lr, #1
.Ltmp130:
	.loc	1 161 13                        @ ../Middlewares/USMART/usmart_str.c:161:13
	it	ne
	movne	r5, r8
.Ltmp131:
	@DEBUG_VALUE: usmart_str2num:bnum <- $r5
	.loc	1 163 23                        @ ../Middlewares/USMART/usmart_str.c:163:23
	cmp	r4, #10
	mvn	r9, #54
	it	lo
	mvnlo	r9, #47
.Ltmp132:
	@DEBUG_VALUE: usmart_pow:result <- 1
	@DEBUG_VALUE: usmart_pow:m <- undef
	@DEBUG_VALUE: usmart_str2num:t <- undef
	@DEBUG_VALUE: usmart_pow:n <- [DW_OP_constu 1, DW_OP_minus, DW_OP_stack_value] $r5
	.loc	1 74 5                          @ ../Middlewares/USMART/usmart_str.c:74:5
	lsls	r4, r5, #24
	beq	.LBB4_22
.Ltmp133:
@ %bb.25:                               @   in Loop: Header=BB4_24 Depth=1
	@DEBUG_VALUE: usmart_pow:n <- [DW_OP_constu 1, DW_OP_minus, DW_OP_stack_value] $r5
	@DEBUG_VALUE: usmart_pow:result <- 1
	@DEBUG_VALUE: usmart_str2num:bnum <- $r5
	@DEBUG_VALUE: usmart_str2num:flag <- $r12
	@DEBUG_VALUE: usmart_str2num:p <- $r0
	@DEBUG_VALUE: usmart_str2num:res <- $r1
	sub.w	r7, lr, #2
	uxtb	r7, r7
	cmp	r7, #3
	bhs	.LBB4_27
.Ltmp134:
@ %bb.26:                               @   in Loop: Header=BB4_24 Depth=1
	@DEBUG_VALUE: usmart_pow:n <- [DW_OP_constu 1, DW_OP_minus, DW_OP_stack_value] $r5
	@DEBUG_VALUE: usmart_pow:result <- 1
	@DEBUG_VALUE: usmart_str2num:bnum <- $r5
	@DEBUG_VALUE: usmart_str2num:flag <- $r12
	@DEBUG_VALUE: usmart_str2num:p <- $r0
	@DEBUG_VALUE: usmart_str2num:res <- $r1
	.loc	1 0 5 is_stmt 0                 @ ../Middlewares/USMART/usmart_str.c:0:5
	movs	r7, #1
	b	.LBB4_29
.Ltmp135:
	.p2align	2
.LBB4_27:                               @   in Loop: Header=BB4_24 Depth=1
	@DEBUG_VALUE: usmart_pow:n <- [DW_OP_constu 1, DW_OP_minus, DW_OP_stack_value] $r5
	@DEBUG_VALUE: usmart_pow:result <- 1
	@DEBUG_VALUE: usmart_str2num:bnum <- $r5
	@DEBUG_VALUE: usmart_str2num:flag <- $r12
	@DEBUG_VALUE: usmart_str2num:p <- $r0
	@DEBUG_VALUE: usmart_str2num:res <- $r1
	.loc	1 74 5                          @ ../Middlewares/USMART/usmart_str.c:74:5
	and	r6, r8, #252
	movs	r4, #0
	movs	r7, #1
.Ltmp136:
	.p2align	2
.LBB4_28:                               @   Parent Loop BB4_24 Depth=1
                                        @ =>  This Inner Loop Header: Depth=2
	@DEBUG_VALUE: usmart_str2num:bnum <- $r5
	@DEBUG_VALUE: usmart_str2num:flag <- $r12
	@DEBUG_VALUE: usmart_str2num:p <- $r0
	@DEBUG_VALUE: usmart_str2num:res <- $r1
	@DEBUG_VALUE: usmart_pow:n <- [DW_OP_constu 1, DW_OP_minus, DW_OP_stack_value] undef
	@DEBUG_VALUE: usmart_pow:result <- $r7
	.loc	1 74 23                         @ ../Middlewares/USMART/usmart_str.c:74:23
	muls	r7, r2, r7
.Ltmp137:
	@DEBUG_VALUE: usmart_pow:result <- $r7
	@DEBUG_VALUE: usmart_pow:n <- [DW_OP_constu 2, DW_OP_minus, DW_OP_stack_value] undef
	muls	r7, r2, r7
.Ltmp138:
	@DEBUG_VALUE: usmart_pow:result <- $r7
	@DEBUG_VALUE: usmart_pow:n <- [DW_OP_constu 3, DW_OP_minus, DW_OP_stack_value] undef
	.loc	1 74 5                          @ ../Middlewares/USMART/usmart_str.c:74:5
	adds	r4, #4
	.loc	1 74 23                         @ ../Middlewares/USMART/usmart_str.c:74:23
	muls	r7, r2, r7
.Ltmp139:
	@DEBUG_VALUE: usmart_pow:result <- $r7
	@DEBUG_VALUE: usmart_pow:n <- [DW_OP_constu 4, DW_OP_minus, DW_OP_stack_value] undef
	.loc	1 74 5                          @ ../Middlewares/USMART/usmart_str.c:74:5
	uxtb	r3, r4
	cmp	r3, r6
	.loc	1 74 23                         @ ../Middlewares/USMART/usmart_str.c:74:23
	mul	r7, r2, r7
.Ltmp140:
	@DEBUG_VALUE: usmart_pow:result <- $r7
	@DEBUG_VALUE: usmart_pow:n <- [DW_OP_constu 4, DW_OP_minus, DW_OP_constu 1, DW_OP_minus, DW_OP_stack_value] undef
	.loc	1 74 5                          @ ../Middlewares/USMART/usmart_str.c:74:5
	bne	.LBB4_28
.Ltmp141:
.LBB4_29:                               @   in Loop: Header=BB4_24 Depth=1
	@DEBUG_VALUE: usmart_str2num:bnum <- $r5
	@DEBUG_VALUE: usmart_str2num:flag <- $r12
	@DEBUG_VALUE: usmart_str2num:p <- $r0
	@DEBUG_VALUE: usmart_str2num:res <- $r1
	ands	r6, r8, #3
	beq	.LBB4_23
.Ltmp142:
@ %bb.30:                               @   in Loop: Header=BB4_24 Depth=1
	@DEBUG_VALUE: usmart_str2num:bnum <- $r5
	@DEBUG_VALUE: usmart_str2num:flag <- $r12
	@DEBUG_VALUE: usmart_str2num:p <- $r0
	@DEBUG_VALUE: usmart_str2num:res <- $r1
	@DEBUG_VALUE: usmart_pow:n <- [DW_OP_constu 1, DW_OP_minus, DW_OP_stack_value] undef
	@DEBUG_VALUE: usmart_pow:result <- $r7
	cmp	r6, #1
	.loc	1 74 23                         @ ../Middlewares/USMART/usmart_str.c:74:23
	mul	r7, r2, r7
.Ltmp143:
	@DEBUG_VALUE: usmart_pow:result <- $r7
	@DEBUG_VALUE: usmart_pow:n <- [DW_OP_constu 1, DW_OP_minus, DW_OP_constu 1, DW_OP_minus, DW_OP_stack_value] undef
	.loc	1 74 5                          @ ../Middlewares/USMART/usmart_str.c:74:5
	beq	.LBB4_23
.Ltmp144:
@ %bb.31:                               @   in Loop: Header=BB4_24 Depth=1
	@DEBUG_VALUE: usmart_pow:result <- $r7
	@DEBUG_VALUE: usmart_str2num:bnum <- $r5
	@DEBUG_VALUE: usmart_str2num:flag <- $r12
	@DEBUG_VALUE: usmart_str2num:p <- $r0
	@DEBUG_VALUE: usmart_str2num:res <- $r1
	@DEBUG_VALUE: usmart_pow:n <- [DW_OP_constu 1, DW_OP_minus, DW_OP_constu 1, DW_OP_minus, DW_OP_stack_value] undef
	@DEBUG_VALUE: usmart_pow:result <- undef
	.loc	1 74 23                         @ ../Middlewares/USMART/usmart_str.c:74:23
	muls	r7, r2, r7
.Ltmp145:
	@DEBUG_VALUE: usmart_pow:result <- $r7
	@DEBUG_VALUE: usmart_pow:n <- [DW_OP_constu 1, DW_OP_minus, DW_OP_constu 1, DW_OP_minus, DW_OP_constu 1, DW_OP_minus, DW_OP_stack_value] undef
	.loc	1 74 5                          @ ../Middlewares/USMART/usmart_str.c:74:5
	cmp	r6, #2
	it	ne
	mulne	r7, r2, r7
.Ltmp146:
	.loc	1 0 5                           @ ../Middlewares/USMART/usmart_str.c:0:5
	b	.LBB4_23
.Ltmp147:
.LBB4_32:
	@DEBUG_VALUE: usmart_str2num:t <- $r3
	@DEBUG_VALUE: usmart_str2num:flag <- $r12
	@DEBUG_VALUE: usmart_str2num:bnum <- $lr
	@DEBUG_VALUE: usmart_str2num:p <- $r0
	@DEBUG_VALUE: usmart_str2num:res <- $r1
	.loc	1 172 9 is_stmt 1               @ ../Middlewares/USMART/usmart_str.c:172:9
	cmp.w	r12, #2
	itt	ne
	movne	r0, #0
.Ltmp148:
	.loc	1 179 1                         @ ../Middlewares/USMART/usmart_str.c:179:1
	popne.w	{r4, r5, r6, r7, r8, r9, r10, r11, pc}
.Ltmp149:
.LBB4_33:
	@DEBUG_VALUE: usmart_str2num:t <- $r3
	@DEBUG_VALUE: usmart_str2num:flag <- $r12
	@DEBUG_VALUE: usmart_str2num:bnum <- $lr
	@DEBUG_VALUE: usmart_str2num:res <- $r1
	.loc	1 174 16                        @ ../Middlewares/USMART/usmart_str.c:174:16
	rsb.w	r0, r11, #0
.Ltmp150:
	@DEBUG_VALUE: usmart_str2num:tnum <- $r0
	.loc	1 175 14                        @ ../Middlewares/USMART/usmart_str.c:175:14
	str	r0, [r1]
	movs	r0, #0
.Ltmp151:
	.loc	1 179 1                         @ ../Middlewares/USMART/usmart_str.c:179:1
	pop.w	{r4, r5, r6, r7, r8, r9, r10, r11, pc}
.Ltmp152:
.LBB4_34:
	@DEBUG_VALUE: usmart_str2num:flag <- $r12
	@DEBUG_VALUE: usmart_str2num:bnum <- $lr
	@DEBUG_VALUE: usmart_str2num:p <- $r0
	@DEBUG_VALUE: usmart_str2num:res <- $r1
	.loc	1 0 1 is_stmt 0                 @ ../Middlewares/USMART/usmart_str.c:0:1
	movs	r0, #4
.Ltmp153:
	.loc	1 179 1                         @ ../Middlewares/USMART/usmart_str.c:179:1
	pop.w	{r4, r5, r6, r7, r8, r9, r10, r11, pc}
.Ltmp154:
.Lfunc_end4:
	.size	usmart_str2num, .Lfunc_end4-usmart_str2num
	.cfi_endproc
	.cantunwind
	.fnend
                                        @ -- End function
	.section	.text.usmart_get_cmdname,"ax",%progbits
	.hidden	usmart_get_cmdname              @ -- Begin function usmart_get_cmdname
	.globl	usmart_get_cmdname
	.p2align	2
	.type	usmart_get_cmdname,%function
	.code	16                              @ @usmart_get_cmdname
	.thumb_func
usmart_get_cmdname:
.Lfunc_begin5:
	.loc	1 190 0 is_stmt 1               @ ../Middlewares/USMART/usmart_str.c:190:0
	.fnstart
	.cfi_startproc
@ %bb.0:
	@DEBUG_VALUE: usmart_get_cmdname:str <- $r0
	@DEBUG_VALUE: usmart_get_cmdname:cmdname <- $r1
	@DEBUG_VALUE: usmart_get_cmdname:nlen <- $r2
	@DEBUG_VALUE: usmart_get_cmdname:maxlen <- $r3
	.save	{r4, r5, r6, lr}
	push	{r4, r5, r6, lr}
	.cfi_def_cfa_offset 16
	.cfi_offset lr, -4
	.cfi_offset r6, -8
	.cfi_offset r5, -12
	.cfi_offset r4, -16
	mov.w	r12, #0
.Ltmp155:
	.loc	1 191 11 prologue_end           @ ../Middlewares/USMART/usmart_str.c:191:11
	strb.w	r12, [r2]
.Ltmp156:
.LBB5_1:                                @ =>This Inner Loop Header: Depth=1
	@DEBUG_VALUE: usmart_get_cmdname:maxlen <- $r3
	@DEBUG_VALUE: usmart_get_cmdname:nlen <- $r2
	@DEBUG_VALUE: usmart_get_cmdname:str <- [DW_OP_LLVM_arg 0, DW_OP_consts 4, DW_OP_div, DW_OP_consts 4, DW_OP_mul, DW_OP_LLVM_arg 0, DW_OP_plus, DW_OP_stack_value] undef
	@DEBUG_VALUE: usmart_get_cmdname:cmdname <- [DW_OP_LLVM_arg 0, DW_OP_consts 4, DW_OP_div, DW_OP_consts 4, DW_OP_mul, DW_OP_LLVM_arg 0, DW_OP_plus, DW_OP_stack_value] undef
	.loc	1 193 12                        @ ../Middlewares/USMART/usmart_str.c:193:12
	ldrb.w	r5, [r0, r12]
	.loc	1 193 24 is_stmt 0              @ ../Middlewares/USMART/usmart_str.c:193:24
	orr	r4, r5, #32
	cmp	r4, #32
	beq	.LBB5_10
.Ltmp157:
@ %bb.2:                                @   in Loop: Header=BB5_1 Depth=1
	@DEBUG_VALUE: usmart_get_cmdname:maxlen <- $r3
	@DEBUG_VALUE: usmart_get_cmdname:nlen <- $r2
	.loc	1 195 18 is_stmt 1              @ ../Middlewares/USMART/usmart_str.c:195:18
	strb.w	r5, [r1, r12]
.Ltmp158:
	@DEBUG_VALUE: usmart_get_cmdname:cmdname <- [DW_OP_LLVM_arg 0, DW_OP_consts 4, DW_OP_div, DW_OP_consts 4, DW_OP_mul, DW_OP_consts 1, DW_OP_LLVM_arg 0, DW_OP_plus, DW_OP_plus, DW_OP_stack_value] undef
	@DEBUG_VALUE: usmart_get_cmdname:str <- [DW_OP_plus_uconst 1, DW_OP_stack_value] $r12
	.loc	1 198 16                        @ ../Middlewares/USMART/usmart_str.c:198:16
	ldrb	r5, [r2]
	adds	r5, #1
	uxtb	r4, r5
	.loc	1 200 13                        @ ../Middlewares/USMART/usmart_str.c:200:13
	cmp	r4, r3
	.loc	1 198 16                        @ ../Middlewares/USMART/usmart_str.c:198:16
	strb	r5, [r2]
	.loc	1 200 13                        @ ../Middlewares/USMART/usmart_str.c:200:13
	bhs	.LBB5_9
.Ltmp159:
@ %bb.3:                                @   in Loop: Header=BB5_1 Depth=1
	@DEBUG_VALUE: usmart_get_cmdname:str <- [DW_OP_plus_uconst 1, DW_OP_stack_value] $r12
	@DEBUG_VALUE: usmart_get_cmdname:maxlen <- $r3
	@DEBUG_VALUE: usmart_get_cmdname:nlen <- $r2
	.loc	1 0 0 is_stmt 0                 @ ../Middlewares/USMART/usmart_str.c:0:0
	add.w	r6, r0, r12
	.loc	1 193 12 is_stmt 1              @ ../Middlewares/USMART/usmart_str.c:193:12
	ldrb	r5, [r6, #1]
	.loc	1 0 0 is_stmt 0                 @ ../Middlewares/USMART/usmart_str.c:0:0
	add.w	lr, r1, r12
.Ltmp160:
	@DEBUG_VALUE: usmart_get_cmdname:cmdname <- [DW_OP_LLVM_arg 0, DW_OP_consts 4, DW_OP_div, DW_OP_consts 4, DW_OP_mul, DW_OP_consts 1, DW_OP_LLVM_arg 0, DW_OP_plus, DW_OP_plus, DW_OP_stack_value] undef
	@DEBUG_VALUE: usmart_get_cmdname:str <- [DW_OP_plus_uconst 1, DW_OP_stack_value] $r12
	.loc	1 193 24                        @ ../Middlewares/USMART/usmart_str.c:193:24
	orr	r4, r5, #32
	cmp	r4, #32
	beq	.LBB5_11
.Ltmp161:
@ %bb.4:                                @   in Loop: Header=BB5_1 Depth=1
	@DEBUG_VALUE: usmart_get_cmdname:str <- [DW_OP_plus_uconst 1, DW_OP_stack_value] $r12
	@DEBUG_VALUE: usmart_get_cmdname:maxlen <- $r3
	@DEBUG_VALUE: usmart_get_cmdname:nlen <- $r2
	.loc	1 195 18 is_stmt 1              @ ../Middlewares/USMART/usmart_str.c:195:18
	strb.w	r5, [lr, #1]
.Ltmp162:
	@DEBUG_VALUE: usmart_get_cmdname:cmdname <- [DW_OP_LLVM_arg 0, DW_OP_consts 4, DW_OP_div, DW_OP_consts 4, DW_OP_mul, DW_OP_consts 2, DW_OP_LLVM_arg 0, DW_OP_plus, DW_OP_plus, DW_OP_stack_value] undef
	@DEBUG_VALUE: usmart_get_cmdname:str <- [DW_OP_plus_uconst 2, DW_OP_stack_value] $r12
	.loc	1 198 16                        @ ../Middlewares/USMART/usmart_str.c:198:16
	ldrb	r4, [r2]
	adds	r4, #1
	uxtb	r5, r4
	.loc	1 200 13                        @ ../Middlewares/USMART/usmart_str.c:200:13
	cmp	r5, r3
	.loc	1 198 16                        @ ../Middlewares/USMART/usmart_str.c:198:16
	strb	r4, [r2]
	.loc	1 200 13                        @ ../Middlewares/USMART/usmart_str.c:200:13
	bhs	.LBB5_9
.Ltmp163:
@ %bb.5:                                @   in Loop: Header=BB5_1 Depth=1
	@DEBUG_VALUE: usmart_get_cmdname:str <- [DW_OP_plus_uconst 2, DW_OP_stack_value] $r12
	@DEBUG_VALUE: usmart_get_cmdname:maxlen <- $r3
	@DEBUG_VALUE: usmart_get_cmdname:nlen <- $r2
	@DEBUG_VALUE: usmart_get_cmdname:str <- [DW_OP_plus_uconst 2, DW_OP_stack_value] $r12
	@DEBUG_VALUE: usmart_get_cmdname:cmdname <- [DW_OP_LLVM_arg 0, DW_OP_consts 4, DW_OP_div, DW_OP_consts 4, DW_OP_mul, DW_OP_consts 2, DW_OP_LLVM_arg 0, DW_OP_plus, DW_OP_plus, DW_OP_stack_value] undef
	.loc	1 193 12                        @ ../Middlewares/USMART/usmart_str.c:193:12
	ldrb	r5, [r6, #2]
	.loc	1 193 24 is_stmt 0              @ ../Middlewares/USMART/usmart_str.c:193:24
	orr	r4, r5, #32
	cmp	r4, #32
	beq	.LBB5_12
.Ltmp164:
@ %bb.6:                                @   in Loop: Header=BB5_1 Depth=1
	@DEBUG_VALUE: usmart_get_cmdname:str <- [DW_OP_plus_uconst 2, DW_OP_stack_value] $r12
	@DEBUG_VALUE: usmart_get_cmdname:maxlen <- $r3
	@DEBUG_VALUE: usmart_get_cmdname:nlen <- $r2
	.loc	1 195 18 is_stmt 1              @ ../Middlewares/USMART/usmart_str.c:195:18
	strb.w	r5, [lr, #2]
.Ltmp165:
	@DEBUG_VALUE: usmart_get_cmdname:cmdname <- [DW_OP_LLVM_arg 0, DW_OP_consts 4, DW_OP_div, DW_OP_consts 4, DW_OP_mul, DW_OP_consts 3, DW_OP_LLVM_arg 0, DW_OP_plus, DW_OP_plus, DW_OP_stack_value] undef
	@DEBUG_VALUE: usmart_get_cmdname:str <- [DW_OP_plus_uconst 3, DW_OP_stack_value] $r12
	.loc	1 198 16                        @ ../Middlewares/USMART/usmart_str.c:198:16
	ldrb	r4, [r2]
	adds	r4, #1
	uxtb	r5, r4
	.loc	1 200 13                        @ ../Middlewares/USMART/usmart_str.c:200:13
	cmp	r5, r3
	.loc	1 198 16                        @ ../Middlewares/USMART/usmart_str.c:198:16
	strb	r4, [r2]
	.loc	1 200 13                        @ ../Middlewares/USMART/usmart_str.c:200:13
	bhs	.LBB5_9
.Ltmp166:
@ %bb.7:                                @   in Loop: Header=BB5_1 Depth=1
	@DEBUG_VALUE: usmart_get_cmdname:str <- [DW_OP_plus_uconst 3, DW_OP_stack_value] $r12
	@DEBUG_VALUE: usmart_get_cmdname:maxlen <- $r3
	@DEBUG_VALUE: usmart_get_cmdname:nlen <- $r2
	@DEBUG_VALUE: usmart_get_cmdname:str <- [DW_OP_plus_uconst 3, DW_OP_stack_value] $r12
	@DEBUG_VALUE: usmart_get_cmdname:cmdname <- [DW_OP_LLVM_arg 0, DW_OP_consts 4, DW_OP_div, DW_OP_consts 4, DW_OP_mul, DW_OP_consts 3, DW_OP_LLVM_arg 0, DW_OP_plus, DW_OP_plus, DW_OP_stack_value] undef
	.loc	1 193 12                        @ ../Middlewares/USMART/usmart_str.c:193:12
	ldrb	r4, [r6, #3]
	.loc	1 193 24 is_stmt 0              @ ../Middlewares/USMART/usmart_str.c:193:24
	orr	r5, r4, #32
	cmp	r5, #32
	beq	.LBB5_13
.Ltmp167:
@ %bb.8:                                @   in Loop: Header=BB5_1 Depth=1
	@DEBUG_VALUE: usmart_get_cmdname:str <- [DW_OP_plus_uconst 3, DW_OP_stack_value] $r12
	@DEBUG_VALUE: usmart_get_cmdname:maxlen <- $r3
	@DEBUG_VALUE: usmart_get_cmdname:nlen <- $r2
	.loc	1 195 18 is_stmt 1              @ ../Middlewares/USMART/usmart_str.c:195:18
	strb.w	r4, [lr, #3]
.Ltmp168:
	@DEBUG_VALUE: usmart_get_cmdname:cmdname <- [DW_OP_LLVM_arg 0, DW_OP_consts 4, DW_OP_div, DW_OP_consts 4, DW_OP_mul, DW_OP_consts 4, DW_OP_LLVM_arg 0, DW_OP_plus, DW_OP_plus, DW_OP_stack_value] undef
	@DEBUG_VALUE: usmart_get_cmdname:str <- [DW_OP_LLVM_arg 0, DW_OP_consts 4, DW_OP_div, DW_OP_consts 4, DW_OP_mul, DW_OP_consts 4, DW_OP_LLVM_arg 0, DW_OP_plus, DW_OP_plus, DW_OP_stack_value] undef
	.loc	1 198 16                        @ ../Middlewares/USMART/usmart_str.c:198:16
	ldrb	r6, [r2]
	.loc	1 200 13                        @ ../Middlewares/USMART/usmart_str.c:200:13
	add.w	r12, r12, #4
	.loc	1 198 16                        @ ../Middlewares/USMART/usmart_str.c:198:16
	adds	r6, #1
	uxtb	r5, r6
	.loc	1 200 13                        @ ../Middlewares/USMART/usmart_str.c:200:13
	cmp	r5, r3
	.loc	1 198 16                        @ ../Middlewares/USMART/usmart_str.c:198:16
	strb	r6, [r2]
	.loc	1 200 13                        @ ../Middlewares/USMART/usmart_str.c:200:13
	blo	.LBB5_1
.Ltmp169:
.LBB5_9:
	@DEBUG_VALUE: usmart_get_cmdname:maxlen <- $r3
	@DEBUG_VALUE: usmart_get_cmdname:nlen <- $r2
	.loc	1 0 13 is_stmt 0                @ ../Middlewares/USMART/usmart_str.c:0:13
	movs	r0, #1
	.loc	1 205 1 is_stmt 1               @ ../Middlewares/USMART/usmart_str.c:205:1
	pop	{r4, r5, r6, pc}
.Ltmp170:
.LBB5_10:
	@DEBUG_VALUE: usmart_get_cmdname:maxlen <- $r3
	@DEBUG_VALUE: usmart_get_cmdname:nlen <- $r2
	.loc	1 193 24                        @ ../Middlewares/USMART/usmart_str.c:193:24
	add	r1, r12
	b	.LBB5_14
.Ltmp171:
.LBB5_11:
	@DEBUG_VALUE: usmart_get_cmdname:str <- [DW_OP_plus_uconst 1, DW_OP_stack_value] $r12
	@DEBUG_VALUE: usmart_get_cmdname:maxlen <- $r3
	@DEBUG_VALUE: usmart_get_cmdname:nlen <- $r2
	.loc	1 203 14                        @ ../Middlewares/USMART/usmart_str.c:203:14
	add.w	r1, lr, #1
	b	.LBB5_14
.Ltmp172:
.LBB5_12:
	@DEBUG_VALUE: usmart_get_cmdname:str <- [DW_OP_plus_uconst 2, DW_OP_stack_value] $r12
	@DEBUG_VALUE: usmart_get_cmdname:maxlen <- $r3
	@DEBUG_VALUE: usmart_get_cmdname:nlen <- $r2
	.loc	1 193 24                        @ ../Middlewares/USMART/usmart_str.c:193:24
	add.w	r1, lr, #2
	b	.LBB5_14
.Ltmp173:
.LBB5_13:
	@DEBUG_VALUE: usmart_get_cmdname:str <- [DW_OP_plus_uconst 3, DW_OP_stack_value] $r12
	@DEBUG_VALUE: usmart_get_cmdname:maxlen <- $r3
	@DEBUG_VALUE: usmart_get_cmdname:nlen <- $r2
	add.w	r1, lr, #3
.Ltmp174:
.LBB5_14:
	@DEBUG_VALUE: usmart_get_cmdname:maxlen <- $r3
	@DEBUG_VALUE: usmart_get_cmdname:nlen <- $r2
	.loc	1 0 24 is_stmt 0                @ ../Middlewares/USMART/usmart_str.c:0:24
	movs	r0, #0
	.loc	1 203 14 is_stmt 1              @ ../Middlewares/USMART/usmart_str.c:203:14
	strb	r0, [r1]
	.loc	1 205 1                         @ ../Middlewares/USMART/usmart_str.c:205:1
	pop	{r4, r5, r6, pc}
.Ltmp175:
.Lfunc_end5:
	.size	usmart_get_cmdname, .Lfunc_end5-usmart_get_cmdname
	.cfi_endproc
	.cantunwind
	.fnend
                                        @ -- End function
	.section	.text.usmart_search_nextc,"ax",%progbits
	.hidden	usmart_search_nextc             @ -- Begin function usmart_search_nextc
	.globl	usmart_search_nextc
	.p2align	2
	.type	usmart_search_nextc,%function
	.code	16                              @ @usmart_search_nextc
	.thumb_func
usmart_search_nextc:
.Lfunc_begin6:
	.loc	1 213 0                         @ ../Middlewares/USMART/usmart_str.c:213:0
	.fnstart
	.cfi_startproc
@ %bb.0:
	@DEBUG_VALUE: usmart_search_nextc:str <- [DW_OP_plus_uconst 1, DW_OP_stack_value] $r0
	.loc	1 216 5 prologue_end            @ ../Middlewares/USMART/usmart_str.c:216:5
	adds	r1, r0, #2
	b	.LBB6_3
.Ltmp176:
	.p2align	2
.LBB6_1:                                @   in Loop: Header=BB6_3 Depth=1
	@DEBUG_VALUE: usmart_search_nextc:str <- $r1
	@DEBUG_VALUE: usmart_search_nextc:str <- [DW_OP_plus_uconst 1, DW_OP_stack_value] $r1
	.loc	1 216 12 is_stmt 0              @ ../Middlewares/USMART/usmart_str.c:216:12
	ldrb	r0, [r1, #1]
	.loc	1 216 5                         @ ../Middlewares/USMART/usmart_str.c:216:5
	cmp	r0, #32
	.loc	1 218 5 is_stmt 1               @ ../Middlewares/USMART/usmart_str.c:218:5
	it	ne
	bxne	lr
.Ltmp177:
.LBB6_2:                                @   in Loop: Header=BB6_3 Depth=1
	@DEBUG_VALUE: usmart_search_nextc:str <- [DW_OP_plus_uconst 1, DW_OP_stack_value] $r1
	@DEBUG_VALUE: usmart_search_nextc:str <- [DW_OP_plus_uconst 2, DW_OP_stack_value] $r1
	.loc	1 216 12                        @ ../Middlewares/USMART/usmart_str.c:216:12
	ldrb	r0, [r1, #2]
	.loc	1 216 5 is_stmt 0               @ ../Middlewares/USMART/usmart_str.c:216:5
	adds	r1, #4
.Ltmp178:
	cmp	r0, #32
	bne	.LBB6_5
.LBB6_3:                                @ =>This Inner Loop Header: Depth=1
.Ltmp179:
	@DEBUG_VALUE: usmart_search_nextc:str <- [DW_OP_constu 1, DW_OP_minus, DW_OP_stack_value] $r1
	.loc	1 216 12                        @ ../Middlewares/USMART/usmart_str.c:216:12
	ldrb	r0, [r1, #-1]
	.loc	1 216 5                         @ ../Middlewares/USMART/usmart_str.c:216:5
	cmp	r0, #32
	bne	.LBB6_5
.Ltmp180:
@ %bb.4:                                @   in Loop: Header=BB6_3 Depth=1
	@DEBUG_VALUE: usmart_search_nextc:str <- [DW_OP_constu 1, DW_OP_minus, DW_OP_stack_value] $r1
	@DEBUG_VALUE: usmart_search_nextc:str <- $r1
	.loc	1 216 12                        @ ../Middlewares/USMART/usmart_str.c:216:12
	ldrb	r0, [r1]
	.loc	1 216 5                         @ ../Middlewares/USMART/usmart_str.c:216:5
	cmp	r0, #32
	beq	.LBB6_1
.Ltmp181:
.LBB6_5:
	.loc	1 218 5 is_stmt 1               @ ../Middlewares/USMART/usmart_str.c:218:5
	bx	lr
.Ltmp182:
.Lfunc_end6:
	.size	usmart_search_nextc, .Lfunc_end6-usmart_search_nextc
	.cfi_endproc
	.cantunwind
	.fnend
                                        @ -- End function
	.section	.text.usmart_get_fname,"ax",%progbits
	.hidden	usmart_get_fname                @ -- Begin function usmart_get_fname
	.globl	usmart_get_fname
	.p2align	2
	.type	usmart_get_fname,%function
	.code	16                              @ @usmart_get_fname
	.thumb_func
usmart_get_fname:
.Lfunc_begin7:
	.loc	1 230 0                         @ ../Middlewares/USMART/usmart_str.c:230:0
	.fnstart
	.cfi_startproc
@ %bb.0:
	@DEBUG_VALUE: usmart_get_fname:str <- $r0
	@DEBUG_VALUE: usmart_get_fname:fname <- $r1
	@DEBUG_VALUE: usmart_get_fname:pnum <- $r2
	@DEBUG_VALUE: usmart_get_fname:rval <- $r3
	.save	{r4, r5, r6, r7, r8, r9, r10, r11, lr}
	push.w	{r4, r5, r6, r7, r8, r9, r10, r11, lr}
	.cfi_def_cfa_offset 36
	.cfi_offset lr, -4
	.cfi_offset r11, -8
	.cfi_offset r10, -12
	.cfi_offset r9, -16
	.cfi_offset r8, -20
	.cfi_offset r7, -24
	.cfi_offset r6, -28
	.cfi_offset r5, -32
	.cfi_offset r4, -36
	.pad	#8
	sub	sp, #8
	.cfi_def_cfa_offset 44
.Ltmp183:
	@DEBUG_VALUE: usmart_get_fname:fover <- 0
	@DEBUG_VALUE: usmart_get_fname:offset <- 0
	@DEBUG_VALUE: usmart_get_fname:parmnum <- 0
	@DEBUG_VALUE: usmart_get_fname:temp <- 1
	movs	r7, #0
.Ltmp184:
	@DEBUG_VALUE: usmart_get_fname:strtemp <- undef
	@DEBUG_VALUE: usmart_get_fname:pcnt <- 0
	@DEBUG_VALUE: usmart_get_fname:fplcnt <- 0
	add.w	r12, sp, #2
	mov	r6, r0
	b	.LBB7_3
.Ltmp185:
	.p2align	2
.LBB7_1:                                @   in Loop: Header=BB7_3 Depth=1
	@DEBUG_VALUE: usmart_get_fname:strtemp <- $r6
	@DEBUG_VALUE: usmart_get_fname:pcnt <- $r7
	@DEBUG_VALUE: usmart_get_fname:fplcnt <- 0
	@DEBUG_VALUE: usmart_get_fname:temp <- 1
	@DEBUG_VALUE: usmart_get_fname:parmnum <- 0
	@DEBUG_VALUE: usmart_get_fname:offset <- 0
	@DEBUG_VALUE: usmart_get_fname:fover <- 0
	@DEBUG_VALUE: usmart_get_fname:rval <- $r3
	@DEBUG_VALUE: usmart_get_fname:pnum <- $r2
	@DEBUG_VALUE: usmart_get_fname:fname <- $r1
	@DEBUG_VALUE: usmart_get_fname:str <- $r0
	.loc	1 255 23 prologue_end           @ ../Middlewares/USMART/usmart_str.c:255:23
	uxtb	r5, r7
.Ltmp186:
	.loc	1 255 18 is_stmt 0              @ ../Middlewares/USMART/usmart_str.c:255:18
	cmp	r5, #133
	beq	.LBB7_9
.Ltmp187:
.LBB7_2:                                @   in Loop: Header=BB7_3 Depth=1
	@DEBUG_VALUE: usmart_get_fname:strtemp <- $r6
	@DEBUG_VALUE: usmart_get_fname:pcnt <- $r7
	@DEBUG_VALUE: usmart_get_fname:fplcnt <- 0
	@DEBUG_VALUE: usmart_get_fname:temp <- 1
	@DEBUG_VALUE: usmart_get_fname:parmnum <- 0
	@DEBUG_VALUE: usmart_get_fname:offset <- 0
	@DEBUG_VALUE: usmart_get_fname:fover <- 0
	@DEBUG_VALUE: usmart_get_fname:rval <- $r3
	@DEBUG_VALUE: usmart_get_fname:pnum <- $r2
	@DEBUG_VALUE: usmart_get_fname:fname <- $r1
	@DEBUG_VALUE: usmart_get_fname:str <- $r0
	@DEBUG_VALUE: usmart_get_fname:pcnt <- $r7
	.loc	1 260 16 is_stmt 1              @ ../Middlewares/USMART/usmart_str.c:260:16
	adds	r6, #1
.Ltmp188:
	@DEBUG_VALUE: usmart_get_fname:strtemp <- $r6
.LBB7_3:                                @ =>This Inner Loop Header: Depth=1
	@DEBUG_VALUE: usmart_get_fname:fplcnt <- 0
	@DEBUG_VALUE: usmart_get_fname:temp <- 1
	@DEBUG_VALUE: usmart_get_fname:parmnum <- 0
	@DEBUG_VALUE: usmart_get_fname:offset <- 0
	@DEBUG_VALUE: usmart_get_fname:fover <- 0
	@DEBUG_VALUE: usmart_get_fname:rval <- $r3
	@DEBUG_VALUE: usmart_get_fname:pnum <- $r2
	@DEBUG_VALUE: usmart_get_fname:fname <- $r1
	@DEBUG_VALUE: usmart_get_fname:str <- $r0
	@DEBUG_VALUE: usmart_get_fname:pcnt <- $r7
	@DEBUG_VALUE: usmart_get_fname:strtemp <- $r6
	.loc	1 244 12                        @ ../Middlewares/USMART/usmart_str.c:244:12
	ldrb	r5, [r6]
	.loc	1 244 5 is_stmt 0               @ ../Middlewares/USMART/usmart_str.c:244:5
	cmp	r5, #32
	beq	.LBB7_1
.Ltmp189:
@ %bb.4:                                @   in Loop: Header=BB7_3 Depth=1
	@DEBUG_VALUE: usmart_get_fname:strtemp <- $r6
	@DEBUG_VALUE: usmart_get_fname:pcnt <- $r7
	@DEBUG_VALUE: usmart_get_fname:fplcnt <- 0
	@DEBUG_VALUE: usmart_get_fname:temp <- 1
	@DEBUG_VALUE: usmart_get_fname:parmnum <- 0
	@DEBUG_VALUE: usmart_get_fname:offset <- 0
	@DEBUG_VALUE: usmart_get_fname:fover <- 0
	@DEBUG_VALUE: usmart_get_fname:rval <- $r3
	@DEBUG_VALUE: usmart_get_fname:pnum <- $r2
	@DEBUG_VALUE: usmart_get_fname:fname <- $r1
	@DEBUG_VALUE: usmart_get_fname:str <- $r0
	cbz	r5, .LBB7_10
.Ltmp190:
@ %bb.5:                                @   in Loop: Header=BB7_3 Depth=1
	@DEBUG_VALUE: usmart_get_fname:strtemp <- $r6
	@DEBUG_VALUE: usmart_get_fname:pcnt <- $r7
	@DEBUG_VALUE: usmart_get_fname:fplcnt <- 0
	@DEBUG_VALUE: usmart_get_fname:temp <- 1
	@DEBUG_VALUE: usmart_get_fname:parmnum <- 0
	@DEBUG_VALUE: usmart_get_fname:offset <- 0
	@DEBUG_VALUE: usmart_get_fname:fover <- 0
	@DEBUG_VALUE: usmart_get_fname:rval <- $r3
	@DEBUG_VALUE: usmart_get_fname:pnum <- $r2
	@DEBUG_VALUE: usmart_get_fname:fname <- $r1
	@DEBUG_VALUE: usmart_get_fname:str <- $r0
	.loc	1 246 38 is_stmt 1              @ ../Middlewares/USMART/usmart_str.c:246:38
	and	r4, r7, #127
.Ltmp191:
	.loc	1 246 13 is_stmt 0              @ ../Middlewares/USMART/usmart_str.c:246:13
	cmp	r4, #4
	bhi	.LBB7_1
.Ltmp192:
@ %bb.6:                                @   in Loop: Header=BB7_3 Depth=1
	@DEBUG_VALUE: usmart_get_fname:strtemp <- $r6
	@DEBUG_VALUE: usmart_get_fname:pcnt <- $r7
	@DEBUG_VALUE: usmart_get_fname:fplcnt <- 0
	@DEBUG_VALUE: usmart_get_fname:temp <- 1
	@DEBUG_VALUE: usmart_get_fname:parmnum <- 0
	@DEBUG_VALUE: usmart_get_fname:offset <- 0
	@DEBUG_VALUE: usmart_get_fname:fover <- 0
	@DEBUG_VALUE: usmart_get_fname:rval <- $r3
	@DEBUG_VALUE: usmart_get_fname:pnum <- $r2
	@DEBUG_VALUE: usmart_get_fname:fname <- $r1
	@DEBUG_VALUE: usmart_get_fname:str <- $r0
	.loc	1 248 17 is_stmt 1              @ ../Middlewares/USMART/usmart_str.c:248:17
	lsls	r4, r7, #24
	it	eq
	mvneq	r7, #127
.Ltmp193:
	@DEBUG_VALUE: usmart_get_fname:pcnt <- $r7
	.loc	1 250 24                        @ ../Middlewares/USMART/usmart_str.c:250:24
	and	r4, r7, #127
	.loc	1 250 38 is_stmt 0              @ ../Middlewares/USMART/usmart_str.c:250:38
	cmp	r4, #4
	bne	.LBB7_8
.Ltmp194:
@ %bb.7:                                @   in Loop: Header=BB7_3 Depth=1
	@DEBUG_VALUE: usmart_get_fname:strtemp <- $r6
	@DEBUG_VALUE: usmart_get_fname:pcnt <- $r7
	@DEBUG_VALUE: usmart_get_fname:fplcnt <- 0
	@DEBUG_VALUE: usmart_get_fname:temp <- 1
	@DEBUG_VALUE: usmart_get_fname:parmnum <- 0
	@DEBUG_VALUE: usmart_get_fname:offset <- 0
	@DEBUG_VALUE: usmart_get_fname:fover <- 0
	@DEBUG_VALUE: usmart_get_fname:rval <- $r3
	@DEBUG_VALUE: usmart_get_fname:pnum <- $r2
	@DEBUG_VALUE: usmart_get_fname:fname <- $r1
	@DEBUG_VALUE: usmart_get_fname:str <- $r0
	cmp	r5, #42
	bne	.LBB7_11
.Ltmp195:
.LBB7_8:                                @   in Loop: Header=BB7_3 Depth=1
	@DEBUG_VALUE: usmart_get_fname:strtemp <- $r6
	@DEBUG_VALUE: usmart_get_fname:pcnt <- $r7
	@DEBUG_VALUE: usmart_get_fname:fplcnt <- 0
	@DEBUG_VALUE: usmart_get_fname:temp <- 1
	@DEBUG_VALUE: usmart_get_fname:parmnum <- 0
	@DEBUG_VALUE: usmart_get_fname:offset <- 0
	@DEBUG_VALUE: usmart_get_fname:fover <- 0
	@DEBUG_VALUE: usmart_get_fname:rval <- $r3
	@DEBUG_VALUE: usmart_get_fname:pnum <- $r2
	@DEBUG_VALUE: usmart_get_fname:fname <- $r1
	@DEBUG_VALUE: usmart_get_fname:str <- $r0
	.loc	1 253 17 is_stmt 1              @ ../Middlewares/USMART/usmart_str.c:253:17
	adds	r7, #1
.Ltmp196:
	@DEBUG_VALUE: usmart_get_fname:pcnt <- $r7
	.loc	1 252 33                        @ ../Middlewares/USMART/usmart_str.c:252:33
	strb.w	r5, [r12, r4]
	b	.LBB7_2
.Ltmp197:
.LBB7_9:
	@DEBUG_VALUE: usmart_get_fname:strtemp <- $r6
	@DEBUG_VALUE: usmart_get_fname:pcnt <- $r7
	@DEBUG_VALUE: usmart_get_fname:fplcnt <- 0
	@DEBUG_VALUE: usmart_get_fname:temp <- 1
	@DEBUG_VALUE: usmart_get_fname:parmnum <- 0
	@DEBUG_VALUE: usmart_get_fname:offset <- 0
	@DEBUG_VALUE: usmart_get_fname:fover <- 0
	@DEBUG_VALUE: usmart_get_fname:rval <- $r3
	@DEBUG_VALUE: usmart_get_fname:pnum <- $r2
	@DEBUG_VALUE: usmart_get_fname:fname <- $r1
	@DEBUG_VALUE: usmart_get_fname:str <- $r0
	.loc	1 0 33 is_stmt 0                @ ../Middlewares/USMART/usmart_str.c:0:33
	movs	r7, #133
.Ltmp198:
	b	.LBB7_11
.Ltmp199:
.LBB7_10:
	@DEBUG_VALUE: usmart_get_fname:strtemp <- $r6
	@DEBUG_VALUE: usmart_get_fname:pcnt <- $r7
	@DEBUG_VALUE: usmart_get_fname:fplcnt <- 0
	@DEBUG_VALUE: usmart_get_fname:temp <- 1
	@DEBUG_VALUE: usmart_get_fname:parmnum <- 0
	@DEBUG_VALUE: usmart_get_fname:offset <- 0
	@DEBUG_VALUE: usmart_get_fname:fover <- 0
	@DEBUG_VALUE: usmart_get_fname:rval <- $r3
	@DEBUG_VALUE: usmart_get_fname:pnum <- $r2
	@DEBUG_VALUE: usmart_get_fname:fname <- $r1
	@DEBUG_VALUE: usmart_get_fname:str <- $r0
	@DEBUG_VALUE: usmart_get_fname:pcnt <- $r7
	.loc	1 263 9 is_stmt 1               @ ../Middlewares/USMART/usmart_str.c:263:9
	lsls	r6, r7, #24
.Ltmp200:
	beq	.LBB7_24
.Ltmp201:
.LBB7_11:
	@DEBUG_VALUE: usmart_get_fname:fplcnt <- 0
	@DEBUG_VALUE: usmart_get_fname:temp <- 1
	@DEBUG_VALUE: usmart_get_fname:parmnum <- 0
	@DEBUG_VALUE: usmart_get_fname:offset <- 0
	@DEBUG_VALUE: usmart_get_fname:fover <- 0
	@DEBUG_VALUE: usmart_get_fname:rval <- $r3
	@DEBUG_VALUE: usmart_get_fname:pnum <- $r2
	@DEBUG_VALUE: usmart_get_fname:fname <- $r1
	@DEBUG_VALUE: usmart_get_fname:str <- $r0
	.loc	1 265 21                        @ ../Middlewares/USMART/usmart_str.c:265:21
	and	r7, r7, #127
	movs	r6, #0
	.loc	1 265 29 is_stmt 0              @ ../Middlewares/USMART/usmart_str.c:265:29
	strb.w	r6, [r12, r7]
.Ltmp202:
	@DEBUG_VALUE: usmart_strcmp:str1 <- [DW_OP_plus_uconst 2, DW_OP_stack_value] $sp
	.loc	1 14 13 is_stmt 1               @ ../Middlewares/USMART/usmart_str.c:14:13
	ldrb.w	r7, [sp, #2]
.Ltmp203:
	.loc	1 14 13 is_stmt 0               @ ../Middlewares/USMART/usmart_str.c:14:13
	cmp	r7, #118
.Ltmp204:
	@DEBUG_VALUE: usmart_strcmp:str2 <- undef
	bne	.LBB7_21
.Ltmp205:
@ %bb.12:
	@DEBUG_VALUE: usmart_strcmp:str1 <- [DW_OP_plus_uconst 2, DW_OP_stack_value] $sp
	@DEBUG_VALUE: usmart_get_fname:fplcnt <- 0
	@DEBUG_VALUE: usmart_get_fname:temp <- 1
	@DEBUG_VALUE: usmart_get_fname:parmnum <- 0
	@DEBUG_VALUE: usmart_get_fname:offset <- 0
	@DEBUG_VALUE: usmart_get_fname:fover <- 0
	@DEBUG_VALUE: usmart_get_fname:rval <- $r3
	@DEBUG_VALUE: usmart_get_fname:pnum <- $r2
	@DEBUG_VALUE: usmart_get_fname:fname <- $r1
	@DEBUG_VALUE: usmart_get_fname:str <- $r0
	.loc	1 0 13                          @ ../Middlewares/USMART/usmart_str.c:0:13
	movw	lr, :lower16:.L.str
	movs	r4, #118
	mov.w	r8, #0
	movt	lr, :upper16:.L.str
.Ltmp206:
.LBB7_13:                               @ =>This Inner Loop Header: Depth=1
	@DEBUG_VALUE: usmart_get_fname:fplcnt <- 0
	@DEBUG_VALUE: usmart_get_fname:temp <- 1
	@DEBUG_VALUE: usmart_get_fname:parmnum <- 0
	@DEBUG_VALUE: usmart_get_fname:offset <- 0
	@DEBUG_VALUE: usmart_get_fname:fover <- 0
	@DEBUG_VALUE: usmart_get_fname:rval <- $r3
	@DEBUG_VALUE: usmart_get_fname:pnum <- $r2
	@DEBUG_VALUE: usmart_get_fname:fname <- $r1
	@DEBUG_VALUE: usmart_get_fname:str <- $r0
	@DEBUG_VALUE: usmart_strcmp:str1 <- [DW_OP_LLVM_arg 0, DW_OP_consts 4, DW_OP_div, DW_OP_consts 4, DW_OP_mul, DW_OP_LLVM_arg 1, DW_OP_plus_uconst 2, DW_OP_plus, DW_OP_stack_value] $r8, $sp
	@DEBUG_VALUE: usmart_strcmp:str2 <- [DW_OP_LLVM_arg 0, DW_OP_consts 4, DW_OP_div, DW_OP_consts 4, DW_OP_mul, DW_OP_LLVM_arg 0, DW_OP_plus, DW_OP_stack_value] undef
	.loc	1 16 13 is_stmt 1               @ ../Middlewares/USMART/usmart_str.c:16:13
	cbz	r4, .LBB7_22
.Ltmp207:
@ %bb.14:                               @   in Loop: Header=BB7_13 Depth=1
	@DEBUG_VALUE: usmart_strcmp:str1 <- [DW_OP_LLVM_arg 0, DW_OP_consts 4, DW_OP_div, DW_OP_consts 4, DW_OP_mul, DW_OP_LLVM_arg 1, DW_OP_plus_uconst 2, DW_OP_plus, DW_OP_stack_value] $r8, $sp
	@DEBUG_VALUE: usmart_get_fname:fplcnt <- 0
	@DEBUG_VALUE: usmart_get_fname:temp <- 1
	@DEBUG_VALUE: usmart_get_fname:parmnum <- 0
	@DEBUG_VALUE: usmart_get_fname:offset <- 0
	@DEBUG_VALUE: usmart_get_fname:fover <- 0
	@DEBUG_VALUE: usmart_get_fname:rval <- $r3
	@DEBUG_VALUE: usmart_get_fname:pnum <- $r2
	@DEBUG_VALUE: usmart_get_fname:fname <- $r1
	@DEBUG_VALUE: usmart_get_fname:str <- $r0
	@DEBUG_VALUE: usmart_strcmp:str1 <- [DW_OP_LLVM_arg 0, DW_OP_consts 4, DW_OP_div, DW_OP_consts 4, DW_OP_mul, DW_OP_consts 1, DW_OP_LLVM_arg 1, DW_OP_plus_uconst 2, DW_OP_plus, DW_OP_plus, DW_OP_stack_value] $r8, $sp
	.loc	1 19 13                         @ ../Middlewares/USMART/usmart_str.c:19:13
	add.w	r4, r12, r8
.Ltmp208:
	@DEBUG_VALUE: usmart_strcmp:str2 <- [DW_OP_LLVM_arg 0, DW_OP_consts 4, DW_OP_div, DW_OP_consts 4, DW_OP_mul, DW_OP_consts 1, DW_OP_LLVM_arg 0, DW_OP_plus, DW_OP_plus, DW_OP_stack_value] undef
	.loc	1 14 13                         @ ../Middlewares/USMART/usmart_str.c:14:13
	add.w	r5, lr, r8
	ldrb	r6, [r4, #1]
	.loc	1 14 22 is_stmt 0               @ ../Middlewares/USMART/usmart_str.c:14:22
	ldrb	r7, [r5, #1]
.Ltmp209:
	.loc	1 14 13                         @ ../Middlewares/USMART/usmart_str.c:14:13
	cmp	r6, r7
	bne	.LBB7_21
.Ltmp210:
@ %bb.15:                               @   in Loop: Header=BB7_13 Depth=1
	@DEBUG_VALUE: usmart_strcmp:str1 <- [DW_OP_LLVM_arg 0, DW_OP_consts 4, DW_OP_div, DW_OP_consts 4, DW_OP_mul, DW_OP_consts 1, DW_OP_LLVM_arg 1, DW_OP_plus_uconst 2, DW_OP_plus, DW_OP_plus, DW_OP_stack_value] $r8, $sp
	@DEBUG_VALUE: usmart_get_fname:fplcnt <- 0
	@DEBUG_VALUE: usmart_get_fname:temp <- 1
	@DEBUG_VALUE: usmart_get_fname:parmnum <- 0
	@DEBUG_VALUE: usmart_get_fname:offset <- 0
	@DEBUG_VALUE: usmart_get_fname:fover <- 0
	@DEBUG_VALUE: usmart_get_fname:rval <- $r3
	@DEBUG_VALUE: usmart_get_fname:pnum <- $r2
	@DEBUG_VALUE: usmart_get_fname:fname <- $r1
	@DEBUG_VALUE: usmart_get_fname:str <- $r0
	@DEBUG_VALUE: usmart_strcmp:str1 <- [DW_OP_LLVM_arg 0, DW_OP_consts 4, DW_OP_div, DW_OP_consts 4, DW_OP_mul, DW_OP_consts 1, DW_OP_LLVM_arg 1, DW_OP_plus_uconst 2, DW_OP_plus, DW_OP_plus, DW_OP_stack_value] $r8, $sp
	@DEBUG_VALUE: usmart_strcmp:str2 <- [DW_OP_LLVM_arg 0, DW_OP_consts 4, DW_OP_div, DW_OP_consts 4, DW_OP_mul, DW_OP_consts 1, DW_OP_LLVM_arg 0, DW_OP_plus, DW_OP_plus, DW_OP_stack_value] undef
	.loc	1 16 13 is_stmt 1               @ ../Middlewares/USMART/usmart_str.c:16:13
	cbz	r6, .LBB7_22
.Ltmp211:
@ %bb.16:                               @   in Loop: Header=BB7_13 Depth=1
	@DEBUG_VALUE: usmart_strcmp:str1 <- [DW_OP_LLVM_arg 0, DW_OP_consts 4, DW_OP_div, DW_OP_consts 4, DW_OP_mul, DW_OP_consts 1, DW_OP_LLVM_arg 1, DW_OP_plus_uconst 2, DW_OP_plus, DW_OP_plus, DW_OP_stack_value] $r8, $sp
	@DEBUG_VALUE: usmart_get_fname:fplcnt <- 0
	@DEBUG_VALUE: usmart_get_fname:temp <- 1
	@DEBUG_VALUE: usmart_get_fname:parmnum <- 0
	@DEBUG_VALUE: usmart_get_fname:offset <- 0
	@DEBUG_VALUE: usmart_get_fname:fover <- 0
	@DEBUG_VALUE: usmart_get_fname:rval <- $r3
	@DEBUG_VALUE: usmart_get_fname:pnum <- $r2
	@DEBUG_VALUE: usmart_get_fname:fname <- $r1
	@DEBUG_VALUE: usmart_get_fname:str <- $r0
	@DEBUG_VALUE: usmart_strcmp:str1 <- [DW_OP_LLVM_arg 0, DW_OP_consts 4, DW_OP_div, DW_OP_consts 4, DW_OP_mul, DW_OP_consts 2, DW_OP_LLVM_arg 1, DW_OP_plus_uconst 2, DW_OP_plus, DW_OP_plus, DW_OP_stack_value] $r8, $sp
	@DEBUG_VALUE: usmart_strcmp:str2 <- [DW_OP_LLVM_arg 0, DW_OP_consts 4, DW_OP_div, DW_OP_consts 4, DW_OP_mul, DW_OP_consts 2, DW_OP_LLVM_arg 0, DW_OP_plus, DW_OP_plus, DW_OP_stack_value] undef
	.loc	1 14 13                         @ ../Middlewares/USMART/usmart_str.c:14:13
	ldrb	r6, [r4, #2]
	.loc	1 14 22 is_stmt 0               @ ../Middlewares/USMART/usmart_str.c:14:22
	ldrb	r7, [r5, #2]
.Ltmp212:
	.loc	1 14 13                         @ ../Middlewares/USMART/usmart_str.c:14:13
	cmp	r6, r7
	bne	.LBB7_21
.Ltmp213:
@ %bb.17:                               @   in Loop: Header=BB7_13 Depth=1
	@DEBUG_VALUE: usmart_strcmp:str1 <- [DW_OP_LLVM_arg 0, DW_OP_consts 4, DW_OP_div, DW_OP_consts 4, DW_OP_mul, DW_OP_consts 2, DW_OP_LLVM_arg 1, DW_OP_plus_uconst 2, DW_OP_plus, DW_OP_plus, DW_OP_stack_value] $r8, $sp
	@DEBUG_VALUE: usmart_get_fname:fplcnt <- 0
	@DEBUG_VALUE: usmart_get_fname:temp <- 1
	@DEBUG_VALUE: usmart_get_fname:parmnum <- 0
	@DEBUG_VALUE: usmart_get_fname:offset <- 0
	@DEBUG_VALUE: usmart_get_fname:fover <- 0
	@DEBUG_VALUE: usmart_get_fname:rval <- $r3
	@DEBUG_VALUE: usmart_get_fname:pnum <- $r2
	@DEBUG_VALUE: usmart_get_fname:fname <- $r1
	@DEBUG_VALUE: usmart_get_fname:str <- $r0
	@DEBUG_VALUE: usmart_strcmp:str1 <- [DW_OP_LLVM_arg 0, DW_OP_consts 4, DW_OP_div, DW_OP_consts 4, DW_OP_mul, DW_OP_consts 2, DW_OP_LLVM_arg 1, DW_OP_plus_uconst 2, DW_OP_plus, DW_OP_plus, DW_OP_stack_value] $r8, $sp
	@DEBUG_VALUE: usmart_strcmp:str2 <- [DW_OP_LLVM_arg 0, DW_OP_consts 4, DW_OP_div, DW_OP_consts 4, DW_OP_mul, DW_OP_consts 2, DW_OP_LLVM_arg 0, DW_OP_plus, DW_OP_plus, DW_OP_stack_value] undef
	.loc	1 16 13 is_stmt 1               @ ../Middlewares/USMART/usmart_str.c:16:13
	cbz	r6, .LBB7_22
.Ltmp214:
@ %bb.18:                               @   in Loop: Header=BB7_13 Depth=1
	@DEBUG_VALUE: usmart_strcmp:str1 <- [DW_OP_LLVM_arg 0, DW_OP_consts 4, DW_OP_div, DW_OP_consts 4, DW_OP_mul, DW_OP_consts 2, DW_OP_LLVM_arg 1, DW_OP_plus_uconst 2, DW_OP_plus, DW_OP_plus, DW_OP_stack_value] $r8, $sp
	@DEBUG_VALUE: usmart_get_fname:fplcnt <- 0
	@DEBUG_VALUE: usmart_get_fname:temp <- 1
	@DEBUG_VALUE: usmart_get_fname:parmnum <- 0
	@DEBUG_VALUE: usmart_get_fname:offset <- 0
	@DEBUG_VALUE: usmart_get_fname:fover <- 0
	@DEBUG_VALUE: usmart_get_fname:rval <- $r3
	@DEBUG_VALUE: usmart_get_fname:pnum <- $r2
	@DEBUG_VALUE: usmart_get_fname:fname <- $r1
	@DEBUG_VALUE: usmart_get_fname:str <- $r0
	@DEBUG_VALUE: usmart_strcmp:str1 <- [DW_OP_LLVM_arg 0, DW_OP_consts 4, DW_OP_div, DW_OP_consts 4, DW_OP_mul, DW_OP_consts 3, DW_OP_LLVM_arg 1, DW_OP_plus_uconst 2, DW_OP_plus, DW_OP_plus, DW_OP_stack_value] $r8, $sp
	@DEBUG_VALUE: usmart_strcmp:str2 <- [DW_OP_LLVM_arg 0, DW_OP_consts 4, DW_OP_div, DW_OP_consts 4, DW_OP_mul, DW_OP_consts 3, DW_OP_LLVM_arg 0, DW_OP_plus, DW_OP_plus, DW_OP_stack_value] undef
	.loc	1 14 13                         @ ../Middlewares/USMART/usmart_str.c:14:13
	ldrb	r6, [r4, #3]
	.loc	1 14 22 is_stmt 0               @ ../Middlewares/USMART/usmart_str.c:14:22
	ldrb	r7, [r5, #3]
.Ltmp215:
	.loc	1 14 13                         @ ../Middlewares/USMART/usmart_str.c:14:13
	cmp	r6, r7
	bne	.LBB7_21
.Ltmp216:
@ %bb.19:                               @   in Loop: Header=BB7_13 Depth=1
	@DEBUG_VALUE: usmart_strcmp:str1 <- [DW_OP_LLVM_arg 0, DW_OP_consts 4, DW_OP_div, DW_OP_consts 4, DW_OP_mul, DW_OP_consts 3, DW_OP_LLVM_arg 1, DW_OP_plus_uconst 2, DW_OP_plus, DW_OP_plus, DW_OP_stack_value] $r8, $sp
	@DEBUG_VALUE: usmart_get_fname:fplcnt <- 0
	@DEBUG_VALUE: usmart_get_fname:temp <- 1
	@DEBUG_VALUE: usmart_get_fname:parmnum <- 0
	@DEBUG_VALUE: usmart_get_fname:offset <- 0
	@DEBUG_VALUE: usmart_get_fname:fover <- 0
	@DEBUG_VALUE: usmart_get_fname:rval <- $r3
	@DEBUG_VALUE: usmart_get_fname:pnum <- $r2
	@DEBUG_VALUE: usmart_get_fname:fname <- $r1
	@DEBUG_VALUE: usmart_get_fname:str <- $r0
	@DEBUG_VALUE: usmart_strcmp:str1 <- [DW_OP_LLVM_arg 0, DW_OP_consts 4, DW_OP_div, DW_OP_consts 4, DW_OP_mul, DW_OP_consts 3, DW_OP_LLVM_arg 1, DW_OP_plus_uconst 2, DW_OP_plus, DW_OP_plus, DW_OP_stack_value] $r8, $sp
	@DEBUG_VALUE: usmart_strcmp:str2 <- [DW_OP_LLVM_arg 0, DW_OP_consts 4, DW_OP_div, DW_OP_consts 4, DW_OP_mul, DW_OP_consts 3, DW_OP_LLVM_arg 0, DW_OP_plus, DW_OP_plus, DW_OP_stack_value] undef
	.loc	1 16 13 is_stmt 1               @ ../Middlewares/USMART/usmart_str.c:16:13
	cbz	r6, .LBB7_22
.Ltmp217:
@ %bb.20:                               @   in Loop: Header=BB7_13 Depth=1
	@DEBUG_VALUE: usmart_strcmp:str1 <- [DW_OP_LLVM_arg 0, DW_OP_consts 4, DW_OP_div, DW_OP_consts 4, DW_OP_mul, DW_OP_consts 3, DW_OP_LLVM_arg 1, DW_OP_plus_uconst 2, DW_OP_plus, DW_OP_plus, DW_OP_stack_value] $r8, $sp
	@DEBUG_VALUE: usmart_get_fname:fplcnt <- 0
	@DEBUG_VALUE: usmart_get_fname:temp <- 1
	@DEBUG_VALUE: usmart_get_fname:parmnum <- 0
	@DEBUG_VALUE: usmart_get_fname:offset <- 0
	@DEBUG_VALUE: usmart_get_fname:fover <- 0
	@DEBUG_VALUE: usmart_get_fname:rval <- $r3
	@DEBUG_VALUE: usmart_get_fname:pnum <- $r2
	@DEBUG_VALUE: usmart_get_fname:fname <- $r1
	@DEBUG_VALUE: usmart_get_fname:str <- $r0
	@DEBUG_VALUE: usmart_strcmp:str1 <- [DW_OP_LLVM_arg 0, DW_OP_consts 4, DW_OP_div, DW_OP_consts 4, DW_OP_mul, DW_OP_consts 4, DW_OP_LLVM_arg 1, DW_OP_plus_uconst 2, DW_OP_plus, DW_OP_plus, DW_OP_stack_value] $r8, $sp
	@DEBUG_VALUE: usmart_strcmp:str2 <- [DW_OP_LLVM_arg 0, DW_OP_consts 4, DW_OP_div, DW_OP_consts 4, DW_OP_mul, DW_OP_consts 4, DW_OP_LLVM_arg 0, DW_OP_plus, DW_OP_plus, DW_OP_stack_value] undef
	.loc	1 14 13                         @ ../Middlewares/USMART/usmart_str.c:14:13
	ldrb	r4, [r4, #4]
	.loc	1 14 22 is_stmt 0               @ ../Middlewares/USMART/usmart_str.c:14:22
	ldrb	r5, [r5, #4]
.Ltmp218:
	.loc	1 14 13                         @ ../Middlewares/USMART/usmart_str.c:14:13
	add.w	r8, r8, #4
.Ltmp219:
	cmp	r4, r5
	beq	.LBB7_13
.Ltmp220:
.LBB7_21:
	@DEBUG_VALUE: usmart_get_fname:fplcnt <- 0
	@DEBUG_VALUE: usmart_get_fname:temp <- 1
	@DEBUG_VALUE: usmart_get_fname:parmnum <- 0
	@DEBUG_VALUE: usmart_get_fname:offset <- 0
	@DEBUG_VALUE: usmart_get_fname:fover <- 0
	@DEBUG_VALUE: usmart_get_fname:rval <- $r3
	@DEBUG_VALUE: usmart_get_fname:pnum <- $r2
	@DEBUG_VALUE: usmart_get_fname:fname <- $r1
	@DEBUG_VALUE: usmart_get_fname:str <- $r0
	.loc	1 0 13                          @ ../Middlewares/USMART/usmart_str.c:0:13
	movs	r7, #1
	b	.LBB7_23
.Ltmp221:
.LBB7_22:
	@DEBUG_VALUE: usmart_get_fname:fplcnt <- 0
	@DEBUG_VALUE: usmart_get_fname:temp <- 1
	@DEBUG_VALUE: usmart_get_fname:parmnum <- 0
	@DEBUG_VALUE: usmart_get_fname:offset <- 0
	@DEBUG_VALUE: usmart_get_fname:fover <- 0
	@DEBUG_VALUE: usmart_get_fname:rval <- $r3
	@DEBUG_VALUE: usmart_get_fname:pnum <- $r2
	@DEBUG_VALUE: usmart_get_fname:fname <- $r1
	@DEBUG_VALUE: usmart_get_fname:str <- $r0
	movs	r7, #0
.Ltmp222:
.LBB7_23:
	@DEBUG_VALUE: usmart_get_fname:fplcnt <- 0
	@DEBUG_VALUE: usmart_get_fname:temp <- 1
	@DEBUG_VALUE: usmart_get_fname:parmnum <- 0
	@DEBUG_VALUE: usmart_get_fname:offset <- 0
	@DEBUG_VALUE: usmart_get_fname:fover <- 0
	@DEBUG_VALUE: usmart_get_fname:rval <- $r3
	@DEBUG_VALUE: usmart_get_fname:pnum <- $r2
	@DEBUG_VALUE: usmart_get_fname:fname <- $r1
	@DEBUG_VALUE: usmart_get_fname:str <- $r0
	strb	r7, [r3]
.Ltmp223:
	@DEBUG_VALUE: usmart_get_fname:pcnt <- 0
.LBB7_24:
	@DEBUG_VALUE: usmart_get_fname:fplcnt <- 0
	@DEBUG_VALUE: usmart_get_fname:temp <- 1
	@DEBUG_VALUE: usmart_get_fname:parmnum <- 0
	@DEBUG_VALUE: usmart_get_fname:offset <- 0
	@DEBUG_VALUE: usmart_get_fname:fover <- 0
	@DEBUG_VALUE: usmart_get_fname:rval <- $r3
	@DEBUG_VALUE: usmart_get_fname:pnum <- $r2
	@DEBUG_VALUE: usmart_get_fname:fname <- $r1
	@DEBUG_VALUE: usmart_get_fname:str <- $r0
	@DEBUG_VALUE: usmart_get_fname:pcnt <- 0
	@DEBUG_VALUE: usmart_get_fname:strtemp <- $r0
	@DEBUG_VALUE: usmart_get_fname:res <- 0
	.loc	1 282 12 is_stmt 1              @ ../Middlewares/USMART/usmart_str.c:282:12
	ldrb	r5, [r0]
	movs	r3, #0
.Ltmp224:
	@DEBUG_VALUE: usmart_get_fname:rval <- [DW_OP_LLVM_entry_value 1] $r3
	.loc	1 0 12 is_stmt 0                @ ../Middlewares/USMART/usmart_str.c:0:12
	mov	r6, r0
	mov.w	lr, #0
.Ltmp225:
.LBB7_25:                               @ =>This Loop Header: Depth=1
                                        @     Child Loop BB7_26 Depth 2
                                        @     Child Loop BB7_30 Depth 2
	@DEBUG_VALUE: usmart_get_fname:rval <- [DW_OP_LLVM_entry_value 1] $r3
	@DEBUG_VALUE: usmart_get_fname:fplcnt <- 0
	@DEBUG_VALUE: usmart_get_fname:pcnt <- 0
	@DEBUG_VALUE: usmart_get_fname:temp <- 1
	@DEBUG_VALUE: usmart_get_fname:parmnum <- 0
	@DEBUG_VALUE: usmart_get_fname:fover <- 0
	@DEBUG_VALUE: usmart_get_fname:pnum <- $r2
	@DEBUG_VALUE: usmart_get_fname:fname <- $r1
	@DEBUG_VALUE: usmart_get_fname:str <- $r0
	.loc	1 282 5                         @ ../Middlewares/USMART/usmart_str.c:282:5
	adds	r7, r6, #3
.Ltmp226:
	.p2align	2
.LBB7_26:                               @   Parent Loop BB7_25 Depth=1
                                        @ =>  This Inner Loop Header: Depth=2
	@DEBUG_VALUE: usmart_get_fname:rval <- [DW_OP_LLVM_entry_value 1] $r3
	@DEBUG_VALUE: usmart_get_fname:fplcnt <- 0
	@DEBUG_VALUE: usmart_get_fname:pcnt <- 0
	@DEBUG_VALUE: usmart_get_fname:temp <- 1
	@DEBUG_VALUE: usmart_get_fname:parmnum <- 0
	@DEBUG_VALUE: usmart_get_fname:fover <- 0
	@DEBUG_VALUE: usmart_get_fname:pnum <- $r2
	@DEBUG_VALUE: usmart_get_fname:fname <- $r1
	@DEBUG_VALUE: usmart_get_fname:str <- $r0
	.loc	1 282 28                        @ ../Middlewares/USMART/usmart_str.c:282:28
	uxtb	r5, r5
.Ltmp227:
	@DEBUG_VALUE: usmart_get_fname:res <- $r3
	@DEBUG_VALUE: usmart_get_fname:strtemp <- $r6
	@DEBUG_VALUE: usmart_get_fname:offset <- $lr
	cbz	r5, .LBB7_35
.Ltmp228:
@ %bb.27:                               @   in Loop: Header=BB7_26 Depth=2
	@DEBUG_VALUE: usmart_get_fname:offset <- $lr
	@DEBUG_VALUE: usmart_get_fname:res <- $r3
	@DEBUG_VALUE: usmart_get_fname:rval <- [DW_OP_LLVM_entry_value 1] $r3
	@DEBUG_VALUE: usmart_get_fname:strtemp <- $r6
	@DEBUG_VALUE: usmart_get_fname:fplcnt <- 0
	@DEBUG_VALUE: usmart_get_fname:pcnt <- 0
	@DEBUG_VALUE: usmart_get_fname:temp <- 1
	@DEBUG_VALUE: usmart_get_fname:parmnum <- 0
	@DEBUG_VALUE: usmart_get_fname:fover <- 0
	@DEBUG_VALUE: usmart_get_fname:pnum <- $r2
	@DEBUG_VALUE: usmart_get_fname:fname <- $r1
	@DEBUG_VALUE: usmart_get_fname:str <- $r0
	cmp	r5, #40
	beq	.LBB7_35
.Ltmp229:
@ %bb.28:                               @   in Loop: Header=BB7_26 Depth=2
	@DEBUG_VALUE: usmart_get_fname:offset <- $lr
	@DEBUG_VALUE: usmart_get_fname:res <- $r3
	@DEBUG_VALUE: usmart_get_fname:rval <- [DW_OP_LLVM_entry_value 1] $r3
	@DEBUG_VALUE: usmart_get_fname:strtemp <- $r6
	@DEBUG_VALUE: usmart_get_fname:fplcnt <- 0
	@DEBUG_VALUE: usmart_get_fname:pcnt <- 0
	@DEBUG_VALUE: usmart_get_fname:temp <- 1
	@DEBUG_VALUE: usmart_get_fname:parmnum <- 0
	@DEBUG_VALUE: usmart_get_fname:fover <- 0
	@DEBUG_VALUE: usmart_get_fname:pnum <- $r2
	@DEBUG_VALUE: usmart_get_fname:fname <- $r1
	@DEBUG_VALUE: usmart_get_fname:str <- $r0
	.loc	1 287 13 is_stmt 1              @ ../Middlewares/USMART/usmart_str.c:287:13
	ldrb	r5, [r6, #1]!
.Ltmp230:
	@DEBUG_VALUE: usmart_get_fname:strtemp <- $r6
	.loc	1 0 0 is_stmt 0                 @ ../Middlewares/USMART/usmart_str.c:0:0
	mov	r4, r7
.Ltmp231:
	.loc	1 287 29                        @ ../Middlewares/USMART/usmart_str.c:287:29
	cmp	r5, #42
.Ltmp232:
	.loc	1 285 12 is_stmt 1              @ ../Middlewares/USMART/usmart_str.c:285:12
	add.w	r3, r3, #1
.Ltmp233:
	@DEBUG_VALUE: usmart_get_fname:res <- $r3
	.loc	1 287 29                        @ ../Middlewares/USMART/usmart_str.c:287:29
	beq	.LBB7_30
.Ltmp234:
@ %bb.29:                               @   in Loop: Header=BB7_26 Depth=2
	@DEBUG_VALUE: usmart_get_fname:offset <- $lr
	@DEBUG_VALUE: usmart_get_fname:res <- $r3
	@DEBUG_VALUE: usmart_get_fname:rval <- [DW_OP_LLVM_entry_value 1] $r3
	@DEBUG_VALUE: usmart_get_fname:strtemp <- $r6
	@DEBUG_VALUE: usmart_get_fname:fplcnt <- 0
	@DEBUG_VALUE: usmart_get_fname:pcnt <- 0
	@DEBUG_VALUE: usmart_get_fname:temp <- 1
	@DEBUG_VALUE: usmart_get_fname:parmnum <- 0
	@DEBUG_VALUE: usmart_get_fname:fover <- 0
	@DEBUG_VALUE: usmart_get_fname:pnum <- $r2
	@DEBUG_VALUE: usmart_get_fname:fname <- $r1
	@DEBUG_VALUE: usmart_get_fname:str <- $r0
	cmp	r5, #32
	add.w	r7, r4, #1
	bne	.LBB7_26
.Ltmp235:
	.p2align	2
.LBB7_30:                               @   Parent Loop BB7_25 Depth=1
                                        @ =>  This Inner Loop Header: Depth=2
	@DEBUG_VALUE: usmart_get_fname:offset <- $lr
	@DEBUG_VALUE: usmart_get_fname:res <- $r3
	@DEBUG_VALUE: usmart_get_fname:rval <- [DW_OP_LLVM_entry_value 1] $r3
	@DEBUG_VALUE: usmart_get_fname:strtemp <- $r6
	@DEBUG_VALUE: usmart_get_fname:fplcnt <- 0
	@DEBUG_VALUE: usmart_get_fname:pcnt <- 0
	@DEBUG_VALUE: usmart_get_fname:temp <- 1
	@DEBUG_VALUE: usmart_get_fname:parmnum <- 0
	@DEBUG_VALUE: usmart_get_fname:fover <- 0
	@DEBUG_VALUE: usmart_get_fname:pnum <- $r2
	@DEBUG_VALUE: usmart_get_fname:fname <- $r1
	@DEBUG_VALUE: usmart_get_fname:str <- $r0
	@DEBUG_VALUE: usmart_search_nextc:str <- undef
	.loc	1 216 12                        @ ../Middlewares/USMART/usmart_str.c:216:12
	ldrb	r7, [r4, #-1]
	.loc	1 216 5 is_stmt 0               @ ../Middlewares/USMART/usmart_str.c:216:5
	cmp	r7, #32
	bne	.LBB7_34
.Ltmp236:
@ %bb.31:                               @   in Loop: Header=BB7_30 Depth=2
	@DEBUG_VALUE: usmart_get_fname:offset <- $lr
	@DEBUG_VALUE: usmart_get_fname:res <- $r3
	@DEBUG_VALUE: usmart_get_fname:rval <- [DW_OP_LLVM_entry_value 1] $r3
	@DEBUG_VALUE: usmart_get_fname:strtemp <- $r6
	@DEBUG_VALUE: usmart_get_fname:fplcnt <- 0
	@DEBUG_VALUE: usmart_get_fname:pcnt <- 0
	@DEBUG_VALUE: usmart_get_fname:temp <- 1
	@DEBUG_VALUE: usmart_get_fname:parmnum <- 0
	@DEBUG_VALUE: usmart_get_fname:fover <- 0
	@DEBUG_VALUE: usmart_get_fname:pnum <- $r2
	@DEBUG_VALUE: usmart_get_fname:fname <- $r1
	@DEBUG_VALUE: usmart_get_fname:str <- $r0
	@DEBUG_VALUE: usmart_search_nextc:str <- undef
	.loc	1 216 12                        @ ../Middlewares/USMART/usmart_str.c:216:12
	ldrb	r7, [r4]
	.loc	1 216 5                         @ ../Middlewares/USMART/usmart_str.c:216:5
	cmp	r7, #32
	bne	.LBB7_34
.Ltmp237:
@ %bb.32:                               @   in Loop: Header=BB7_30 Depth=2
	@DEBUG_VALUE: usmart_get_fname:offset <- $lr
	@DEBUG_VALUE: usmart_get_fname:res <- $r3
	@DEBUG_VALUE: usmart_get_fname:rval <- [DW_OP_LLVM_entry_value 1] $r3
	@DEBUG_VALUE: usmart_get_fname:strtemp <- $r6
	@DEBUG_VALUE: usmart_get_fname:fplcnt <- 0
	@DEBUG_VALUE: usmart_get_fname:pcnt <- 0
	@DEBUG_VALUE: usmart_get_fname:temp <- 1
	@DEBUG_VALUE: usmart_get_fname:parmnum <- 0
	@DEBUG_VALUE: usmart_get_fname:fover <- 0
	@DEBUG_VALUE: usmart_get_fname:pnum <- $r2
	@DEBUG_VALUE: usmart_get_fname:fname <- $r1
	@DEBUG_VALUE: usmart_get_fname:str <- $r0
	@DEBUG_VALUE: usmart_search_nextc:str <- undef
	.loc	1 216 12                        @ ../Middlewares/USMART/usmart_str.c:216:12
	ldrb	r7, [r4, #1]
	.loc	1 216 5                         @ ../Middlewares/USMART/usmart_str.c:216:5
	cmp	r7, #32
	bne	.LBB7_34
.Ltmp238:
@ %bb.33:                               @   in Loop: Header=BB7_30 Depth=2
	@DEBUG_VALUE: usmart_get_fname:offset <- $lr
	@DEBUG_VALUE: usmart_get_fname:res <- $r3
	@DEBUG_VALUE: usmart_get_fname:rval <- [DW_OP_LLVM_entry_value 1] $r3
	@DEBUG_VALUE: usmart_get_fname:strtemp <- $r6
	@DEBUG_VALUE: usmart_get_fname:fplcnt <- 0
	@DEBUG_VALUE: usmart_get_fname:pcnt <- 0
	@DEBUG_VALUE: usmart_get_fname:temp <- 1
	@DEBUG_VALUE: usmart_get_fname:parmnum <- 0
	@DEBUG_VALUE: usmart_get_fname:fover <- 0
	@DEBUG_VALUE: usmart_get_fname:pnum <- $r2
	@DEBUG_VALUE: usmart_get_fname:fname <- $r1
	@DEBUG_VALUE: usmart_get_fname:str <- $r0
	@DEBUG_VALUE: usmart_search_nextc:str <- undef
	.loc	1 216 12                        @ ../Middlewares/USMART/usmart_str.c:216:12
	ldrb	r7, [r4, #2]
	.loc	1 216 5                         @ ../Middlewares/USMART/usmart_str.c:216:5
	adds	r4, #4
	cmp	r7, #32
	beq	.LBB7_30
.Ltmp239:
.LBB7_34:                               @   in Loop: Header=BB7_25 Depth=1
	@DEBUG_VALUE: usmart_get_fname:offset <- $lr
	@DEBUG_VALUE: usmart_get_fname:res <- $r3
	@DEBUG_VALUE: usmart_get_fname:rval <- [DW_OP_LLVM_entry_value 1] $r3
	@DEBUG_VALUE: usmart_get_fname:strtemp <- $r6
	@DEBUG_VALUE: usmart_get_fname:fplcnt <- 0
	@DEBUG_VALUE: usmart_get_fname:pcnt <- 0
	@DEBUG_VALUE: usmart_get_fname:temp <- 1
	@DEBUG_VALUE: usmart_get_fname:parmnum <- 0
	@DEBUG_VALUE: usmart_get_fname:fover <- 0
	@DEBUG_VALUE: usmart_get_fname:pnum <- $r2
	@DEBUG_VALUE: usmart_get_fname:fname <- $r1
	@DEBUG_VALUE: usmart_get_fname:str <- $r0
	@DEBUG_VALUE: usmart_get_fname:nchar <- $r7
	.loc	1 291 30 is_stmt 1              @ ../Middlewares/USMART/usmart_str.c:291:30
	and	r4, r7, #253
	cmp	r4, #40
	it	ne
	movne	lr, r3
.Ltmp240:
	.loc	1 0 30 is_stmt 0                @ ../Middlewares/USMART/usmart_str.c:0:30
	b	.LBB7_25
.Ltmp241:
.LBB7_35:
	@DEBUG_VALUE: usmart_get_fname:offset <- $lr
	@DEBUG_VALUE: usmart_get_fname:res <- $r3
	@DEBUG_VALUE: usmart_get_fname:rval <- [DW_OP_LLVM_entry_value 1] $r3
	@DEBUG_VALUE: usmart_get_fname:strtemp <- $r6
	@DEBUG_VALUE: usmart_get_fname:fplcnt <- 0
	@DEBUG_VALUE: usmart_get_fname:pcnt <- 0
	@DEBUG_VALUE: usmart_get_fname:temp <- 1
	@DEBUG_VALUE: usmart_get_fname:parmnum <- 0
	@DEBUG_VALUE: usmart_get_fname:fover <- 0
	@DEBUG_VALUE: usmart_get_fname:pnum <- $r2
	@DEBUG_VALUE: usmart_get_fname:fname <- $r1
	@DEBUG_VALUE: usmart_get_fname:str <- $r0
	@DEBUG_VALUE: usmart_get_fname:strtemp <- $r0
	.loc	1 297 9 is_stmt 1               @ ../Middlewares/USMART/usmart_str.c:297:9
	uxtb.w	r4, lr
	mov.w	r8, #1
.Ltmp242:
	.loc	1 297 9 is_stmt 0               @ ../Middlewares/USMART/usmart_str.c:297:9
	cmp	r4, #0
	it	ne
	uxtabne	r4, r8, lr
.Ltmp243:
	@DEBUG_VALUE: usmart_get_fname:nchar <- 0
	@DEBUG_VALUE: usmart_get_fname:res <- 0
	@DEBUG_VALUE: usmart_get_fname:strtemp <- undef
	@DEBUG_VALUE: usmart_get_fname:pcnt <- 0
	@DEBUG_VALUE: usmart_get_fname:fplcnt <- 0
	@DEBUG_VALUE: usmart_get_fname:temp <- 1
	@DEBUG_VALUE: usmart_get_fname:parmnum <- 0
	@DEBUG_VALUE: usmart_get_fname:fover <- 0
	.loc	1 304 13 is_stmt 1              @ ../Middlewares/USMART/usmart_str.c:304:13
	ldrb	r3, [r0, r4]
	mov.w	r9, #0
.Ltmp244:
	.loc	1 304 13 is_stmt 0              @ ../Middlewares/USMART/usmart_str.c:304:13
	cmp	r3, #0
.Ltmp245:
	@DEBUG_VALUE: usmart_get_fname:fname <- undef
	beq.w	.LBB7_66
.Ltmp246:
@ %bb.36:
	@DEBUG_VALUE: usmart_get_fname:nchar <- 0
	@DEBUG_VALUE: usmart_get_fname:offset <- $lr
	@DEBUG_VALUE: usmart_get_fname:rval <- [DW_OP_LLVM_entry_value 1] $r3
	@DEBUG_VALUE: usmart_get_fname:res <- 0
	@DEBUG_VALUE: usmart_get_fname:fplcnt <- 0
	@DEBUG_VALUE: usmart_get_fname:pcnt <- 0
	@DEBUG_VALUE: usmart_get_fname:temp <- 1
	@DEBUG_VALUE: usmart_get_fname:parmnum <- 0
	@DEBUG_VALUE: usmart_get_fname:fover <- 0
	@DEBUG_VALUE: usmart_get_fname:pnum <- $r2
	@DEBUG_VALUE: usmart_get_fname:str <- $r0
	.loc	1 302 5 is_stmt 1               @ ../Middlewares/USMART/usmart_str.c:302:5
	add	r0, r4
.Ltmp247:
	@DEBUG_VALUE: usmart_get_fname:str <- [DW_OP_LLVM_entry_value 1] $r0
	@DEBUG_VALUE: usmart_get_fname:str <- [DW_OP_LLVM_entry_value 1] $r0
	adds	r6, r0, #1
	movs	r7, #0
	mov.w	r9, #0
	mov.w	r10, #0
	movs	r5, #1
	mov.w	r12, #0
	movs	r4, #0
	mov.w	r11, #0
	b	.LBB7_40
.Ltmp248:
.LBB7_37:                               @   in Loop: Header=BB7_40 Depth=1
	@DEBUG_VALUE: usmart_get_fname:res <- $r11
	@DEBUG_VALUE: usmart_get_fname:pcnt <- $r9
	@DEBUG_VALUE: usmart_get_fname:fplcnt <- $r10
	@DEBUG_VALUE: usmart_get_fname:temp <- $r5
	@DEBUG_VALUE: usmart_get_fname:parmnum <- $r12
	@DEBUG_VALUE: usmart_get_fname:str <- [DW_OP_LLVM_entry_value 1] $r0
	@DEBUG_VALUE: usmart_get_fname:rval <- [DW_OP_LLVM_entry_value 1] $r3
	@DEBUG_VALUE: usmart_get_fname:pnum <- $r2
	@DEBUG_VALUE: usmart_get_fname:fname <- $r1
	@DEBUG_VALUE: usmart_get_fname:fplcnt <- $r10
	.loc	1 354 21                        @ ../Middlewares/USMART/usmart_str.c:354:21
	adds	r5, #1
.Ltmp249:
	@DEBUG_VALUE: usmart_get_fname:temp <- $r5
.LBB7_38:                               @   in Loop: Header=BB7_40 Depth=1
	@DEBUG_VALUE: usmart_get_fname:res <- $r11
	@DEBUG_VALUE: usmart_get_fname:pcnt <- $r9
	@DEBUG_VALUE: usmart_get_fname:fplcnt <- $r10
	@DEBUG_VALUE: usmart_get_fname:temp <- $r5
	@DEBUG_VALUE: usmart_get_fname:parmnum <- $r12
	@DEBUG_VALUE: usmart_get_fname:str <- [DW_OP_LLVM_entry_value 1] $r0
	@DEBUG_VALUE: usmart_get_fname:rval <- [DW_OP_LLVM_entry_value 1] $r3
	@DEBUG_VALUE: usmart_get_fname:pnum <- $r2
	@DEBUG_VALUE: usmart_get_fname:fname <- $r1
	@DEBUG_VALUE: usmart_get_fname:temp <- $r5
	@DEBUG_VALUE: usmart_get_fname:fplcnt <- $r10
	@DEBUG_VALUE: usmart_get_fname:pcnt <- $r9
	.loc	1 357 23                        @ ../Middlewares/USMART/usmart_str.c:357:23
	eor	r0, r4, #1
	eor	r3, r5, #2
	.loc	1 357 28 is_stmt 0              @ ../Middlewares/USMART/usmart_str.c:357:28
	orrs	r0, r3
	uxtb	r0, r0
	clz	r3, r0
	lsrs	r3, r3, #5
	add	r12, r3
.Ltmp250:
	cmp	r0, #0
	it	eq
	moveq	r5, #3
.Ltmp251:
.LBB7_39:                               @   in Loop: Header=BB7_40 Depth=1
	@DEBUG_VALUE: usmart_get_fname:res <- $r11
	@DEBUG_VALUE: usmart_get_fname:pcnt <- $r9
	@DEBUG_VALUE: usmart_get_fname:fplcnt <- $r10
	@DEBUG_VALUE: usmart_get_fname:str <- [DW_OP_LLVM_entry_value 1] $r0
	@DEBUG_VALUE: usmart_get_fname:rval <- [DW_OP_LLVM_entry_value 1] $r3
	@DEBUG_VALUE: usmart_get_fname:pnum <- $r2
	@DEBUG_VALUE: usmart_get_fname:fname <- $r1
	@DEBUG_VALUE: usmart_get_fname:fname <- $r1
	@DEBUG_VALUE: usmart_get_fname:fover <- $r4
	@DEBUG_VALUE: usmart_get_fname:parmnum <- $r12
	@DEBUG_VALUE: usmart_get_fname:temp <- $r5
	@DEBUG_VALUE: usmart_get_fname:fplcnt <- $r10
	@DEBUG_VALUE: usmart_get_fname:pcnt <- $r9
	@DEBUG_VALUE: usmart_get_fname:strtemp <- $r6
	@DEBUG_VALUE: usmart_get_fname:res <- $r11
	@DEBUG_VALUE: usmart_get_fname:nchar <- $r7
	.loc	1 304 13 is_stmt 1              @ ../Middlewares/USMART/usmart_str.c:304:13
	ldrb	r3, [r6], #1
.Ltmp252:
	.loc	1 304 13 is_stmt 0              @ ../Middlewares/USMART/usmart_str.c:304:13
	cmp	r3, #0
	beq	.LBB7_54
.Ltmp253:
.LBB7_40:                               @ =>This Inner Loop Header: Depth=1
	@DEBUG_VALUE: usmart_get_fname:str <- [DW_OP_LLVM_entry_value 1] $r0
	@DEBUG_VALUE: usmart_get_fname:rval <- [DW_OP_LLVM_entry_value 1] $r3
	@DEBUG_VALUE: usmart_get_fname:pnum <- $r2
	@DEBUG_VALUE: usmart_get_fname:fname <- $r1
	@DEBUG_VALUE: usmart_get_fname:fover <- $r4
	@DEBUG_VALUE: usmart_get_fname:parmnum <- $r12
	@DEBUG_VALUE: usmart_get_fname:temp <- $r5
	@DEBUG_VALUE: usmart_get_fname:fplcnt <- $r10
	@DEBUG_VALUE: usmart_get_fname:pcnt <- $r9
	@DEBUG_VALUE: usmart_get_fname:strtemp <- [DW_OP_LLVM_arg 0, DW_OP_consts 1, DW_OP_LLVM_arg 0, DW_OP_plus, DW_OP_LLVM_arg 0, DW_OP_plus, DW_OP_minus, DW_OP_LLVM_arg 0, DW_OP_LLVM_arg 0, DW_OP_plus, DW_OP_plus, DW_OP_stack_value] undef
	@DEBUG_VALUE: usmart_get_fname:res <- $r11
	@DEBUG_VALUE: usmart_get_fname:nchar <- $r7
	.loc	1 309 34 is_stmt 1              @ ../Middlewares/USMART/usmart_str.c:309:34
	cmp	r3, #40
	it	eq
	lslseq.w	lr, r7, #24
	beq	.LBB7_46
.Ltmp254:
@ %bb.41:                               @   in Loop: Header=BB7_40 Depth=1
	@DEBUG_VALUE: usmart_get_fname:res <- $r11
	@DEBUG_VALUE: usmart_get_fname:pcnt <- $r9
	@DEBUG_VALUE: usmart_get_fname:fplcnt <- $r10
	@DEBUG_VALUE: usmart_get_fname:temp <- $r5
	@DEBUG_VALUE: usmart_get_fname:parmnum <- $r12
	@DEBUG_VALUE: usmart_get_fname:fover <- $r4
	@DEBUG_VALUE: usmart_get_fname:str <- [DW_OP_LLVM_entry_value 1] $r0
	@DEBUG_VALUE: usmart_get_fname:nchar <- $r7
	@DEBUG_VALUE: usmart_get_fname:rval <- [DW_OP_LLVM_entry_value 1] $r3
	@DEBUG_VALUE: usmart_get_fname:pnum <- $r2
	@DEBUG_VALUE: usmart_get_fname:fname <- $r1
	.loc	1 313 34                        @ ../Middlewares/USMART/usmart_str.c:313:34
	cmp	r3, #41
	it	eq
	lslseq.w	r0, r7, #24
	beq	.LBB7_47
.Ltmp255:
@ %bb.42:                               @   in Loop: Header=BB7_40 Depth=1
	@DEBUG_VALUE: usmart_get_fname:res <- $r11
	@DEBUG_VALUE: usmart_get_fname:pcnt <- $r9
	@DEBUG_VALUE: usmart_get_fname:fplcnt <- $r10
	@DEBUG_VALUE: usmart_get_fname:temp <- $r5
	@DEBUG_VALUE: usmart_get_fname:parmnum <- $r12
	@DEBUG_VALUE: usmart_get_fname:fover <- $r4
	@DEBUG_VALUE: usmart_get_fname:str <- [DW_OP_LLVM_entry_value 1] $r0
	@DEBUG_VALUE: usmart_get_fname:nchar <- $r7
	@DEBUG_VALUE: usmart_get_fname:rval <- [DW_OP_LLVM_entry_value 1] $r3
	@DEBUG_VALUE: usmart_get_fname:pnum <- $r2
	@DEBUG_VALUE: usmart_get_fname:fname <- $r1
	.loc	1 0 34 is_stmt 0                @ ../Middlewares/USMART/usmart_str.c:0:34
	uxtb	r0, r7
	clz	r0, r0
	.loc	1 326 18 is_stmt 1              @ ../Middlewares/USMART/usmart_str.c:326:18
	cmp	r3, #34
	it	eq
	lsreq	r7, r0, #5
.Ltmp256:
	@DEBUG_VALUE: usmart_get_fname:nchar <- $r7
	@DEBUG_VALUE: usmart_get_fname:res <- $r11
	@DEBUG_VALUE: usmart_get_fname:fover <- $r4
	.loc	1 331 13                        @ ../Middlewares/USMART/usmart_str.c:331:13
	lsls	r0, r4, #24
	beq	.LBB7_51
.Ltmp257:
@ %bb.43:                               @   in Loop: Header=BB7_40 Depth=1
	@DEBUG_VALUE: usmart_get_fname:res <- $r11
	@DEBUG_VALUE: usmart_get_fname:pcnt <- $r9
	@DEBUG_VALUE: usmart_get_fname:fplcnt <- $r10
	@DEBUG_VALUE: usmart_get_fname:temp <- $r5
	@DEBUG_VALUE: usmart_get_fname:parmnum <- $r12
	@DEBUG_VALUE: usmart_get_fname:fover <- $r4
	@DEBUG_VALUE: usmart_get_fname:str <- [DW_OP_LLVM_entry_value 1] $r0
	@DEBUG_VALUE: usmart_get_fname:nchar <- $r7
	@DEBUG_VALUE: usmart_get_fname:rval <- [DW_OP_LLVM_entry_value 1] $r3
	@DEBUG_VALUE: usmart_get_fname:pnum <- $r2
	@DEBUG_VALUE: usmart_get_fname:fname <- $r1
	.loc	1 341 17                        @ ../Middlewares/USMART/usmart_str.c:341:17
	cmp	r3, #32
	it	ne
	cmpne	r3, #40
	beq	.LBB7_38
.Ltmp258:
@ %bb.44:                               @   in Loop: Header=BB7_40 Depth=1
	@DEBUG_VALUE: usmart_get_fname:res <- $r11
	@DEBUG_VALUE: usmart_get_fname:pcnt <- $r9
	@DEBUG_VALUE: usmart_get_fname:fplcnt <- $r10
	@DEBUG_VALUE: usmart_get_fname:temp <- $r5
	@DEBUG_VALUE: usmart_get_fname:parmnum <- $r12
	@DEBUG_VALUE: usmart_get_fname:fover <- $r4
	@DEBUG_VALUE: usmart_get_fname:str <- [DW_OP_LLVM_entry_value 1] $r0
	@DEBUG_VALUE: usmart_get_fname:nchar <- $r7
	@DEBUG_VALUE: usmart_get_fname:rval <- [DW_OP_LLVM_entry_value 1] $r3
	@DEBUG_VALUE: usmart_get_fname:pnum <- $r2
	@DEBUG_VALUE: usmart_get_fname:fname <- $r1
	cmp	r3, #44
	bne	.LBB7_49
.Ltmp259:
@ %bb.45:                               @   in Loop: Header=BB7_40 Depth=1
	@DEBUG_VALUE: usmart_get_fname:res <- $r11
	@DEBUG_VALUE: usmart_get_fname:pcnt <- $r9
	@DEBUG_VALUE: usmart_get_fname:fplcnt <- $r10
	@DEBUG_VALUE: usmart_get_fname:temp <- $r5
	@DEBUG_VALUE: usmart_get_fname:parmnum <- $r12
	@DEBUG_VALUE: usmart_get_fname:fover <- $r4
	@DEBUG_VALUE: usmart_get_fname:str <- [DW_OP_LLVM_entry_value 1] $r0
	@DEBUG_VALUE: usmart_get_fname:nchar <- $r7
	@DEBUG_VALUE: usmart_get_fname:rval <- [DW_OP_LLVM_entry_value 1] $r3
	@DEBUG_VALUE: usmart_get_fname:pnum <- $r2
	@DEBUG_VALUE: usmart_get_fname:fname <- $r1
	@DEBUG_VALUE: usmart_get_fname:temp <- 1
	.loc	1 344 21                        @ ../Middlewares/USMART/usmart_str.c:344:21
	add.w	r9, r9, #1
.Ltmp260:
	.loc	1 0 21 is_stmt 0                @ ../Middlewares/USMART/usmart_str.c:0:21
	movs	r5, #1
.Ltmp261:
	@DEBUG_VALUE: usmart_get_fname:pcnt <- $r9
	b	.LBB7_39
.Ltmp262:
	.p2align	2
.LBB7_46:                               @   in Loop: Header=BB7_40 Depth=1
	@DEBUG_VALUE: usmart_get_fname:res <- $r11
	@DEBUG_VALUE: usmart_get_fname:pcnt <- $r9
	@DEBUG_VALUE: usmart_get_fname:fplcnt <- $r10
	@DEBUG_VALUE: usmart_get_fname:temp <- $r5
	@DEBUG_VALUE: usmart_get_fname:parmnum <- $r12
	@DEBUG_VALUE: usmart_get_fname:fover <- $r4
	@DEBUG_VALUE: usmart_get_fname:str <- [DW_OP_LLVM_entry_value 1] $r0
	@DEBUG_VALUE: usmart_get_fname:nchar <- $r7
	@DEBUG_VALUE: usmart_get_fname:rval <- [DW_OP_LLVM_entry_value 1] $r3
	@DEBUG_VALUE: usmart_get_fname:pnum <- $r2
	@DEBUG_VALUE: usmart_get_fname:fname <- $r1
	.loc	1 311 18 is_stmt 1              @ ../Middlewares/USMART/usmart_str.c:311:18
	uxtab	r4, r8, r4
.Ltmp263:
	uxtb	r0, r4
.Ltmp264:
	.loc	1 331 13                        @ ../Middlewares/USMART/usmart_str.c:331:13
	cmp	r0, r4
	mov.w	r7, #0
.Ltmp265:
	@DEBUG_VALUE: usmart_get_fname:res <- $r11
	@DEBUG_VALUE: usmart_get_fname:fover <- $r4
	beq	.LBB7_38
	b	.LBB7_53
.Ltmp266:
.LBB7_47:                               @   in Loop: Header=BB7_40 Depth=1
	@DEBUG_VALUE: usmart_get_fname:res <- $r11
	@DEBUG_VALUE: usmart_get_fname:pcnt <- $r9
	@DEBUG_VALUE: usmart_get_fname:fplcnt <- $r10
	@DEBUG_VALUE: usmart_get_fname:temp <- $r5
	@DEBUG_VALUE: usmart_get_fname:parmnum <- $r12
	@DEBUG_VALUE: usmart_get_fname:fover <- $r4
	@DEBUG_VALUE: usmart_get_fname:str <- [DW_OP_LLVM_entry_value 1] $r0
	@DEBUG_VALUE: usmart_get_fname:nchar <- $r7
	@DEBUG_VALUE: usmart_get_fname:rval <- [DW_OP_LLVM_entry_value 1] $r3
	@DEBUG_VALUE: usmart_get_fname:pnum <- $r2
	@DEBUG_VALUE: usmart_get_fname:fname <- $r1
	.loc	1 315 17                        @ ../Middlewares/USMART/usmart_str.c:315:17
	uxtb	r0, r4
.Ltmp267:
	.loc	1 315 17 is_stmt 0              @ ../Middlewares/USMART/usmart_str.c:315:17
	cmp	r0, #0
	it	eq
	moveq.w	r11, #1
.Ltmp268:
	@DEBUG_VALUE: usmart_get_fname:res <- $r11
	@DEBUG_VALUE: usmart_get_fname:fover <- undef
	.loc	1 324 17 is_stmt 1              @ ../Middlewares/USMART/usmart_str.c:324:17
	cmp	r0, #2
	blo	.LBB7_55
.Ltmp269:
@ %bb.48:                               @   in Loop: Header=BB7_40 Depth=1
	@DEBUG_VALUE: usmart_get_fname:res <- $r11
	@DEBUG_VALUE: usmart_get_fname:pcnt <- $r9
	@DEBUG_VALUE: usmart_get_fname:fplcnt <- $r10
	@DEBUG_VALUE: usmart_get_fname:temp <- $r5
	@DEBUG_VALUE: usmart_get_fname:parmnum <- $r12
	@DEBUG_VALUE: usmart_get_fname:str <- [DW_OP_LLVM_entry_value 1] $r0
	@DEBUG_VALUE: usmart_get_fname:nchar <- $r7
	@DEBUG_VALUE: usmart_get_fname:rval <- [DW_OP_LLVM_entry_value 1] $r3
	@DEBUG_VALUE: usmart_get_fname:pnum <- $r2
	@DEBUG_VALUE: usmart_get_fname:fname <- $r1
	.loc	1 0 17 is_stmt 0                @ ../Middlewares/USMART/usmart_str.c:0:17
	subs	r4, #1
	movs	r7, #0
.Ltmp270:
.LBB7_49:                               @   in Loop: Header=BB7_40 Depth=1
	@DEBUG_VALUE: usmart_get_fname:res <- $r11
	@DEBUG_VALUE: usmart_get_fname:pcnt <- $r9
	@DEBUG_VALUE: usmart_get_fname:fplcnt <- $r10
	@DEBUG_VALUE: usmart_get_fname:temp <- $r5
	@DEBUG_VALUE: usmart_get_fname:parmnum <- $r12
	@DEBUG_VALUE: usmart_get_fname:str <- [DW_OP_LLVM_entry_value 1] $r0
	@DEBUG_VALUE: usmart_get_fname:rval <- [DW_OP_LLVM_entry_value 1] $r3
	@DEBUG_VALUE: usmart_get_fname:pnum <- $r2
	@DEBUG_VALUE: usmart_get_fname:fname <- $r1
	.loc	1 348 31 is_stmt 1              @ ../Middlewares/USMART/usmart_str.c:348:31
	lsls.w	r0, r9, #24
	bne	.LBB7_37
.Ltmp271:
@ %bb.50:                               @   in Loop: Header=BB7_40 Depth=1
	@DEBUG_VALUE: usmart_get_fname:res <- $r11
	@DEBUG_VALUE: usmart_get_fname:pcnt <- $r9
	@DEBUG_VALUE: usmart_get_fname:fplcnt <- $r10
	@DEBUG_VALUE: usmart_get_fname:temp <- $r5
	@DEBUG_VALUE: usmart_get_fname:parmnum <- $r12
	@DEBUG_VALUE: usmart_get_fname:str <- [DW_OP_LLVM_entry_value 1] $r0
	@DEBUG_VALUE: usmart_get_fname:rval <- [DW_OP_LLVM_entry_value 1] $r3
	@DEBUG_VALUE: usmart_get_fname:pnum <- $r2
	@DEBUG_VALUE: usmart_get_fname:fname <- $r1
	cmp.w	r10, #4
.Ltmp272:
	.loc	1 350 36                        @ ../Middlewares/USMART/usmart_str.c:350:36
	ittt	ls
	addls.w	r0, sp, #2
	strbls.w	r3, [r0, r10]
	.loc	1 351 27                        @ ../Middlewares/USMART/usmart_str.c:351:27
	addls.w	r10, r10, #1
.Ltmp273:
	@DEBUG_VALUE: usmart_get_fname:fplcnt <- $r10
	.loc	1 0 27 is_stmt 0                @ ../Middlewares/USMART/usmart_str.c:0:27
	b	.LBB7_37
.Ltmp274:
.LBB7_51:                               @   in Loop: Header=BB7_40 Depth=1
	@DEBUG_VALUE: usmart_get_fname:res <- $r11
	@DEBUG_VALUE: usmart_get_fname:pcnt <- $r9
	@DEBUG_VALUE: usmart_get_fname:fplcnt <- $r10
	@DEBUG_VALUE: usmart_get_fname:temp <- $r5
	@DEBUG_VALUE: usmart_get_fname:parmnum <- $r12
	@DEBUG_VALUE: usmart_get_fname:fover <- $r4
	@DEBUG_VALUE: usmart_get_fname:str <- [DW_OP_LLVM_entry_value 1] $r0
	@DEBUG_VALUE: usmart_get_fname:nchar <- $r7
	@DEBUG_VALUE: usmart_get_fname:rval <- [DW_OP_LLVM_entry_value 1] $r3
	@DEBUG_VALUE: usmart_get_fname:pnum <- $r2
	@DEBUG_VALUE: usmart_get_fname:fname <- $r1
	.loc	1 333 17 is_stmt 1              @ ../Middlewares/USMART/usmart_str.c:333:17
	cmp	r3, #32
	bne	.LBB7_53
.Ltmp275:
@ %bb.52:                               @   in Loop: Header=BB7_40 Depth=1
	@DEBUG_VALUE: usmart_get_fname:res <- $r11
	@DEBUG_VALUE: usmart_get_fname:pcnt <- $r9
	@DEBUG_VALUE: usmart_get_fname:fplcnt <- $r10
	@DEBUG_VALUE: usmart_get_fname:temp <- $r5
	@DEBUG_VALUE: usmart_get_fname:parmnum <- $r12
	@DEBUG_VALUE: usmart_get_fname:fover <- $r4
	@DEBUG_VALUE: usmart_get_fname:str <- [DW_OP_LLVM_entry_value 1] $r0
	@DEBUG_VALUE: usmart_get_fname:nchar <- $r7
	@DEBUG_VALUE: usmart_get_fname:rval <- [DW_OP_LLVM_entry_value 1] $r3
	@DEBUG_VALUE: usmart_get_fname:pnum <- $r2
	@DEBUG_VALUE: usmart_get_fname:fname <- $r1
	.loc	1 0 17 is_stmt 0                @ ../Middlewares/USMART/usmart_str.c:0:17
	movs	r4, #0
.Ltmp276:
	b	.LBB7_39
.Ltmp277:
	.p2align	2
.LBB7_53:                               @   in Loop: Header=BB7_40 Depth=1
	@DEBUG_VALUE: usmart_get_fname:res <- $r11
	@DEBUG_VALUE: usmart_get_fname:pcnt <- $r9
	@DEBUG_VALUE: usmart_get_fname:fplcnt <- $r10
	@DEBUG_VALUE: usmart_get_fname:temp <- $r5
	@DEBUG_VALUE: usmart_get_fname:parmnum <- $r12
	@DEBUG_VALUE: usmart_get_fname:fover <- $r4
	@DEBUG_VALUE: usmart_get_fname:str <- [DW_OP_LLVM_entry_value 1] $r0
	@DEBUG_VALUE: usmart_get_fname:rval <- [DW_OP_LLVM_entry_value 1] $r3
	@DEBUG_VALUE: usmart_get_fname:pnum <- $r2
	@DEBUG_VALUE: usmart_get_fname:fname <- $r1
	.loc	1 335 24 is_stmt 1              @ ../Middlewares/USMART/usmart_str.c:335:24
	strb	r3, [r1], #1
.Ltmp278:
	.loc	1 0 24 is_stmt 0                @ ../Middlewares/USMART/usmart_str.c:0:24
	movs	r4, #0
.Ltmp279:
	@DEBUG_VALUE: usmart_get_fname:fname <- $r1
	b	.LBB7_39
.Ltmp280:
.LBB7_54:
	@DEBUG_VALUE: usmart_get_fname:res <- $r11
	@DEBUG_VALUE: usmart_get_fname:pcnt <- $r9
	@DEBUG_VALUE: usmart_get_fname:fplcnt <- $r10
	@DEBUG_VALUE: usmart_get_fname:temp <- $r5
	@DEBUG_VALUE: usmart_get_fname:parmnum <- $r12
	@DEBUG_VALUE: usmart_get_fname:fover <- $r4
	@DEBUG_VALUE: usmart_get_fname:str <- [DW_OP_LLVM_entry_value 1] $r0
	@DEBUG_VALUE: usmart_get_fname:nchar <- $r7
	@DEBUG_VALUE: usmart_get_fname:rval <- [DW_OP_LLVM_entry_value 1] $r3
	@DEBUG_VALUE: usmart_get_fname:pnum <- $r2
	@DEBUG_VALUE: usmart_get_fname:fname <- $r1
	mov.w	r11, #1
.Ltmp281:
.LBB7_55:
	@DEBUG_VALUE: usmart_get_fname:pcnt <- $r9
	@DEBUG_VALUE: usmart_get_fname:fplcnt <- $r10
	@DEBUG_VALUE: usmart_get_fname:temp <- $r5
	@DEBUG_VALUE: usmart_get_fname:parmnum <- $r12
	@DEBUG_VALUE: usmart_get_fname:str <- [DW_OP_LLVM_entry_value 1] $r0
	@DEBUG_VALUE: usmart_get_fname:nchar <- $r7
	@DEBUG_VALUE: usmart_get_fname:rval <- [DW_OP_LLVM_entry_value 1] $r3
	@DEBUG_VALUE: usmart_get_fname:pnum <- $r2
	@DEBUG_VALUE: usmart_get_fname:fname <- $r1
	@DEBUG_VALUE: usmart_get_fname:res <- $r11
	.loc	1 367 17 is_stmt 1              @ ../Middlewares/USMART/usmart_str.c:367:17
	uxtb.w	r0, r12
.Ltmp282:
	.loc	1 367 9 is_stmt 0               @ ../Middlewares/USMART/usmart_str.c:367:9
	cmp	r0, #1
	bne	.LBB7_67
.Ltmp283:
@ %bb.56:
	@DEBUG_VALUE: usmart_get_fname:res <- $r11
	@DEBUG_VALUE: usmart_get_fname:pcnt <- $r9
	@DEBUG_VALUE: usmart_get_fname:fplcnt <- $r10
	@DEBUG_VALUE: usmart_get_fname:temp <- $r5
	@DEBUG_VALUE: usmart_get_fname:parmnum <- $r12
	@DEBUG_VALUE: usmart_get_fname:str <- [DW_OP_LLVM_entry_value 1] $r0
	@DEBUG_VALUE: usmart_get_fname:nchar <- $r7
	@DEBUG_VALUE: usmart_get_fname:rval <- [DW_OP_LLVM_entry_value 1] $r3
	@DEBUG_VALUE: usmart_get_fname:pnum <- $r2
	@DEBUG_VALUE: usmart_get_fname:fname <- $r1
	.loc	1 0 9                           @ ../Middlewares/USMART/usmart_str.c:0:9
	movs	r0, #0
	add.w	r4, sp, #2
.Ltmp284:
	.loc	1 369 24 is_stmt 1              @ ../Middlewares/USMART/usmart_str.c:369:24
	strb.w	r0, [r4, r10]
.Ltmp285:
	@DEBUG_VALUE: usmart_strcmp:str1 <- [DW_OP_plus_uconst 2, DW_OP_stack_value] $sp
	.loc	1 14 13                         @ ../Middlewares/USMART/usmart_str.c:14:13
	ldrb.w	r0, [sp, #2]
.Ltmp286:
	.loc	1 14 13 is_stmt 0               @ ../Middlewares/USMART/usmart_str.c:14:13
	cmp	r0, #118
.Ltmp287:
	@DEBUG_VALUE: usmart_strcmp:str2 <- undef
	bne	.LBB7_68
.Ltmp288:
@ %bb.57:
	@DEBUG_VALUE: usmart_strcmp:str1 <- [DW_OP_plus_uconst 2, DW_OP_stack_value] $sp
	@DEBUG_VALUE: usmart_get_fname:res <- $r11
	@DEBUG_VALUE: usmart_get_fname:pcnt <- $r9
	@DEBUG_VALUE: usmart_get_fname:fplcnt <- $r10
	@DEBUG_VALUE: usmart_get_fname:temp <- $r5
	@DEBUG_VALUE: usmart_get_fname:parmnum <- $r12
	@DEBUG_VALUE: usmart_get_fname:str <- [DW_OP_LLVM_entry_value 1] $r0
	@DEBUG_VALUE: usmart_get_fname:nchar <- $r7
	@DEBUG_VALUE: usmart_get_fname:rval <- [DW_OP_LLVM_entry_value 1] $r3
	@DEBUG_VALUE: usmart_get_fname:pnum <- $r2
	@DEBUG_VALUE: usmart_get_fname:fname <- $r1
	.loc	1 0 13                          @ ../Middlewares/USMART/usmart_str.c:0:13
	movw	lr, :lower16:.L.str
	movs	r5, #118
.Ltmp289:
	movs	r3, #0
	movt	lr, :upper16:.L.str
	mov.w	r9, #0
.Ltmp290:
	mov.w	r12, #1
.Ltmp291:
.LBB7_58:                               @ =>This Inner Loop Header: Depth=1
	@DEBUG_VALUE: usmart_get_fname:res <- $r11
	@DEBUG_VALUE: usmart_get_fname:fplcnt <- $r10
	@DEBUG_VALUE: usmart_get_fname:str <- [DW_OP_LLVM_entry_value 1] $r0
	@DEBUG_VALUE: usmart_get_fname:rval <- [DW_OP_LLVM_entry_value 1] $r3
	@DEBUG_VALUE: usmart_get_fname:pnum <- $r2
	@DEBUG_VALUE: usmart_get_fname:fname <- $r1
	@DEBUG_VALUE: usmart_strcmp:str1 <- [DW_OP_LLVM_arg 0, DW_OP_consts 4, DW_OP_div, DW_OP_consts 4, DW_OP_mul, DW_OP_LLVM_arg 1, DW_OP_plus_uconst 2, DW_OP_plus, DW_OP_stack_value] $r3, $sp
	@DEBUG_VALUE: usmart_strcmp:str2 <- [DW_OP_LLVM_arg 0, DW_OP_consts 4, DW_OP_div, DW_OP_consts 4, DW_OP_mul, DW_OP_LLVM_arg 0, DW_OP_plus, DW_OP_stack_value] undef
	.loc	1 16 13 is_stmt 1               @ ../Middlewares/USMART/usmart_str.c:16:13
	cbz	r5, .LBB7_70
.Ltmp292:
@ %bb.59:                               @   in Loop: Header=BB7_58 Depth=1
	@DEBUG_VALUE: usmart_strcmp:str1 <- [DW_OP_LLVM_arg 0, DW_OP_consts 4, DW_OP_div, DW_OP_consts 4, DW_OP_mul, DW_OP_LLVM_arg 1, DW_OP_plus_uconst 2, DW_OP_plus, DW_OP_stack_value] $r3, $sp
	@DEBUG_VALUE: usmart_get_fname:res <- $r11
	@DEBUG_VALUE: usmart_get_fname:fplcnt <- $r10
	@DEBUG_VALUE: usmart_get_fname:str <- [DW_OP_LLVM_entry_value 1] $r0
	@DEBUG_VALUE: usmart_get_fname:rval <- [DW_OP_LLVM_entry_value 1] $r3
	@DEBUG_VALUE: usmart_get_fname:pnum <- $r2
	@DEBUG_VALUE: usmart_get_fname:fname <- $r1
	@DEBUG_VALUE: usmart_strcmp:str1 <- [DW_OP_LLVM_arg 0, DW_OP_consts 4, DW_OP_div, DW_OP_consts 4, DW_OP_mul, DW_OP_consts 1, DW_OP_LLVM_arg 1, DW_OP_plus_uconst 2, DW_OP_plus, DW_OP_plus, DW_OP_stack_value] $r3, $sp
	.loc	1 19 13                         @ ../Middlewares/USMART/usmart_str.c:19:13
	adds	r5, r4, r3
.Ltmp293:
	@DEBUG_VALUE: usmart_strcmp:str2 <- [DW_OP_LLVM_arg 0, DW_OP_consts 4, DW_OP_div, DW_OP_consts 4, DW_OP_mul, DW_OP_consts 1, DW_OP_LLVM_arg 0, DW_OP_plus, DW_OP_plus, DW_OP_stack_value] undef
	.loc	1 14 13                         @ ../Middlewares/USMART/usmart_str.c:14:13
	add.w	r0, lr, r3
	ldrb	r6, [r5, #1]
	.loc	1 14 22 is_stmt 0               @ ../Middlewares/USMART/usmart_str.c:14:22
	ldrb	r7, [r0, #1]
.Ltmp294:
	.loc	1 14 13                         @ ../Middlewares/USMART/usmart_str.c:14:13
	cmp	r6, r7
	bne	.LBB7_71
.Ltmp295:
@ %bb.60:                               @   in Loop: Header=BB7_58 Depth=1
	@DEBUG_VALUE: usmart_strcmp:str1 <- [DW_OP_LLVM_arg 0, DW_OP_consts 4, DW_OP_div, DW_OP_consts 4, DW_OP_mul, DW_OP_consts 1, DW_OP_LLVM_arg 1, DW_OP_plus_uconst 2, DW_OP_plus, DW_OP_plus, DW_OP_stack_value] $r3, $sp
	@DEBUG_VALUE: usmart_get_fname:res <- $r11
	@DEBUG_VALUE: usmart_get_fname:fplcnt <- $r10
	@DEBUG_VALUE: usmart_get_fname:str <- [DW_OP_LLVM_entry_value 1] $r0
	@DEBUG_VALUE: usmart_get_fname:rval <- [DW_OP_LLVM_entry_value 1] $r3
	@DEBUG_VALUE: usmart_get_fname:pnum <- $r2
	@DEBUG_VALUE: usmart_get_fname:fname <- $r1
	@DEBUG_VALUE: usmart_strcmp:str1 <- [DW_OP_LLVM_arg 0, DW_OP_consts 4, DW_OP_div, DW_OP_consts 4, DW_OP_mul, DW_OP_consts 1, DW_OP_LLVM_arg 1, DW_OP_plus_uconst 2, DW_OP_plus, DW_OP_plus, DW_OP_stack_value] $r3, $sp
	@DEBUG_VALUE: usmart_strcmp:str2 <- [DW_OP_LLVM_arg 0, DW_OP_consts 4, DW_OP_div, DW_OP_consts 4, DW_OP_mul, DW_OP_consts 1, DW_OP_LLVM_arg 0, DW_OP_plus, DW_OP_plus, DW_OP_stack_value] undef
	.loc	1 16 13 is_stmt 1               @ ../Middlewares/USMART/usmart_str.c:16:13
	cbz	r6, .LBB7_72
.Ltmp296:
@ %bb.61:                               @   in Loop: Header=BB7_58 Depth=1
	@DEBUG_VALUE: usmart_strcmp:str1 <- [DW_OP_LLVM_arg 0, DW_OP_consts 4, DW_OP_div, DW_OP_consts 4, DW_OP_mul, DW_OP_consts 1, DW_OP_LLVM_arg 1, DW_OP_plus_uconst 2, DW_OP_plus, DW_OP_plus, DW_OP_stack_value] $r3, $sp
	@DEBUG_VALUE: usmart_get_fname:res <- $r11
	@DEBUG_VALUE: usmart_get_fname:fplcnt <- $r10
	@DEBUG_VALUE: usmart_get_fname:str <- [DW_OP_LLVM_entry_value 1] $r0
	@DEBUG_VALUE: usmart_get_fname:rval <- [DW_OP_LLVM_entry_value 1] $r3
	@DEBUG_VALUE: usmart_get_fname:pnum <- $r2
	@DEBUG_VALUE: usmart_get_fname:fname <- $r1
	@DEBUG_VALUE: usmart_strcmp:str1 <- [DW_OP_LLVM_arg 0, DW_OP_consts 4, DW_OP_div, DW_OP_consts 4, DW_OP_mul, DW_OP_consts 2, DW_OP_LLVM_arg 1, DW_OP_plus_uconst 2, DW_OP_plus, DW_OP_plus, DW_OP_stack_value] $r3, $sp
	@DEBUG_VALUE: usmart_strcmp:str2 <- [DW_OP_LLVM_arg 0, DW_OP_consts 4, DW_OP_div, DW_OP_consts 4, DW_OP_mul, DW_OP_consts 2, DW_OP_LLVM_arg 0, DW_OP_plus, DW_OP_plus, DW_OP_stack_value] undef
	.loc	1 14 13                         @ ../Middlewares/USMART/usmart_str.c:14:13
	ldrb	r6, [r5, #2]
	.loc	1 14 22 is_stmt 0               @ ../Middlewares/USMART/usmart_str.c:14:22
	ldrb	r7, [r0, #2]
.Ltmp297:
	.loc	1 14 13                         @ ../Middlewares/USMART/usmart_str.c:14:13
	cmp	r6, r7
	bne	.LBB7_73
.Ltmp298:
@ %bb.62:                               @   in Loop: Header=BB7_58 Depth=1
	@DEBUG_VALUE: usmart_strcmp:str1 <- [DW_OP_LLVM_arg 0, DW_OP_consts 4, DW_OP_div, DW_OP_consts 4, DW_OP_mul, DW_OP_consts 2, DW_OP_LLVM_arg 1, DW_OP_plus_uconst 2, DW_OP_plus, DW_OP_plus, DW_OP_stack_value] $r3, $sp
	@DEBUG_VALUE: usmart_get_fname:res <- $r11
	@DEBUG_VALUE: usmart_get_fname:fplcnt <- $r10
	@DEBUG_VALUE: usmart_get_fname:str <- [DW_OP_LLVM_entry_value 1] $r0
	@DEBUG_VALUE: usmart_get_fname:rval <- [DW_OP_LLVM_entry_value 1] $r3
	@DEBUG_VALUE: usmart_get_fname:pnum <- $r2
	@DEBUG_VALUE: usmart_get_fname:fname <- $r1
	@DEBUG_VALUE: usmart_strcmp:str1 <- [DW_OP_LLVM_arg 0, DW_OP_consts 4, DW_OP_div, DW_OP_consts 4, DW_OP_mul, DW_OP_consts 2, DW_OP_LLVM_arg 1, DW_OP_plus_uconst 2, DW_OP_plus, DW_OP_plus, DW_OP_stack_value] $r3, $sp
	@DEBUG_VALUE: usmart_strcmp:str2 <- [DW_OP_LLVM_arg 0, DW_OP_consts 4, DW_OP_div, DW_OP_consts 4, DW_OP_mul, DW_OP_consts 2, DW_OP_LLVM_arg 0, DW_OP_plus, DW_OP_plus, DW_OP_stack_value] undef
	.loc	1 16 13 is_stmt 1               @ ../Middlewares/USMART/usmart_str.c:16:13
	cbz	r6, .LBB7_74
.Ltmp299:
@ %bb.63:                               @   in Loop: Header=BB7_58 Depth=1
	@DEBUG_VALUE: usmart_strcmp:str1 <- [DW_OP_LLVM_arg 0, DW_OP_consts 4, DW_OP_div, DW_OP_consts 4, DW_OP_mul, DW_OP_consts 2, DW_OP_LLVM_arg 1, DW_OP_plus_uconst 2, DW_OP_plus, DW_OP_plus, DW_OP_stack_value] $r3, $sp
	@DEBUG_VALUE: usmart_get_fname:res <- $r11
	@DEBUG_VALUE: usmart_get_fname:fplcnt <- $r10
	@DEBUG_VALUE: usmart_get_fname:str <- [DW_OP_LLVM_entry_value 1] $r0
	@DEBUG_VALUE: usmart_get_fname:rval <- [DW_OP_LLVM_entry_value 1] $r3
	@DEBUG_VALUE: usmart_get_fname:pnum <- $r2
	@DEBUG_VALUE: usmart_get_fname:fname <- $r1
	@DEBUG_VALUE: usmart_strcmp:str1 <- [DW_OP_LLVM_arg 0, DW_OP_consts 4, DW_OP_div, DW_OP_consts 4, DW_OP_mul, DW_OP_consts 3, DW_OP_LLVM_arg 1, DW_OP_plus_uconst 2, DW_OP_plus, DW_OP_plus, DW_OP_stack_value] $r3, $sp
	@DEBUG_VALUE: usmart_strcmp:str2 <- [DW_OP_LLVM_arg 0, DW_OP_consts 4, DW_OP_div, DW_OP_consts 4, DW_OP_mul, DW_OP_consts 3, DW_OP_LLVM_arg 0, DW_OP_plus, DW_OP_plus, DW_OP_stack_value] undef
	.loc	1 14 13                         @ ../Middlewares/USMART/usmart_str.c:14:13
	ldrb	r6, [r5, #3]
	.loc	1 14 22 is_stmt 0               @ ../Middlewares/USMART/usmart_str.c:14:22
	ldrb	r7, [r0, #3]
.Ltmp300:
	.loc	1 14 13                         @ ../Middlewares/USMART/usmart_str.c:14:13
	cmp	r6, r7
	bne	.LBB7_75
.Ltmp301:
@ %bb.64:                               @   in Loop: Header=BB7_58 Depth=1
	@DEBUG_VALUE: usmart_strcmp:str1 <- [DW_OP_LLVM_arg 0, DW_OP_consts 4, DW_OP_div, DW_OP_consts 4, DW_OP_mul, DW_OP_consts 3, DW_OP_LLVM_arg 1, DW_OP_plus_uconst 2, DW_OP_plus, DW_OP_plus, DW_OP_stack_value] $r3, $sp
	@DEBUG_VALUE: usmart_get_fname:res <- $r11
	@DEBUG_VALUE: usmart_get_fname:fplcnt <- $r10
	@DEBUG_VALUE: usmart_get_fname:str <- [DW_OP_LLVM_entry_value 1] $r0
	@DEBUG_VALUE: usmart_get_fname:rval <- [DW_OP_LLVM_entry_value 1] $r3
	@DEBUG_VALUE: usmart_get_fname:pnum <- $r2
	@DEBUG_VALUE: usmart_get_fname:fname <- $r1
	@DEBUG_VALUE: usmart_strcmp:str1 <- [DW_OP_LLVM_arg 0, DW_OP_consts 4, DW_OP_div, DW_OP_consts 4, DW_OP_mul, DW_OP_consts 3, DW_OP_LLVM_arg 1, DW_OP_plus_uconst 2, DW_OP_plus, DW_OP_plus, DW_OP_stack_value] $r3, $sp
	@DEBUG_VALUE: usmart_strcmp:str2 <- [DW_OP_LLVM_arg 0, DW_OP_consts 4, DW_OP_div, DW_OP_consts 4, DW_OP_mul, DW_OP_consts 3, DW_OP_LLVM_arg 0, DW_OP_plus, DW_OP_plus, DW_OP_stack_value] undef
	.loc	1 16 13 is_stmt 1               @ ../Middlewares/USMART/usmart_str.c:16:13
	cbz	r6, .LBB7_76
.Ltmp302:
@ %bb.65:                               @   in Loop: Header=BB7_58 Depth=1
	@DEBUG_VALUE: usmart_strcmp:str1 <- [DW_OP_LLVM_arg 0, DW_OP_consts 4, DW_OP_div, DW_OP_consts 4, DW_OP_mul, DW_OP_consts 3, DW_OP_LLVM_arg 1, DW_OP_plus_uconst 2, DW_OP_plus, DW_OP_plus, DW_OP_stack_value] $r3, $sp
	@DEBUG_VALUE: usmart_get_fname:res <- $r11
	@DEBUG_VALUE: usmart_get_fname:fplcnt <- $r10
	@DEBUG_VALUE: usmart_get_fname:str <- [DW_OP_LLVM_entry_value 1] $r0
	@DEBUG_VALUE: usmart_get_fname:rval <- [DW_OP_LLVM_entry_value 1] $r3
	@DEBUG_VALUE: usmart_get_fname:pnum <- $r2
	@DEBUG_VALUE: usmart_get_fname:fname <- $r1
	@DEBUG_VALUE: usmart_strcmp:str1 <- [DW_OP_LLVM_arg 0, DW_OP_consts 4, DW_OP_div, DW_OP_consts 4, DW_OP_mul, DW_OP_consts 4, DW_OP_LLVM_arg 1, DW_OP_plus_uconst 2, DW_OP_plus, DW_OP_plus, DW_OP_stack_value] $r3, $sp
	@DEBUG_VALUE: usmart_strcmp:str2 <- [DW_OP_LLVM_arg 0, DW_OP_consts 4, DW_OP_div, DW_OP_consts 4, DW_OP_mul, DW_OP_consts 4, DW_OP_LLVM_arg 0, DW_OP_plus, DW_OP_plus, DW_OP_stack_value] undef
	.loc	1 14 13                         @ ../Middlewares/USMART/usmart_str.c:14:13
	ldrb	r5, [r5, #4]
	.loc	1 14 22 is_stmt 0               @ ../Middlewares/USMART/usmart_str.c:14:22
	ldrb	r0, [r0, #4]
.Ltmp303:
	.loc	1 14 13                         @ ../Middlewares/USMART/usmart_str.c:14:13
	adds	r3, #4
.Ltmp304:
	cmp	r5, r0
	beq	.LBB7_58
	b	.LBB7_69
.Ltmp305:
.LBB7_66:
	@DEBUG_VALUE: usmart_get_fname:nchar <- 0
	@DEBUG_VALUE: usmart_get_fname:offset <- $lr
	@DEBUG_VALUE: usmart_get_fname:rval <- [DW_OP_LLVM_entry_value 1] $r3
	@DEBUG_VALUE: usmart_get_fname:res <- 0
	@DEBUG_VALUE: usmart_get_fname:fplcnt <- 0
	@DEBUG_VALUE: usmart_get_fname:pcnt <- 0
	@DEBUG_VALUE: usmart_get_fname:temp <- 1
	@DEBUG_VALUE: usmart_get_fname:parmnum <- 0
	@DEBUG_VALUE: usmart_get_fname:fover <- 0
	@DEBUG_VALUE: usmart_get_fname:pnum <- $r2
	@DEBUG_VALUE: usmart_get_fname:str <- $r0
	.loc	1 0 13                          @ ../Middlewares/USMART/usmart_str.c:0:13
	mov.w	r11, #1
	mov.w	r12, #0
	b	.LBB7_69
.Ltmp306:
.LBB7_67:
	@DEBUG_VALUE: usmart_get_fname:res <- $r11
	@DEBUG_VALUE: usmart_get_fname:pcnt <- $r9
	@DEBUG_VALUE: usmart_get_fname:fplcnt <- $r10
	@DEBUG_VALUE: usmart_get_fname:temp <- $r5
	@DEBUG_VALUE: usmart_get_fname:parmnum <- $r12
	@DEBUG_VALUE: usmart_get_fname:str <- [DW_OP_LLVM_entry_value 1] $r0
	@DEBUG_VALUE: usmart_get_fname:nchar <- $r7
	@DEBUG_VALUE: usmart_get_fname:rval <- [DW_OP_LLVM_entry_value 1] $r3
	@DEBUG_VALUE: usmart_get_fname:pnum <- $r2
	@DEBUG_VALUE: usmart_get_fname:fname <- $r1
	mov.w	r9, #0
.Ltmp307:
	b	.LBB7_69
.Ltmp308:
.LBB7_68:
	@DEBUG_VALUE: usmart_strcmp:str1 <- [DW_OP_plus_uconst 2, DW_OP_stack_value] $sp
	@DEBUG_VALUE: usmart_get_fname:res <- $r11
	@DEBUG_VALUE: usmart_get_fname:pcnt <- $r9
	@DEBUG_VALUE: usmart_get_fname:fplcnt <- $r10
	@DEBUG_VALUE: usmart_get_fname:temp <- $r5
	@DEBUG_VALUE: usmart_get_fname:parmnum <- $r12
	@DEBUG_VALUE: usmart_get_fname:str <- [DW_OP_LLVM_entry_value 1] $r0
	@DEBUG_VALUE: usmart_get_fname:nchar <- $r7
	@DEBUG_VALUE: usmart_get_fname:rval <- [DW_OP_LLVM_entry_value 1] $r3
	@DEBUG_VALUE: usmart_get_fname:pnum <- $r2
	@DEBUG_VALUE: usmart_get_fname:fname <- $r1
	mov.w	r12, #1
.Ltmp309:
	mov.w	r9, #0
.Ltmp310:
.LBB7_69:
	@DEBUG_VALUE: usmart_get_fname:rval <- [DW_OP_LLVM_entry_value 1] $r3
	@DEBUG_VALUE: usmart_get_fname:pnum <- $r2
	@DEBUG_VALUE: usmart_get_fname:parmnum <- $r12
	.loc	1 374 11 is_stmt 1              @ ../Middlewares/USMART/usmart_str.c:374:11
	strb.w	r12, [r2]
	.loc	1 376 5                         @ ../Middlewares/USMART/usmart_str.c:376:5
	uxtb.w	r0, r11
	.loc	1 375 12                        @ ../Middlewares/USMART/usmart_str.c:375:12
	strb.w	r9, [r1]
	.loc	1 376 5                         @ ../Middlewares/USMART/usmart_str.c:376:5
	add	sp, #8
	pop.w	{r4, r5, r6, r7, r8, r9, r10, r11, pc}
.Ltmp311:
.LBB7_70:
	@DEBUG_VALUE: usmart_strcmp:str1 <- [DW_OP_LLVM_arg 0, DW_OP_consts 4, DW_OP_div, DW_OP_consts 4, DW_OP_mul, DW_OP_LLVM_arg 1, DW_OP_plus_uconst 2, DW_OP_plus, DW_OP_stack_value] $r3, $sp
	@DEBUG_VALUE: usmart_get_fname:res <- $r11
	@DEBUG_VALUE: usmart_get_fname:fplcnt <- $r10
	@DEBUG_VALUE: usmart_get_fname:str <- [DW_OP_LLVM_entry_value 1] $r0
	@DEBUG_VALUE: usmart_get_fname:rval <- [DW_OP_LLVM_entry_value 1] $r3
	@DEBUG_VALUE: usmart_get_fname:pnum <- $r2
	@DEBUG_VALUE: usmart_get_fname:fname <- $r1
	.loc	1 0 5 is_stmt 0                 @ ../Middlewares/USMART/usmart_str.c:0:5
	mov.w	r12, #0
	b	.LBB7_69
.Ltmp312:
.LBB7_71:
	@DEBUG_VALUE: usmart_strcmp:str1 <- [DW_OP_LLVM_arg 0, DW_OP_consts 4, DW_OP_div, DW_OP_consts 4, DW_OP_mul, DW_OP_consts 1, DW_OP_LLVM_arg 1, DW_OP_plus_uconst 2, DW_OP_plus, DW_OP_plus, DW_OP_stack_value] $r3, $sp
	@DEBUG_VALUE: usmart_get_fname:res <- $r11
	@DEBUG_VALUE: usmart_get_fname:fplcnt <- $r10
	@DEBUG_VALUE: usmart_get_fname:str <- [DW_OP_LLVM_entry_value 1] $r0
	@DEBUG_VALUE: usmart_get_fname:rval <- [DW_OP_LLVM_entry_value 1] $r3
	@DEBUG_VALUE: usmart_get_fname:pnum <- $r2
	@DEBUG_VALUE: usmart_get_fname:fname <- $r1
	mov.w	r12, #1
	b	.LBB7_69
.Ltmp313:
.LBB7_72:
	@DEBUG_VALUE: usmart_strcmp:str1 <- [DW_OP_LLVM_arg 0, DW_OP_consts 4, DW_OP_div, DW_OP_consts 4, DW_OP_mul, DW_OP_consts 1, DW_OP_LLVM_arg 1, DW_OP_plus_uconst 2, DW_OP_plus, DW_OP_plus, DW_OP_stack_value] $r3, $sp
	@DEBUG_VALUE: usmart_get_fname:res <- $r11
	@DEBUG_VALUE: usmart_get_fname:fplcnt <- $r10
	@DEBUG_VALUE: usmart_get_fname:str <- [DW_OP_LLVM_entry_value 1] $r0
	@DEBUG_VALUE: usmart_get_fname:rval <- [DW_OP_LLVM_entry_value 1] $r3
	@DEBUG_VALUE: usmart_get_fname:pnum <- $r2
	@DEBUG_VALUE: usmart_get_fname:fname <- $r1
	mov.w	r12, #0
	b	.LBB7_69
.Ltmp314:
.LBB7_73:
	@DEBUG_VALUE: usmart_strcmp:str1 <- [DW_OP_LLVM_arg 0, DW_OP_consts 4, DW_OP_div, DW_OP_consts 4, DW_OP_mul, DW_OP_consts 2, DW_OP_LLVM_arg 1, DW_OP_plus_uconst 2, DW_OP_plus, DW_OP_plus, DW_OP_stack_value] $r3, $sp
	@DEBUG_VALUE: usmart_get_fname:res <- $r11
	@DEBUG_VALUE: usmart_get_fname:fplcnt <- $r10
	@DEBUG_VALUE: usmart_get_fname:str <- [DW_OP_LLVM_entry_value 1] $r0
	@DEBUG_VALUE: usmart_get_fname:rval <- [DW_OP_LLVM_entry_value 1] $r3
	@DEBUG_VALUE: usmart_get_fname:pnum <- $r2
	@DEBUG_VALUE: usmart_get_fname:fname <- $r1
	mov.w	r12, #1
	b	.LBB7_69
.Ltmp315:
.LBB7_74:
	@DEBUG_VALUE: usmart_strcmp:str1 <- [DW_OP_LLVM_arg 0, DW_OP_consts 4, DW_OP_div, DW_OP_consts 4, DW_OP_mul, DW_OP_consts 2, DW_OP_LLVM_arg 1, DW_OP_plus_uconst 2, DW_OP_plus, DW_OP_plus, DW_OP_stack_value] $r3, $sp
	@DEBUG_VALUE: usmart_get_fname:res <- $r11
	@DEBUG_VALUE: usmart_get_fname:fplcnt <- $r10
	@DEBUG_VALUE: usmart_get_fname:str <- [DW_OP_LLVM_entry_value 1] $r0
	@DEBUG_VALUE: usmart_get_fname:rval <- [DW_OP_LLVM_entry_value 1] $r3
	@DEBUG_VALUE: usmart_get_fname:pnum <- $r2
	@DEBUG_VALUE: usmart_get_fname:fname <- $r1
	mov.w	r12, #0
	b	.LBB7_69
.Ltmp316:
.LBB7_75:
	@DEBUG_VALUE: usmart_strcmp:str1 <- [DW_OP_LLVM_arg 0, DW_OP_consts 4, DW_OP_div, DW_OP_consts 4, DW_OP_mul, DW_OP_consts 3, DW_OP_LLVM_arg 1, DW_OP_plus_uconst 2, DW_OP_plus, DW_OP_plus, DW_OP_stack_value] $r3, $sp
	@DEBUG_VALUE: usmart_get_fname:res <- $r11
	@DEBUG_VALUE: usmart_get_fname:fplcnt <- $r10
	@DEBUG_VALUE: usmart_get_fname:str <- [DW_OP_LLVM_entry_value 1] $r0
	@DEBUG_VALUE: usmart_get_fname:rval <- [DW_OP_LLVM_entry_value 1] $r3
	@DEBUG_VALUE: usmart_get_fname:pnum <- $r2
	@DEBUG_VALUE: usmart_get_fname:fname <- $r1
	mov.w	r12, #1
	b	.LBB7_69
.Ltmp317:
.LBB7_76:
	@DEBUG_VALUE: usmart_strcmp:str1 <- [DW_OP_LLVM_arg 0, DW_OP_consts 4, DW_OP_div, DW_OP_consts 4, DW_OP_mul, DW_OP_consts 3, DW_OP_LLVM_arg 1, DW_OP_plus_uconst 2, DW_OP_plus, DW_OP_plus, DW_OP_stack_value] $r3, $sp
	@DEBUG_VALUE: usmart_get_fname:res <- $r11
	@DEBUG_VALUE: usmart_get_fname:fplcnt <- $r10
	@DEBUG_VALUE: usmart_get_fname:str <- [DW_OP_LLVM_entry_value 1] $r0
	@DEBUG_VALUE: usmart_get_fname:rval <- [DW_OP_LLVM_entry_value 1] $r3
	@DEBUG_VALUE: usmart_get_fname:pnum <- $r2
	@DEBUG_VALUE: usmart_get_fname:fname <- $r1
	mov.w	r12, #0
	b	.LBB7_69
.Lfunc_end7:
	.size	usmart_get_fname, .Lfunc_end7-usmart_get_fname
	.cfi_endproc
	.cantunwind
	.fnend
                                        @ -- End function
	.section	.text.usmart_get_aparm,"ax",%progbits
	.hidden	usmart_get_aparm                @ -- Begin function usmart_get_aparm
	.globl	usmart_get_aparm
	.p2align	2
	.type	usmart_get_aparm,%function
	.code	16                              @ @usmart_get_aparm
	.thumb_func
usmart_get_aparm:
.Lfunc_begin8:
	.loc	1 392 0 is_stmt 1               @ ../Middlewares/USMART/usmart_str.c:392:0
	.fnstart
	.cfi_startproc
@ %bb.0:
	@DEBUG_VALUE: usmart_get_aparm:str <- $r0
	@DEBUG_VALUE: usmart_get_aparm:fparm <- $r1
	@DEBUG_VALUE: usmart_get_aparm:ptype <- $r2
	.save	{r4, r5, r6, r7, r8, lr}
	push.w	{r4, r5, r6, r7, r8, lr}
	.cfi_def_cfa_offset 24
	.cfi_offset lr, -4
	.cfi_offset r8, -8
	.cfi_offset r7, -12
	.cfi_offset r6, -16
	.cfi_offset r5, -20
	.cfi_offset r4, -24
	mov.w	r12, #0
.Ltmp318:
	@DEBUG_VALUE: usmart_get_aparm:string <- 0
	@DEBUG_VALUE: usmart_get_aparm:type <- 0
	@DEBUG_VALUE: usmart_get_aparm:enout <- 0
	@DEBUG_VALUE: usmart_get_aparm:i <- 0
	movs	r3, #0
	mov.w	lr, #0
	movs	r4, #0
	mov.w	r8, #255
	b	.LBB8_3
.Ltmp319:
	.p2align	2
.LBB8_1:                                @   in Loop: Header=BB8_3 Depth=1
	@DEBUG_VALUE: usmart_get_aparm:type <- $lr
	@DEBUG_VALUE: usmart_get_aparm:enout <- $r3
	@DEBUG_VALUE: usmart_get_aparm:i <- $r12
	@DEBUG_VALUE: usmart_get_aparm:ptype <- $r2
	@DEBUG_VALUE: usmart_get_aparm:fparm <- $r1
	@DEBUG_VALUE: usmart_get_aparm:str <- $r0
	.loc	1 443 21 prologue_end           @ ../Middlewares/USMART/usmart_str.c:443:21
	cmp	r5, #92
	itt	eq
	addeq	r0, #1
.Ltmp320:
	@DEBUG_VALUE: usmart_get_aparm:str <- $r0
	addeq.w	r12, r12, #1
.Ltmp321:
	@DEBUG_VALUE: usmart_get_aparm:i <- $r12
	.loc	1 449 26                        @ ../Middlewares/USMART/usmart_str.c:449:26
	ldrb	r5, [r0]
	movs	r4, #1
.Ltmp322:
.LBB8_2:                                @   in Loop: Header=BB8_3 Depth=1
	@DEBUG_VALUE: usmart_get_aparm:enout <- $r3
	@DEBUG_VALUE: usmart_get_aparm:i <- $r12
	@DEBUG_VALUE: usmart_get_aparm:ptype <- $r2
	@DEBUG_VALUE: usmart_get_aparm:str <- $r0
	.loc	1 0 0 is_stmt 0                 @ ../Middlewares/USMART/usmart_str.c:0:0
	strb	r5, [r1], #1
.Ltmp323:
	@DEBUG_VALUE: usmart_get_aparm:fparm <- $r1
	b	.LBB8_15
.Ltmp324:
.LBB8_3:                                @ =>This Inner Loop Header: Depth=1
	@DEBUG_VALUE: usmart_get_aparm:ptype <- $r2
	@DEBUG_VALUE: usmart_get_aparm:fparm <- $r1
	@DEBUG_VALUE: usmart_get_aparm:str <- $r0
	@DEBUG_VALUE: usmart_get_aparm:str <- $r0
	@DEBUG_VALUE: usmart_get_aparm:fparm <- $r1
	@DEBUG_VALUE: usmart_get_aparm:i <- $r12
	@DEBUG_VALUE: usmart_get_aparm:enout <- $r3
	@DEBUG_VALUE: usmart_get_aparm:type <- $lr
	@DEBUG_VALUE: usmart_get_aparm:string <- $r4
	.loc	1 400 13 is_stmt 1              @ ../Middlewares/USMART/usmart_str.c:400:13
	ldrb	r5, [r0]
	eor	r6, r5, #44
	.loc	1 400 25 is_stmt 0              @ ../Middlewares/USMART/usmart_str.c:400:25
	orrs	r6, r4
	it	eq
	moveq	r3, #1
.Ltmp325:
	@DEBUG_VALUE: usmart_get_aparm:enout <- $r3
	.loc	1 402 26 is_stmt 1              @ ../Middlewares/USMART/usmart_str.c:402:26
	cmp	r5, #41
	bne	.LBB8_5
.Ltmp326:
@ %bb.4:                                @   in Loop: Header=BB8_3 Depth=1
	@DEBUG_VALUE: usmart_get_aparm:string <- $r4
	@DEBUG_VALUE: usmart_get_aparm:type <- $lr
	@DEBUG_VALUE: usmart_get_aparm:enout <- $r3
	@DEBUG_VALUE: usmart_get_aparm:i <- $r12
	@DEBUG_VALUE: usmart_get_aparm:ptype <- $r2
	@DEBUG_VALUE: usmart_get_aparm:fparm <- $r1
	@DEBUG_VALUE: usmart_get_aparm:str <- $r0
	.loc	1 402 13 is_stmt 0              @ ../Middlewares/USMART/usmart_str.c:402:13
	cbnz	r4, .LBB8_6
	b	.LBB8_21
.Ltmp327:
	.p2align	2
.LBB8_5:                                @   in Loop: Header=BB8_3 Depth=1
	@DEBUG_VALUE: usmart_get_aparm:string <- $r4
	@DEBUG_VALUE: usmart_get_aparm:type <- $lr
	@DEBUG_VALUE: usmart_get_aparm:enout <- $r3
	@DEBUG_VALUE: usmart_get_aparm:i <- $r12
	@DEBUG_VALUE: usmart_get_aparm:ptype <- $r2
	@DEBUG_VALUE: usmart_get_aparm:fparm <- $r1
	@DEBUG_VALUE: usmart_get_aparm:str <- $r0
	.loc	1 402 43                        @ ../Middlewares/USMART/usmart_str.c:402:43
	cmp	r5, #0
	it	eq
	cmpeq	r4, #0
	beq.w	.LBB8_22
.Ltmp328:
.LBB8_6:                                @   in Loop: Header=BB8_3 Depth=1
	@DEBUG_VALUE: usmart_get_aparm:string <- $r4
	@DEBUG_VALUE: usmart_get_aparm:type <- $lr
	@DEBUG_VALUE: usmart_get_aparm:enout <- $r3
	@DEBUG_VALUE: usmart_get_aparm:i <- $r12
	@DEBUG_VALUE: usmart_get_aparm:ptype <- $r2
	@DEBUG_VALUE: usmart_get_aparm:fparm <- $r1
	@DEBUG_VALUE: usmart_get_aparm:str <- $r0
	.loc	1 404 13 is_stmt 1              @ ../Middlewares/USMART/usmart_str.c:404:13
	cmp.w	lr, #0
	beq	.LBB8_11
.Ltmp329:
@ %bb.7:                                @   in Loop: Header=BB8_3 Depth=1
	@DEBUG_VALUE: usmart_get_aparm:string <- $r4
	@DEBUG_VALUE: usmart_get_aparm:type <- $lr
	@DEBUG_VALUE: usmart_get_aparm:enout <- $r3
	@DEBUG_VALUE: usmart_get_aparm:i <- $r12
	@DEBUG_VALUE: usmart_get_aparm:ptype <- $r2
	@DEBUG_VALUE: usmart_get_aparm:fparm <- $r1
	@DEBUG_VALUE: usmart_get_aparm:str <- $r0
	@DEBUG_VALUE: usmart_get_aparm:string <- undef
	.loc	1 439 17                        @ ../Middlewares/USMART/usmart_str.c:439:17
	lsls	r6, r3, #24
	bne.w	.LBB8_20
.Ltmp330:
@ %bb.8:                                @   in Loop: Header=BB8_3 Depth=1
	@DEBUG_VALUE: usmart_get_aparm:type <- $lr
	@DEBUG_VALUE: usmart_get_aparm:enout <- $r3
	@DEBUG_VALUE: usmart_get_aparm:i <- $r12
	@DEBUG_VALUE: usmart_get_aparm:ptype <- $r2
	@DEBUG_VALUE: usmart_get_aparm:fparm <- $r1
	@DEBUG_VALUE: usmart_get_aparm:str <- $r0
	@DEBUG_VALUE: usmart_get_aparm:string <- undef
	.loc	1 441 17                        @ ../Middlewares/USMART/usmart_str.c:441:17
	cmp	r5, #34
	beq	.LBB8_10
.Ltmp331:
@ %bb.9:                                @   in Loop: Header=BB8_3 Depth=1
	@DEBUG_VALUE: usmart_get_aparm:type <- $lr
	@DEBUG_VALUE: usmart_get_aparm:enout <- $r3
	@DEBUG_VALUE: usmart_get_aparm:i <- $r12
	@DEBUG_VALUE: usmart_get_aparm:ptype <- $r2
	@DEBUG_VALUE: usmart_get_aparm:fparm <- $r1
	@DEBUG_VALUE: usmart_get_aparm:str <- $r0
	cmp	r4, #0
	bne	.LBB8_1
.Ltmp332:
.LBB8_10:                               @   in Loop: Header=BB8_3 Depth=1
	@DEBUG_VALUE: usmart_get_aparm:type <- $lr
	@DEBUG_VALUE: usmart_get_aparm:enout <- $r3
	@DEBUG_VALUE: usmart_get_aparm:i <- $r12
	@DEBUG_VALUE: usmart_get_aparm:ptype <- $r2
	@DEBUG_VALUE: usmart_get_aparm:fparm <- $r1
	@DEBUG_VALUE: usmart_get_aparm:str <- $r0
	.loc	1 0 17 is_stmt 0                @ ../Middlewares/USMART/usmart_str.c:0:17
	movs	r4, #0
	b	.LBB8_15
.Ltmp333:
	.p2align	2
.LBB8_11:                               @   in Loop: Header=BB8_3 Depth=1
	@DEBUG_VALUE: usmart_get_aparm:string <- $r4
	@DEBUG_VALUE: usmart_get_aparm:type <- $lr
	@DEBUG_VALUE: usmart_get_aparm:enout <- $r3
	@DEBUG_VALUE: usmart_get_aparm:i <- $r12
	@DEBUG_VALUE: usmart_get_aparm:ptype <- $r2
	@DEBUG_VALUE: usmart_get_aparm:fparm <- $r1
	@DEBUG_VALUE: usmart_get_aparm:str <- $r0
	.loc	1 407 30 is_stmt 1              @ ../Middlewares/USMART/usmart_str.c:407:30
	sub.w	r7, r5, #48
	uxtb	r7, r7
	cmp	r7, #10
	blo.w	.LBB8_16
.Ltmp334:
@ %bb.12:                               @   in Loop: Header=BB8_3 Depth=1
	@DEBUG_VALUE: usmart_get_aparm:string <- $r4
	@DEBUG_VALUE: usmart_get_aparm:type <- $lr
	@DEBUG_VALUE: usmart_get_aparm:enout <- $r3
	@DEBUG_VALUE: usmart_get_aparm:i <- $r12
	@DEBUG_VALUE: usmart_get_aparm:ptype <- $r2
	@DEBUG_VALUE: usmart_get_aparm:fparm <- $r1
	@DEBUG_VALUE: usmart_get_aparm:str <- $r0
	.loc	1 407 61 is_stmt 0              @ ../Middlewares/USMART/usmart_str.c:407:61
	sub.w	r7, r5, #32
	cmp	r7, #88
	bhi.w	.LBB8_24
.Ltmp335:
@ %bb.13:                               @   in Loop: Header=BB8_3 Depth=1
	@DEBUG_VALUE: usmart_get_aparm:string <- $r4
	@DEBUG_VALUE: usmart_get_aparm:type <- $lr
	@DEBUG_VALUE: usmart_get_aparm:enout <- $r3
	@DEBUG_VALUE: usmart_get_aparm:i <- $r12
	@DEBUG_VALUE: usmart_get_aparm:ptype <- $r2
	@DEBUG_VALUE: usmart_get_aparm:fparm <- $r1
	@DEBUG_VALUE: usmart_get_aparm:str <- $r0
	.loc	1 0 61                          @ ../Middlewares/USMART/usmart_str.c:0:61
	mov.w	lr, #0
.Ltmp336:
.LCPI8_0:
	tbb	[pc, r7]
.Ltmp337:
@ %bb.14:
.LJTI8_0:
	.byte	(.LBB8_15-(.LCPI8_0+4))/2
	.byte	(.LBB8_24-(.LCPI8_0+4))/2
	.byte	(.LBB8_18-(.LCPI8_0+4))/2
	.byte	(.LBB8_24-(.LCPI8_0+4))/2
	.byte	(.LBB8_24-(.LCPI8_0+4))/2
	.byte	(.LBB8_24-(.LCPI8_0+4))/2
	.byte	(.LBB8_24-(.LCPI8_0+4))/2
	.byte	(.LBB8_24-(.LCPI8_0+4))/2
	.byte	(.LBB8_24-(.LCPI8_0+4))/2
	.byte	(.LBB8_24-(.LCPI8_0+4))/2
	.byte	(.LBB8_24-(.LCPI8_0+4))/2
	.byte	(.LBB8_16-(.LCPI8_0+4))/2
	.byte	(.LBB8_15-(.LCPI8_0+4))/2
	.byte	(.LBB8_16-(.LCPI8_0+4))/2
	.byte	(.LBB8_24-(.LCPI8_0+4))/2
	.byte	(.LBB8_24-(.LCPI8_0+4))/2
	.byte	(.LBB8_24-(.LCPI8_0+4))/2
	.byte	(.LBB8_24-(.LCPI8_0+4))/2
	.byte	(.LBB8_24-(.LCPI8_0+4))/2
	.byte	(.LBB8_24-(.LCPI8_0+4))/2
	.byte	(.LBB8_24-(.LCPI8_0+4))/2
	.byte	(.LBB8_24-(.LCPI8_0+4))/2
	.byte	(.LBB8_24-(.LCPI8_0+4))/2
	.byte	(.LBB8_24-(.LCPI8_0+4))/2
	.byte	(.LBB8_24-(.LCPI8_0+4))/2
	.byte	(.LBB8_24-(.LCPI8_0+4))/2
	.byte	(.LBB8_24-(.LCPI8_0+4))/2
	.byte	(.LBB8_24-(.LCPI8_0+4))/2
	.byte	(.LBB8_24-(.LCPI8_0+4))/2
	.byte	(.LBB8_24-(.LCPI8_0+4))/2
	.byte	(.LBB8_24-(.LCPI8_0+4))/2
	.byte	(.LBB8_24-(.LCPI8_0+4))/2
	.byte	(.LBB8_24-(.LCPI8_0+4))/2
	.byte	(.LBB8_16-(.LCPI8_0+4))/2
	.byte	(.LBB8_16-(.LCPI8_0+4))/2
	.byte	(.LBB8_16-(.LCPI8_0+4))/2
	.byte	(.LBB8_16-(.LCPI8_0+4))/2
	.byte	(.LBB8_16-(.LCPI8_0+4))/2
	.byte	(.LBB8_16-(.LCPI8_0+4))/2
	.byte	(.LBB8_24-(.LCPI8_0+4))/2
	.byte	(.LBB8_24-(.LCPI8_0+4))/2
	.byte	(.LBB8_24-(.LCPI8_0+4))/2
	.byte	(.LBB8_24-(.LCPI8_0+4))/2
	.byte	(.LBB8_24-(.LCPI8_0+4))/2
	.byte	(.LBB8_24-(.LCPI8_0+4))/2
	.byte	(.LBB8_24-(.LCPI8_0+4))/2
	.byte	(.LBB8_24-(.LCPI8_0+4))/2
	.byte	(.LBB8_24-(.LCPI8_0+4))/2
	.byte	(.LBB8_24-(.LCPI8_0+4))/2
	.byte	(.LBB8_24-(.LCPI8_0+4))/2
	.byte	(.LBB8_24-(.LCPI8_0+4))/2
	.byte	(.LBB8_24-(.LCPI8_0+4))/2
	.byte	(.LBB8_24-(.LCPI8_0+4))/2
	.byte	(.LBB8_24-(.LCPI8_0+4))/2
	.byte	(.LBB8_24-(.LCPI8_0+4))/2
	.byte	(.LBB8_24-(.LCPI8_0+4))/2
	.byte	(.LBB8_16-(.LCPI8_0+4))/2
	.byte	(.LBB8_24-(.LCPI8_0+4))/2
	.byte	(.LBB8_24-(.LCPI8_0+4))/2
	.byte	(.LBB8_24-(.LCPI8_0+4))/2
	.byte	(.LBB8_24-(.LCPI8_0+4))/2
	.byte	(.LBB8_24-(.LCPI8_0+4))/2
	.byte	(.LBB8_24-(.LCPI8_0+4))/2
	.byte	(.LBB8_24-(.LCPI8_0+4))/2
	.byte	(.LBB8_24-(.LCPI8_0+4))/2
	.byte	(.LBB8_16-(.LCPI8_0+4))/2
	.byte	(.LBB8_16-(.LCPI8_0+4))/2
	.byte	(.LBB8_16-(.LCPI8_0+4))/2
	.byte	(.LBB8_16-(.LCPI8_0+4))/2
	.byte	(.LBB8_16-(.LCPI8_0+4))/2
	.byte	(.LBB8_16-(.LCPI8_0+4))/2
	.byte	(.LBB8_24-(.LCPI8_0+4))/2
	.byte	(.LBB8_24-(.LCPI8_0+4))/2
	.byte	(.LBB8_24-(.LCPI8_0+4))/2
	.byte	(.LBB8_24-(.LCPI8_0+4))/2
	.byte	(.LBB8_24-(.LCPI8_0+4))/2
	.byte	(.LBB8_24-(.LCPI8_0+4))/2
	.byte	(.LBB8_24-(.LCPI8_0+4))/2
	.byte	(.LBB8_24-(.LCPI8_0+4))/2
	.byte	(.LBB8_24-(.LCPI8_0+4))/2
	.byte	(.LBB8_24-(.LCPI8_0+4))/2
	.byte	(.LBB8_24-(.LCPI8_0+4))/2
	.byte	(.LBB8_24-(.LCPI8_0+4))/2
	.byte	(.LBB8_24-(.LCPI8_0+4))/2
	.byte	(.LBB8_24-(.LCPI8_0+4))/2
	.byte	(.LBB8_24-(.LCPI8_0+4))/2
	.byte	(.LBB8_24-(.LCPI8_0+4))/2
	.byte	(.LBB8_24-(.LCPI8_0+4))/2
	.byte	(.LBB8_16-(.LCPI8_0+4))/2
	.p2align	1
.LBB8_15:                               @   in Loop: Header=BB8_3 Depth=1
.Ltmp338:
	@DEBUG_VALUE: usmart_get_aparm:enout <- $r3
	@DEBUG_VALUE: usmart_get_aparm:i <- $r12
	@DEBUG_VALUE: usmart_get_aparm:ptype <- $r2
	@DEBUG_VALUE: usmart_get_aparm:fparm <- $r1
	@DEBUG_VALUE: usmart_get_aparm:str <- $r0
	@DEBUG_VALUE: usmart_get_aparm:str <- $r0
	@DEBUG_VALUE: usmart_get_aparm:fparm <- $r1
	@DEBUG_VALUE: usmart_get_aparm:i <- $r12
	@DEBUG_VALUE: usmart_get_aparm:type <- $lr
	@DEBUG_VALUE: usmart_get_aparm:string <- $r4
	.loc	1 454 10 is_stmt 1              @ ../Middlewares/USMART/usmart_str.c:454:10
	add.w	r12, r12, #1
.Ltmp339:
	@DEBUG_VALUE: usmart_get_aparm:i <- $r12
	.loc	1 455 12                        @ ../Middlewares/USMART/usmart_str.c:455:12
	adds	r0, #1
.Ltmp340:
	@DEBUG_VALUE: usmart_get_aparm:str <- $r0
	.loc	1 0 12 is_stmt 0                @ ../Middlewares/USMART/usmart_str.c:0:12
	b	.LBB8_3
.Ltmp341:
.LBB8_16:                               @   in Loop: Header=BB8_3 Depth=1
	@DEBUG_VALUE: usmart_get_aparm:string <- $r4
	@DEBUG_VALUE: usmart_get_aparm:enout <- $r3
	@DEBUG_VALUE: usmart_get_aparm:i <- $r12
	@DEBUG_VALUE: usmart_get_aparm:ptype <- $r2
	@DEBUG_VALUE: usmart_get_aparm:fparm <- $r1
	@DEBUG_VALUE: usmart_get_aparm:str <- $r0
	.loc	1 409 21 is_stmt 1              @ ../Middlewares/USMART/usmart_str.c:409:21
	lsls	r7, r3, #24
	bne	.LBB8_23
.Ltmp342:
@ %bb.17:                               @   in Loop: Header=BB8_3 Depth=1
	@DEBUG_VALUE: usmart_get_aparm:string <- $r4
	@DEBUG_VALUE: usmart_get_aparm:enout <- $r3
	@DEBUG_VALUE: usmart_get_aparm:i <- $r12
	@DEBUG_VALUE: usmart_get_aparm:ptype <- $r2
	@DEBUG_VALUE: usmart_get_aparm:fparm <- $r1
	@DEBUG_VALUE: usmart_get_aparm:str <- $r0
	.loc	1 411 21                        @ ../Middlewares/USMART/usmart_str.c:411:21
	cmp	r5, #96
	it	hi
	subhi	r5, #32
	mov.w	lr, #0
.Ltmp343:
	@DEBUG_VALUE: usmart_get_aparm:fparm <- undef
	.loc	1 0 21 is_stmt 0                @ ../Middlewares/USMART/usmart_str.c:0:21
	b	.LBB8_2
.Ltmp344:
.LBB8_18:                               @   in Loop: Header=BB8_3 Depth=1
	@DEBUG_VALUE: usmart_get_aparm:string <- $r4
	@DEBUG_VALUE: usmart_get_aparm:enout <- $r3
	@DEBUG_VALUE: usmart_get_aparm:i <- $r12
	@DEBUG_VALUE: usmart_get_aparm:ptype <- $r2
	@DEBUG_VALUE: usmart_get_aparm:fparm <- $r1
	@DEBUG_VALUE: usmart_get_aparm:str <- $r0
	.loc	1 424 21 is_stmt 1              @ ../Middlewares/USMART/usmart_str.c:424:21
	lsls	r7, r3, #24
	bne	.LBB8_25
.Ltmp345:
@ %bb.19:                               @   in Loop: Header=BB8_3 Depth=1
	@DEBUG_VALUE: usmart_get_aparm:string <- $r4
	@DEBUG_VALUE: usmart_get_aparm:enout <- $r3
	@DEBUG_VALUE: usmart_get_aparm:i <- $r12
	@DEBUG_VALUE: usmart_get_aparm:ptype <- $r2
	@DEBUG_VALUE: usmart_get_aparm:fparm <- $r1
	@DEBUG_VALUE: usmart_get_aparm:str <- $r0
	.loc	1 0 21 is_stmt 0                @ ../Middlewares/USMART/usmart_str.c:0:21
	mov.w	lr, #1
	movs	r4, #1
.Ltmp346:
	b	.LBB8_15
.Ltmp347:
.LBB8_20:
	@DEBUG_VALUE: usmart_get_aparm:type <- $lr
	@DEBUG_VALUE: usmart_get_aparm:enout <- $r3
	@DEBUG_VALUE: usmart_get_aparm:i <- $r12
	@DEBUG_VALUE: usmart_get_aparm:ptype <- $r2
	@DEBUG_VALUE: usmart_get_aparm:fparm <- $r1
	@DEBUG_VALUE: usmart_get_aparm:str <- $r0
	mov	r8, lr
.Ltmp348:
	@DEBUG_VALUE: usmart_get_aparm:type <- $r8
	b	.LBB8_24
.Ltmp349:
.LBB8_21:
	@DEBUG_VALUE: usmart_get_aparm:string <- $r4
	@DEBUG_VALUE: usmart_get_aparm:type <- $lr
	@DEBUG_VALUE: usmart_get_aparm:enout <- $r3
	@DEBUG_VALUE: usmart_get_aparm:i <- $r12
	@DEBUG_VALUE: usmart_get_aparm:ptype <- $r2
	@DEBUG_VALUE: usmart_get_aparm:fparm <- $r1
	@DEBUG_VALUE: usmart_get_aparm:str <- $r0
	mov	r8, lr
.Ltmp350:
	@DEBUG_VALUE: usmart_get_aparm:type <- $r8
	b	.LBB8_24
.Ltmp351:
.LBB8_22:
	@DEBUG_VALUE: usmart_get_aparm:string <- $r4
	@DEBUG_VALUE: usmart_get_aparm:type <- $lr
	@DEBUG_VALUE: usmart_get_aparm:enout <- $r3
	@DEBUG_VALUE: usmart_get_aparm:i <- $r12
	@DEBUG_VALUE: usmart_get_aparm:ptype <- $r2
	@DEBUG_VALUE: usmart_get_aparm:fparm <- $r1
	@DEBUG_VALUE: usmart_get_aparm:str <- $r0
	mov	r8, lr
.Ltmp352:
	@DEBUG_VALUE: usmart_get_aparm:type <- $r8
	b	.LBB8_24
.Ltmp353:
.LBB8_23:
	@DEBUG_VALUE: usmart_get_aparm:string <- $r4
	@DEBUG_VALUE: usmart_get_aparm:enout <- $r3
	@DEBUG_VALUE: usmart_get_aparm:i <- $r12
	@DEBUG_VALUE: usmart_get_aparm:ptype <- $r2
	@DEBUG_VALUE: usmart_get_aparm:fparm <- $r1
	@DEBUG_VALUE: usmart_get_aparm:str <- $r0
	mov.w	r8, #0
.Ltmp354:
.LBB8_24:
	@DEBUG_VALUE: usmart_get_aparm:enout <- $r3
	@DEBUG_VALUE: usmart_get_aparm:i <- $r12
	@DEBUG_VALUE: usmart_get_aparm:ptype <- $r2
	@DEBUG_VALUE: usmart_get_aparm:fparm <- $r1
	@DEBUG_VALUE: usmart_get_aparm:str <- $r0
	@DEBUG_VALUE: usmart_get_aparm:type <- $r8
	movs	r0, #0
.Ltmp355:
	.loc	1 458 12 is_stmt 1              @ ../Middlewares/USMART/usmart_str.c:458:12
	strb	r0, [r1]
	.loc	1 460 5                         @ ../Middlewares/USMART/usmart_str.c:460:5
	uxtb.w	r0, r12
	.loc	1 459 12                        @ ../Middlewares/USMART/usmart_str.c:459:12
	strb.w	r8, [r2]
	.loc	1 460 5                         @ ../Middlewares/USMART/usmart_str.c:460:5
	pop.w	{r4, r5, r6, r7, r8, pc}
.Ltmp356:
.LBB8_25:
	@DEBUG_VALUE: usmart_get_aparm:string <- $r4
	@DEBUG_VALUE: usmart_get_aparm:enout <- $r3
	@DEBUG_VALUE: usmart_get_aparm:i <- $r12
	@DEBUG_VALUE: usmart_get_aparm:ptype <- $r2
	@DEBUG_VALUE: usmart_get_aparm:fparm <- $r1
	@DEBUG_VALUE: usmart_get_aparm:str <- $r0
	.loc	1 0 5 is_stmt 0                 @ ../Middlewares/USMART/usmart_str.c:0:5
	mov.w	r8, #0
	b	.LBB8_24
.Lfunc_end8:
	.size	usmart_get_aparm, .Lfunc_end8-usmart_get_aparm
	.cfi_endproc
	.cantunwind
	.fnend
                                        @ -- End function
	.section	.text.usmart_get_parmpos,"ax",%progbits
	.hidden	usmart_get_parmpos              @ -- Begin function usmart_get_parmpos
	.globl	usmart_get_parmpos
	.p2align	2
	.type	usmart_get_parmpos,%function
	.code	16                              @ @usmart_get_parmpos
	.thumb_func
usmart_get_parmpos:
.Lfunc_begin9:
	.loc	1 469 0 is_stmt 1               @ ../Middlewares/USMART/usmart_str.c:469:0
	.fnstart
	.cfi_startproc
@ %bb.0:
	@DEBUG_VALUE: usmart_get_parmpos:num <- $r0
	.save	{r4, r5, r6, lr}
	push	{r4, r5, r6, lr}
	.cfi_def_cfa_offset 16
	.cfi_offset lr, -4
	.cfi_offset r6, -8
	.cfi_offset r5, -12
	.cfi_offset r4, -16
.Ltmp357:
	@DEBUG_VALUE: usmart_get_parmpos:temp <- 0
	@DEBUG_VALUE: usmart_get_parmpos:i <- 0
	.loc	1 473 5 prologue_end            @ ../Middlewares/USMART/usmart_str.c:473:5
	cbz	r0, .LBB9_3
.Ltmp358:
@ %bb.1:
	@DEBUG_VALUE: usmart_get_parmpos:i <- 0
	@DEBUG_VALUE: usmart_get_parmpos:temp <- 0
	@DEBUG_VALUE: usmart_get_parmpos:num <- $r0
	subs	r1, r0, #1
	movw	lr, :lower16:usmart_dev
	and	r12, r0, #3
	cmp	r1, #3
	movt	lr, :upper16:usmart_dev
	bhs	.LBB9_4
.Ltmp359:
@ %bb.2:
	@DEBUG_VALUE: usmart_get_parmpos:i <- 0
	@DEBUG_VALUE: usmart_get_parmpos:temp <- 0
	@DEBUG_VALUE: usmart_get_parmpos:num <- $r0
	.loc	1 0 5 is_stmt 0                 @ ../Middlewares/USMART/usmart_str.c:0:5
	movs	r3, #0
	movs	r0, #0
.Ltmp360:
	@DEBUG_VALUE: usmart_get_parmpos:num <- [DW_OP_LLVM_entry_value 1] $r0
	b	.LBB9_6
.Ltmp361:
.LBB9_3:
	@DEBUG_VALUE: usmart_get_parmpos:i <- 0
	@DEBUG_VALUE: usmart_get_parmpos:temp <- 0
	@DEBUG_VALUE: usmart_get_parmpos:num <- $r0
	movs	r0, #0
.Ltmp362:
	@DEBUG_VALUE: usmart_get_parmpos:num <- [DW_OP_LLVM_entry_value 1] $r0
	.loc	1 478 5 is_stmt 1               @ ../Middlewares/USMART/usmart_str.c:478:5
	uxtb	r0, r0
	pop	{r4, r5, r6, pc}
.Ltmp363:
.LBB9_4:
	@DEBUG_VALUE: usmart_get_parmpos:i <- 0
	@DEBUG_VALUE: usmart_get_parmpos:temp <- 0
	@DEBUG_VALUE: usmart_get_parmpos:num <- $r0
	.loc	1 473 5                         @ ../Middlewares/USMART/usmart_str.c:473:5
	and	r1, r0, #252
	movs	r3, #0
	movs	r0, #0
.Ltmp364:
	@DEBUG_VALUE: usmart_get_parmpos:num <- [DW_OP_LLVM_entry_value 1] $r0
	.p2align	2
.LBB9_5:                                @ =>This Inner Loop Header: Depth=1
	@DEBUG_VALUE: usmart_get_parmpos:num <- [DW_OP_LLVM_entry_value 1] $r0
	@DEBUG_VALUE: usmart_get_parmpos:temp <- $r0
	@DEBUG_VALUE: usmart_get_parmpos:i <- $r3
	.loc	1 475 17                        @ ../Middlewares/USMART/usmart_str.c:475:17
	add.w	r2, lr, r3
	ldrb	r4, [r2, #26]
.Ltmp365:
	@DEBUG_VALUE: usmart_get_parmpos:i <- [DW_OP_constu 1, DW_OP_or, DW_OP_stack_value] $r3
	ldrb	r5, [r2, #27]
.Ltmp366:
	@DEBUG_VALUE: usmart_get_parmpos:i <- [DW_OP_constu 2, DW_OP_or, DW_OP_stack_value] $r3
	ldrb	r6, [r2, #28]
.Ltmp367:
	@DEBUG_VALUE: usmart_get_parmpos:i <- [DW_OP_constu 3, DW_OP_or, DW_OP_stack_value] $r3
	.loc	1 475 14 is_stmt 0              @ ../Middlewares/USMART/usmart_str.c:475:14
	add	r0, r4
.Ltmp368:
	@DEBUG_VALUE: usmart_get_parmpos:temp <- $r0
	.loc	1 475 17                        @ ../Middlewares/USMART/usmart_str.c:475:17
	ldrb	r2, [r2, #29]
	.loc	1 475 14                        @ ../Middlewares/USMART/usmart_str.c:475:14
	add	r0, r5
.Ltmp369:
	@DEBUG_VALUE: usmart_get_parmpos:temp <- $r0
	add	r0, r6
.Ltmp370:
	@DEBUG_VALUE: usmart_get_parmpos:temp <- $r0
	.loc	1 473 27 is_stmt 1              @ ../Middlewares/USMART/usmart_str.c:473:27
	adds	r3, #4
.Ltmp371:
	@DEBUG_VALUE: usmart_get_parmpos:i <- $r3
	.loc	1 473 5 is_stmt 0               @ ../Middlewares/USMART/usmart_str.c:473:5
	cmp	r1, r3
.Ltmp372:
	.loc	1 475 14 is_stmt 1              @ ../Middlewares/USMART/usmart_str.c:475:14
	add	r0, r2
.Ltmp373:
	@DEBUG_VALUE: usmart_get_parmpos:temp <- $r0
	.loc	1 473 5                         @ ../Middlewares/USMART/usmart_str.c:473:5
	bne	.LBB9_5
.Ltmp374:
.LBB9_6:
	@DEBUG_VALUE: usmart_get_parmpos:num <- [DW_OP_LLVM_entry_value 1] $r0
	cmp.w	r12, #0
	beq	.LBB9_9
.Ltmp375:
@ %bb.7:
	@DEBUG_VALUE: usmart_get_parmpos:num <- [DW_OP_LLVM_entry_value 1] $r0
	@DEBUG_VALUE: usmart_get_parmpos:temp <- $r0
	@DEBUG_VALUE: usmart_get_parmpos:i <- $r3
	.loc	1 475 17                        @ ../Middlewares/USMART/usmart_str.c:475:17
	add.w	r1, lr, r3
	ldrb	r2, [r1, #26]
.Ltmp376:
	.loc	1 473 5                         @ ../Middlewares/USMART/usmart_str.c:473:5
	cmp.w	r12, #1
.Ltmp377:
	.loc	1 475 14                        @ ../Middlewares/USMART/usmart_str.c:475:14
	add	r0, r2
.Ltmp378:
	@DEBUG_VALUE: usmart_get_parmpos:i <- [DW_OP_plus_uconst 1, DW_OP_stack_value] undef
	@DEBUG_VALUE: usmart_get_parmpos:temp <- $r0
	.loc	1 473 5                         @ ../Middlewares/USMART/usmart_str.c:473:5
	beq	.LBB9_9
.Ltmp379:
@ %bb.8:
	@DEBUG_VALUE: usmart_get_parmpos:temp <- $r0
	@DEBUG_VALUE: usmart_get_parmpos:num <- [DW_OP_LLVM_entry_value 1] $r0
	@DEBUG_VALUE: usmart_get_parmpos:temp <- undef
	@DEBUG_VALUE: usmart_get_parmpos:i <- [DW_OP_plus_uconst 1, DW_OP_stack_value] undef
	.loc	1 475 17                        @ ../Middlewares/USMART/usmart_str.c:475:17
	ldrb	r2, [r1, #27]
.Ltmp380:
	.loc	1 473 5                         @ ../Middlewares/USMART/usmart_str.c:473:5
	cmp.w	r12, #2
.Ltmp381:
	.loc	1 475 14                        @ ../Middlewares/USMART/usmart_str.c:475:14
	add	r0, r2
.Ltmp382:
	@DEBUG_VALUE: usmart_get_parmpos:temp <- $r0
	@DEBUG_VALUE: usmart_get_parmpos:temp <- undef
	@DEBUG_VALUE: usmart_get_parmpos:i <- undef
	.loc	1 475 17 is_stmt 0              @ ../Middlewares/USMART/usmart_str.c:475:17
	itt	ne
	ldrbne	r1, [r1, #28]
	.loc	1 475 14                        @ ../Middlewares/USMART/usmart_str.c:475:14
	addne	r0, r1
.Ltmp383:
	@DEBUG_VALUE: usmart_get_parmpos:i <- [DW_OP_plus_uconst 1, DW_OP_plus_uconst 1, DW_OP_plus_uconst 1, DW_OP_stack_value] undef
	@DEBUG_VALUE: usmart_get_parmpos:temp <- $r0
.LBB9_9:
	@DEBUG_VALUE: usmart_get_parmpos:num <- [DW_OP_LLVM_entry_value 1] $r0
	.loc	1 478 5 is_stmt 1               @ ../Middlewares/USMART/usmart_str.c:478:5
	uxtb	r0, r0
	pop	{r4, r5, r6, pc}
.Ltmp384:
.Lfunc_end9:
	.size	usmart_get_parmpos, .Lfunc_end9-usmart_get_parmpos
	.cfi_endproc
	.cantunwind
	.fnend
                                        @ -- End function
	.section	.text.usmart_get_fparam,"ax",%progbits
	.hidden	usmart_get_fparam               @ -- Begin function usmart_get_fparam
	.globl	usmart_get_fparam
	.p2align	2
	.type	usmart_get_fparam,%function
	.code	16                              @ @usmart_get_fparam
	.thumb_func
usmart_get_fparam:
.Lfunc_begin10:
	.loc	1 488 0                         @ ../Middlewares/USMART/usmart_str.c:488:0
	.fnstart
	.cfi_startproc
@ %bb.0:
	@DEBUG_VALUE: usmart_get_fparam:str <- $r0
	@DEBUG_VALUE: usmart_get_fparam:parn <- $r1
	.save	{r4, r5, r6, r7, r8, r9, r10, r11, lr}
	push.w	{r4, r5, r6, r7, r8, r9, r10, r11, lr}
	.cfi_def_cfa_offset 36
	.cfi_offset lr, -4
	.cfi_offset r11, -8
	.cfi_offset r10, -12
	.cfi_offset r9, -16
	.cfi_offset r8, -20
	.cfi_offset r7, -24
	.cfi_offset r6, -28
	.cfi_offset r5, -32
	.cfi_offset r4, -36
	.pad	#220
	sub	sp, #220
	.cfi_def_cfa_offset 256
.Ltmp385:
	.loc	1 497 31 prologue_end           @ ../Middlewares/USMART/usmart_str.c:497:31
	movw	r9, :lower16:usmart_dev
	mov	r11, r0
.Ltmp386:
	@DEBUG_VALUE: usmart_get_fparam:str <- $r11
	@DEBUG_VALUE: usmart_get_fparam:i <- 0
	@DEBUG_VALUE: usmart_get_fparam:n <- 0
	@DEBUG_VALUE: usmart_get_fparam:str <- $r11
	movt	r9, :upper16:usmart_dev
	movs	r0, #0
	str.w	r0, [r9, #26]
	str.w	r0, [r9, #30]
	strh.w	r0, [r9, #34]
.Ltmp387:
	@DEBUG_VALUE: usmart_get_fparam:i <- [DW_OP_plus_uconst 1, DW_OP_stack_value] undef
	.loc	1 500 12                        @ ../Middlewares/USMART/usmart_str.c:500:12
	ldrb	r0, [r11], #4
.Ltmp388:
	@DEBUG_VALUE: usmart_get_fparam:str <- [DW_OP_LLVM_entry_value 1] $r0
.LBB10_1:                               @ =>This Inner Loop Header: Depth=1
	@DEBUG_VALUE: usmart_get_fparam:n <- 0
	@DEBUG_VALUE: usmart_get_fparam:parn <- $r1
	@DEBUG_VALUE: usmart_get_fparam:str <- [DW_OP_constu 3, DW_OP_minus, DW_OP_stack_value] $r11
	.loc	1 500 5 is_stmt 0               @ ../Middlewares/USMART/usmart_str.c:500:5
	cmp	r0, #40
	beq	.LBB10_10
.Ltmp389:
@ %bb.2:                                @   in Loop: Header=BB10_1 Depth=1
	@DEBUG_VALUE: usmart_get_fparam:str <- [DW_OP_constu 3, DW_OP_minus, DW_OP_stack_value] $r11
	@DEBUG_VALUE: usmart_get_fparam:n <- 0
	@DEBUG_VALUE: usmart_get_fparam:parn <- $r1
	.loc	1 504 13 is_stmt 1              @ ../Middlewares/USMART/usmart_str.c:504:13
	ldrb	r0, [r11, #-3]
.Ltmp390:
	.loc	1 504 13 is_stmt 0              @ ../Middlewares/USMART/usmart_str.c:504:13
	cbz	r0, .LBB10_9
.Ltmp391:
@ %bb.3:                                @   in Loop: Header=BB10_1 Depth=1
	@DEBUG_VALUE: usmart_get_fparam:str <- [DW_OP_constu 3, DW_OP_minus, DW_OP_stack_value] $r11
	@DEBUG_VALUE: usmart_get_fparam:n <- 0
	@DEBUG_VALUE: usmart_get_fparam:parn <- $r1
	@DEBUG_VALUE: usmart_get_fparam:str <- [DW_OP_constu 2, DW_OP_minus, DW_OP_stack_value] $r11
	.loc	1 500 5 is_stmt 1               @ ../Middlewares/USMART/usmart_str.c:500:5
	cmp	r0, #40
	beq	.LBB10_11
.Ltmp392:
@ %bb.4:                                @   in Loop: Header=BB10_1 Depth=1
	@DEBUG_VALUE: usmart_get_fparam:str <- [DW_OP_constu 2, DW_OP_minus, DW_OP_stack_value] $r11
	@DEBUG_VALUE: usmart_get_fparam:n <- 0
	@DEBUG_VALUE: usmart_get_fparam:parn <- $r1
	.loc	1 504 13                        @ ../Middlewares/USMART/usmart_str.c:504:13
	ldrb	r0, [r11, #-2]
.Ltmp393:
	.loc	1 504 13 is_stmt 0              @ ../Middlewares/USMART/usmart_str.c:504:13
	cbz	r0, .LBB10_9
.Ltmp394:
@ %bb.5:                                @   in Loop: Header=BB10_1 Depth=1
	@DEBUG_VALUE: usmart_get_fparam:str <- [DW_OP_constu 2, DW_OP_minus, DW_OP_stack_value] $r11
	@DEBUG_VALUE: usmart_get_fparam:n <- 0
	@DEBUG_VALUE: usmart_get_fparam:parn <- $r1
	@DEBUG_VALUE: usmart_get_fparam:str <- [DW_OP_constu 1, DW_OP_minus, DW_OP_stack_value] $r11
	.loc	1 500 5 is_stmt 1               @ ../Middlewares/USMART/usmart_str.c:500:5
	cmp	r0, #40
	beq	.LBB10_12
.Ltmp395:
@ %bb.6:                                @   in Loop: Header=BB10_1 Depth=1
	@DEBUG_VALUE: usmart_get_fparam:str <- [DW_OP_constu 1, DW_OP_minus, DW_OP_stack_value] $r11
	@DEBUG_VALUE: usmart_get_fparam:n <- 0
	@DEBUG_VALUE: usmart_get_fparam:parn <- $r1
	.loc	1 504 13                        @ ../Middlewares/USMART/usmart_str.c:504:13
	ldrb	r0, [r11, #-1]
.Ltmp396:
	.loc	1 504 13 is_stmt 0              @ ../Middlewares/USMART/usmart_str.c:504:13
	cbz	r0, .LBB10_9
.Ltmp397:
@ %bb.7:                                @   in Loop: Header=BB10_1 Depth=1
	@DEBUG_VALUE: usmart_get_fparam:str <- [DW_OP_constu 1, DW_OP_minus, DW_OP_stack_value] $r11
	@DEBUG_VALUE: usmart_get_fparam:n <- 0
	@DEBUG_VALUE: usmart_get_fparam:parn <- $r1
	@DEBUG_VALUE: usmart_get_fparam:str <- $r11
	.loc	1 500 5 is_stmt 1               @ ../Middlewares/USMART/usmart_str.c:500:5
	cmp	r0, #40
	beq	.LBB10_13
.Ltmp398:
@ %bb.8:                                @   in Loop: Header=BB10_1 Depth=1
	@DEBUG_VALUE: usmart_get_fparam:n <- 0
	@DEBUG_VALUE: usmart_get_fparam:str <- $r11
	@DEBUG_VALUE: usmart_get_fparam:parn <- $r1
	.loc	1 504 13                        @ ../Middlewares/USMART/usmart_str.c:504:13
	ldrb	r0, [r11], #4
.Ltmp399:
	.loc	1 504 13 is_stmt 0              @ ../Middlewares/USMART/usmart_str.c:504:13
	cmp	r0, #0
	bne	.LBB10_1
.Ltmp400:
.LBB10_9:
	@DEBUG_VALUE: usmart_get_fparam:n <- 0
	@DEBUG_VALUE: usmart_get_fparam:parn <- $r1
	.loc	1 0 13                          @ ../Middlewares/USMART/usmart_str.c:0:13
	movs	r0, #1
	.loc	1 553 1 is_stmt 1               @ ../Middlewares/USMART/usmart_str.c:553:1
	add	sp, #220
	pop.w	{r4, r5, r6, r7, r8, r9, r10, r11, pc}
.Ltmp401:
.LBB10_10:
	@DEBUG_VALUE: usmart_get_fparam:str <- [DW_OP_constu 3, DW_OP_minus, DW_OP_stack_value] $r11
	@DEBUG_VALUE: usmart_get_fparam:n <- 0
	@DEBUG_VALUE: usmart_get_fparam:parn <- $r1
	.loc	1 0 1 is_stmt 0                 @ ../Middlewares/USMART/usmart_str.c:0:1
	str	r1, [sp]                        @ 4-byte Spill
.Ltmp402:
	@DEBUG_VALUE: usmart_get_fparam:parn <- [$sp+0]
	.loc	1 514 9 is_stmt 1               @ ../Middlewares/USMART/usmart_str.c:514:9
	sub.w	r11, r11, #3
.Ltmp403:
	.loc	1 0 9 is_stmt 0                 @ ../Middlewares/USMART/usmart_str.c:0:9
	b	.LBB10_14
.Ltmp404:
.LBB10_11:
	@DEBUG_VALUE: usmart_get_fparam:str <- [DW_OP_constu 2, DW_OP_minus, DW_OP_stack_value] $r11
	@DEBUG_VALUE: usmart_get_fparam:n <- 0
	@DEBUG_VALUE: usmart_get_fparam:parn <- $r1
	str	r1, [sp]                        @ 4-byte Spill
.Ltmp405:
	@DEBUG_VALUE: usmart_get_fparam:parn <- [$sp+0]
	.loc	1 500 5 is_stmt 1               @ ../Middlewares/USMART/usmart_str.c:500:5
	sub.w	r11, r11, #2
.Ltmp406:
	.loc	1 0 5 is_stmt 0                 @ ../Middlewares/USMART/usmart_str.c:0:5
	b	.LBB10_14
.Ltmp407:
.LBB10_12:
	@DEBUG_VALUE: usmart_get_fparam:str <- [DW_OP_constu 1, DW_OP_minus, DW_OP_stack_value] $r11
	@DEBUG_VALUE: usmart_get_fparam:n <- 0
	@DEBUG_VALUE: usmart_get_fparam:parn <- $r1
	.loc	1 500 5                         @ ../Middlewares/USMART/usmart_str.c:500:5
	sub.w	r11, r11, #1
.Ltmp408:
.LBB10_13:
	@DEBUG_VALUE: usmart_get_fparam:n <- 0
	@DEBUG_VALUE: usmart_get_fparam:parn <- $r1
	.loc	1 0 5                           @ ../Middlewares/USMART/usmart_str.c:0:5
	str	r1, [sp]                        @ 4-byte Spill
.Ltmp409:
	@DEBUG_VALUE: usmart_get_fparam:parn <- [$sp+0]
.LBB10_14:
	@DEBUG_VALUE: usmart_get_fparam:parn <- [$sp+0]
	@DEBUG_VALUE: usmart_get_fparam:n <- 0
	add.w	r10, sp, #11
.Ltmp410:
	.loc	1 514 9 is_stmt 1               @ ../Middlewares/USMART/usmart_str.c:514:9
	add.w	r0, r10, #2
	mov.w	r8, #0
	add.w	r7, sp, #219
	str	r0, [sp, #4]                    @ 4-byte Spill
.Ltmp411:
	.p2align	2
.LBB10_15:                              @ =>This Loop Header: Depth=1
                                        @     Child Loop BB10_25 Depth 2
                                        @     Child Loop BB10_33 Depth 2
                                        @     Child Loop BB10_49 Depth 2
                                        @     Child Loop BB10_39 Depth 2
	@DEBUG_VALUE: usmart_get_fparam:parn <- [$sp+0]
	@DEBUG_VALUE: usmart_get_fparam:str <- $r11
	@DEBUG_VALUE: usmart_get_fparam:n <- $r8
	@DEBUG_VALUE: usmart_get_fparam:type <- [DW_OP_plus_uconst 219, DW_OP_deref] $sp
	.loc	1 511 13                        @ ../Middlewares/USMART/usmart_str.c:511:13
	mov	r0, r11
	mov	r1, r10
	mov	r2, r7
	bl	usmart_get_aparm
.Ltmp412:
	.loc	1 514 17                        @ ../Middlewares/USMART/usmart_str.c:514:17
	ldrb.w	r1, [sp, #219]
.Ltmp413:
	@DEBUG_VALUE: usmart_get_fparam:type <- undef
	@DEBUG_VALUE: usmart_get_fparam:i <- undef
	@DEBUG_VALUE: usmart_get_fparam:str <- undef
	.loc	1 0 17 is_stmt 0                @ ../Middlewares/USMART/usmart_str.c:0:17
	cbz	r1, .LBB10_18
.Ltmp414:
@ %bb.16:                               @   in Loop: Header=BB10_15 Depth=1
	@DEBUG_VALUE: usmart_get_fparam:n <- $r8
	@DEBUG_VALUE: usmart_get_fparam:parn <- [$sp+0]
	.loc	1 514 9                         @ ../Middlewares/USMART/usmart_str.c:514:9
	cmp	r1, #1
	beq	.LBB10_23
.Ltmp415:
@ %bb.17:                               @   in Loop: Header=BB10_15 Depth=1
	@DEBUG_VALUE: usmart_get_fparam:n <- $r8
	@DEBUG_VALUE: usmart_get_fparam:parn <- [$sp+0]
	cmp	r1, #255
	bne.w	.LBB10_56
	b	.LBB10_59
.Ltmp416:
	.p2align	2
.LBB10_18:                              @   in Loop: Header=BB10_15 Depth=1
	@DEBUG_VALUE: usmart_get_fparam:n <- $r8
	@DEBUG_VALUE: usmart_get_fparam:parn <- [$sp+0]
	.loc	1 517 21 is_stmt 1              @ ../Middlewares/USMART/usmart_str.c:517:21
	ldrb.w	r1, [sp, #11]
.Ltmp417:
	.loc	1 517 21 is_stmt 0              @ ../Middlewares/USMART/usmart_str.c:517:21
	cmp	r1, #0
	beq.w	.LBB10_56
.Ltmp418:
@ %bb.19:                               @   in Loop: Header=BB10_15 Depth=1
	@DEBUG_VALUE: usmart_get_fparam:n <- $r8
	@DEBUG_VALUE: usmart_get_fparam:parn <- [$sp+0]
	@DEBUG_VALUE: usmart_get_fparam:res <- [DW_OP_plus_uconst 212, DW_OP_deref] $sp
	.loc	1 0 21                          @ ../Middlewares/USMART/usmart_str.c:0:21
	mov	r6, r0
.Ltmp419:
	.loc	1 519 25 is_stmt 1              @ ../Middlewares/USMART/usmart_str.c:519:25
	mov	r0, r10
	add	r1, sp, #212
	bl	usmart_str2num
.Ltmp420:
	@DEBUG_VALUE: usmart_get_fparam:i <- $r0
	.loc	1 521 25                        @ ../Middlewares/USMART/usmart_str.c:521:25
	cmp	r0, #0
	bne.w	.LBB10_59
.Ltmp421:
@ %bb.20:                               @   in Loop: Header=BB10_15 Depth=1
	@DEBUG_VALUE: usmart_get_fparam:i <- $r0
	@DEBUG_VALUE: usmart_get_fparam:res <- [DW_OP_plus_uconst 212, DW_OP_deref] $sp
	@DEBUG_VALUE: usmart_get_fparam:n <- $r8
	@DEBUG_VALUE: usmart_get_fparam:parn <- [$sp+0]
	.loc	1 523 78                        @ ../Middlewares/USMART/usmart_str.c:523:78
	ldr.w	r12, [sp, #212]
.Ltmp422:
	@DEBUG_VALUE: usmart_get_parmpos:i <- 0
	@DEBUG_VALUE: usmart_get_parmpos:temp <- 0
	@DEBUG_VALUE: usmart_get_parmpos:num <- $r8
	@DEBUG_VALUE: usmart_get_fparam:res <- $r12
	.loc	1 473 5                         @ ../Middlewares/USMART/usmart_str.c:473:5
	lsls.w	r1, r8, #24
	beq	.LBB10_37
.Ltmp423:
@ %bb.21:                               @   in Loop: Header=BB10_15 Depth=1
	@DEBUG_VALUE: usmart_get_fparam:res <- $r12
	@DEBUG_VALUE: usmart_get_parmpos:num <- $r8
	@DEBUG_VALUE: usmart_get_parmpos:temp <- 0
	@DEBUG_VALUE: usmart_get_parmpos:i <- 0
	@DEBUG_VALUE: usmart_get_fparam:i <- $r0
	@DEBUG_VALUE: usmart_get_fparam:n <- $r8
	@DEBUG_VALUE: usmart_get_fparam:parn <- [$sp+0]
	mov.w	r0, #-1
.Ltmp424:
	uxtab	r1, r0, r8
	cmp	r1, #3
.Ltmp425:
	.loc	1 473 19 is_stmt 0              @ ../Middlewares/USMART/usmart_str.c:473:19
	uxtb.w	lr, r8
.Ltmp426:
	.loc	1 473 5                         @ ../Middlewares/USMART/usmart_str.c:473:5
	bhs	.LBB10_38
.Ltmp427:
@ %bb.22:                               @   in Loop: Header=BB10_15 Depth=1
	@DEBUG_VALUE: usmart_get_fparam:res <- $r12
	@DEBUG_VALUE: usmart_get_parmpos:num <- $r8
	@DEBUG_VALUE: usmart_get_parmpos:temp <- 0
	@DEBUG_VALUE: usmart_get_parmpos:i <- 0
	@DEBUG_VALUE: usmart_get_fparam:n <- $r8
	@DEBUG_VALUE: usmart_get_fparam:parn <- [$sp+0]
	.loc	1 0 5                           @ ../Middlewares/USMART/usmart_str.c:0:5
	movs	r3, #0
	movs	r2, #0
	b	.LBB10_40
.Ltmp428:
	.p2align	2
.LBB10_23:                              @   in Loop: Header=BB10_15 Depth=1
	@DEBUG_VALUE: usmart_get_fparam:n <- $r8
	@DEBUG_VALUE: usmart_get_fparam:parn <- [$sp+0]
	@DEBUG_VALUE: usmart_strlen:str <- [DW_OP_plus_uconst 11, DW_OP_stack_value] $sp
	@DEBUG_VALUE: usmart_strlen:len <- 0
	.loc	1 55 13 is_stmt 1               @ ../Middlewares/USMART/usmart_str.c:55:13
	ldrb.w	r12, [sp, #11]
	mov.w	lr, #0
.Ltmp429:
	.loc	1 55 13 is_stmt 0               @ ../Middlewares/USMART/usmart_str.c:55:13
	cmp.w	r12, #0
	beq	.LBB10_29
.Ltmp430:
@ %bb.24:                               @   in Loop: Header=BB10_15 Depth=1
	@DEBUG_VALUE: usmart_strlen:len <- 0
	@DEBUG_VALUE: usmart_strlen:str <- [DW_OP_plus_uconst 11, DW_OP_stack_value] $sp
	@DEBUG_VALUE: usmart_get_fparam:n <- $r8
	@DEBUG_VALUE: usmart_get_fparam:parn <- [$sp+0]
	.loc	1 0 13                          @ ../Middlewares/USMART/usmart_str.c:0:13
	ldr	r2, [sp, #4]                    @ 4-byte Reload
.Ltmp431:
	.p2align	2
.LBB10_25:                              @   Parent Loop BB10_15 Depth=1
                                        @ =>  This Inner Loop Header: Depth=2
	@DEBUG_VALUE: usmart_get_fparam:n <- $r8
	@DEBUG_VALUE: usmart_get_fparam:parn <- [$sp+0]
	@DEBUG_VALUE: usmart_strlen:str <- [DW_OP_constu 1, DW_OP_minus, DW_OP_stack_value] $r2
	@DEBUG_VALUE: usmart_strlen:len <- [DW_OP_constu 1, DW_OP_or, DW_OP_stack_value] $lr
	.loc	1 55 13                         @ ../Middlewares/USMART/usmart_str.c:55:13
	ldrb	r3, [r2, #-1]
.Ltmp432:
	.loc	1 55 13                         @ ../Middlewares/USMART/usmart_str.c:55:13
	cmp	r3, #0
	beq	.LBB10_43
.Ltmp433:
@ %bb.26:                               @   in Loop: Header=BB10_25 Depth=2
	@DEBUG_VALUE: usmart_strlen:len <- [DW_OP_constu 1, DW_OP_or, DW_OP_stack_value] $lr
	@DEBUG_VALUE: usmart_strlen:str <- [DW_OP_constu 1, DW_OP_minus, DW_OP_stack_value] $r2
	@DEBUG_VALUE: usmart_get_fparam:n <- $r8
	@DEBUG_VALUE: usmart_get_fparam:parn <- [$sp+0]
	@DEBUG_VALUE: usmart_strlen:str <- $r2
	@DEBUG_VALUE: usmart_strlen:len <- [DW_OP_constu 2, DW_OP_or, DW_OP_stack_value] $lr
	.loc	1 55 13                         @ ../Middlewares/USMART/usmart_str.c:55:13
	ldrb	r3, [r2]
.Ltmp434:
	.loc	1 55 13                         @ ../Middlewares/USMART/usmart_str.c:55:13
	cmp	r3, #0
	beq	.LBB10_44
.Ltmp435:
@ %bb.27:                               @   in Loop: Header=BB10_25 Depth=2
	@DEBUG_VALUE: usmart_strlen:len <- [DW_OP_constu 2, DW_OP_or, DW_OP_stack_value] $lr
	@DEBUG_VALUE: usmart_strlen:str <- $r2
	@DEBUG_VALUE: usmart_get_fparam:n <- $r8
	@DEBUG_VALUE: usmart_get_fparam:parn <- [$sp+0]
	@DEBUG_VALUE: usmart_strlen:str <- [DW_OP_plus_uconst 1, DW_OP_stack_value] $r2
	@DEBUG_VALUE: usmart_strlen:len <- [DW_OP_constu 3, DW_OP_or, DW_OP_stack_value] $lr
	.loc	1 55 13                         @ ../Middlewares/USMART/usmart_str.c:55:13
	ldrb	r3, [r2, #1]
.Ltmp436:
	.loc	1 55 13                         @ ../Middlewares/USMART/usmart_str.c:55:13
	cmp	r3, #0
	beq	.LBB10_45
.Ltmp437:
@ %bb.28:                               @   in Loop: Header=BB10_25 Depth=2
	@DEBUG_VALUE: usmart_strlen:len <- [DW_OP_constu 3, DW_OP_or, DW_OP_stack_value] $lr
	@DEBUG_VALUE: usmart_strlen:str <- [DW_OP_plus_uconst 1, DW_OP_stack_value] $r2
	@DEBUG_VALUE: usmart_get_fparam:n <- $r8
	@DEBUG_VALUE: usmart_get_fparam:parn <- [$sp+0]
	@DEBUG_VALUE: usmart_strlen:str <- [DW_OP_plus_uconst 1, DW_OP_stack_value] $r2
	@DEBUG_VALUE: usmart_strlen:len <- [DW_OP_constu 3, DW_OP_or, DW_OP_stack_value] $lr
	.loc	1 55 13                         @ ../Middlewares/USMART/usmart_str.c:55:13
	ldrb	r3, [r2, #2]
.Ltmp438:
	.loc	1 57 12 is_stmt 1               @ ../Middlewares/USMART/usmart_str.c:57:12
	add.w	lr, lr, #4
.Ltmp439:
	@DEBUG_VALUE: usmart_strlen:len <- $lr
	@DEBUG_VALUE: usmart_strlen:str <- [DW_OP_plus_uconst 2, DW_OP_stack_value] $r2
	.loc	1 55 13                         @ ../Middlewares/USMART/usmart_str.c:55:13
	cmp	r3, #0
	add.w	r2, r2, #4
.Ltmp440:
	bne	.LBB10_25
.Ltmp441:
	.p2align	2
.LBB10_29:                              @   in Loop: Header=BB10_15 Depth=1
	@DEBUG_VALUE: usmart_get_fparam:n <- $r8
	@DEBUG_VALUE: usmart_get_fparam:parn <- [$sp+0]
	@DEBUG_VALUE: usmart_get_fparam:len <- undef
	@DEBUG_VALUE: usmart_get_parmpos:num <- $r8
	@DEBUG_VALUE: usmart_get_parmpos:temp <- 0
	@DEBUG_VALUE: usmart_get_parmpos:i <- 0
	.loc	1 473 5                         @ ../Middlewares/USMART/usmart_str.c:473:5
	lsls.w	r2, r8, #24
	beq	.LBB10_46
.Ltmp442:
.LBB10_30:                              @   in Loop: Header=BB10_15 Depth=1
	@DEBUG_VALUE: usmart_get_parmpos:i <- 0
	@DEBUG_VALUE: usmart_get_parmpos:temp <- 0
	@DEBUG_VALUE: usmart_get_parmpos:num <- $r8
	@DEBUG_VALUE: usmart_get_fparam:n <- $r8
	@DEBUG_VALUE: usmart_get_fparam:parn <- [$sp+0]
	mov.w	r1, #-1
	uxtab	r2, r1, r8
	cmp	r2, #3
	bhs	.LBB10_32
.Ltmp443:
@ %bb.31:                               @   in Loop: Header=BB10_15 Depth=1
	@DEBUG_VALUE: usmart_get_parmpos:i <- 0
	@DEBUG_VALUE: usmart_get_parmpos:temp <- 0
	@DEBUG_VALUE: usmart_get_parmpos:num <- $r8
	@DEBUG_VALUE: usmart_get_fparam:n <- $r8
	@DEBUG_VALUE: usmart_get_fparam:parn <- [$sp+0]
	.loc	1 0 5 is_stmt 0                 @ ../Middlewares/USMART/usmart_str.c:0:5
	movs	r3, #0
	movs	r2, #0
	b	.LBB10_34
.Ltmp444:
.LBB10_32:                              @   in Loop: Header=BB10_15 Depth=1
	@DEBUG_VALUE: usmart_get_parmpos:i <- 0
	@DEBUG_VALUE: usmart_get_parmpos:temp <- 0
	@DEBUG_VALUE: usmart_get_parmpos:num <- $r8
	@DEBUG_VALUE: usmart_get_fparam:n <- $r8
	@DEBUG_VALUE: usmart_get_fparam:parn <- [$sp+0]
	uxtb.w	r2, r8
	.loc	1 473 5                         @ ../Middlewares/USMART/usmart_str.c:473:5
	and	r5, r2, #252
	movs	r3, #0
	movs	r2, #0
.Ltmp445:
	.p2align	2
.LBB10_33:                              @   Parent Loop BB10_15 Depth=1
                                        @ =>  This Inner Loop Header: Depth=2
	@DEBUG_VALUE: usmart_get_parmpos:num <- $r8
	@DEBUG_VALUE: usmart_get_fparam:n <- $r8
	@DEBUG_VALUE: usmart_get_fparam:parn <- [$sp+0]
	@DEBUG_VALUE: usmart_get_parmpos:temp <- $r2
	@DEBUG_VALUE: usmart_get_parmpos:i <- $r3
	.loc	1 475 17 is_stmt 1              @ ../Middlewares/USMART/usmart_str.c:475:17
	add.w	r1, r9, r3
	ldrb	r7, [r1, #26]
.Ltmp446:
	@DEBUG_VALUE: usmart_get_parmpos:i <- [DW_OP_constu 1, DW_OP_or, DW_OP_stack_value] $r3
	ldrb	r6, [r1, #27]
.Ltmp447:
	@DEBUG_VALUE: usmart_get_parmpos:i <- [DW_OP_constu 2, DW_OP_or, DW_OP_stack_value] $r3
	ldrb	r4, [r1, #28]
.Ltmp448:
	@DEBUG_VALUE: usmart_get_parmpos:i <- [DW_OP_constu 3, DW_OP_or, DW_OP_stack_value] $r3
	.loc	1 475 14 is_stmt 0              @ ../Middlewares/USMART/usmart_str.c:475:14
	add	r2, r7
.Ltmp449:
	@DEBUG_VALUE: usmart_get_parmpos:temp <- $r2
	.loc	1 475 17                        @ ../Middlewares/USMART/usmart_str.c:475:17
	ldrb	r1, [r1, #29]
	.loc	1 475 14                        @ ../Middlewares/USMART/usmart_str.c:475:14
	add	r2, r6
.Ltmp450:
	@DEBUG_VALUE: usmart_get_parmpos:temp <- $r2
	add	r2, r4
.Ltmp451:
	@DEBUG_VALUE: usmart_get_parmpos:temp <- $r2
	.loc	1 473 27 is_stmt 1              @ ../Middlewares/USMART/usmart_str.c:473:27
	adds	r3, #4
.Ltmp452:
	@DEBUG_VALUE: usmart_get_parmpos:i <- $r3
	.loc	1 473 5 is_stmt 0               @ ../Middlewares/USMART/usmart_str.c:473:5
	cmp	r5, r3
.Ltmp453:
	.loc	1 475 14 is_stmt 1              @ ../Middlewares/USMART/usmart_str.c:475:14
	add	r2, r1
.Ltmp454:
	@DEBUG_VALUE: usmart_get_parmpos:temp <- $r2
	.loc	1 473 5                         @ ../Middlewares/USMART/usmart_str.c:473:5
	bne	.LBB10_33
.Ltmp455:
.LBB10_34:                              @   in Loop: Header=BB10_15 Depth=1
	@DEBUG_VALUE: usmart_get_parmpos:num <- $r8
	@DEBUG_VALUE: usmart_get_fparam:n <- $r8
	@DEBUG_VALUE: usmart_get_fparam:parn <- [$sp+0]
	ands	r5, r8, #3
	beq	.LBB10_47
.Ltmp456:
@ %bb.35:                               @   in Loop: Header=BB10_15 Depth=1
	@DEBUG_VALUE: usmart_get_parmpos:num <- $r8
	@DEBUG_VALUE: usmart_get_fparam:n <- $r8
	@DEBUG_VALUE: usmart_get_fparam:parn <- [$sp+0]
	@DEBUG_VALUE: usmart_get_parmpos:temp <- $r2
	@DEBUG_VALUE: usmart_get_parmpos:i <- $r3
	.loc	1 475 17                        @ ../Middlewares/USMART/usmart_str.c:475:17
	add	r3, r9
.Ltmp457:
	ldrb	r1, [r3, #26]
.Ltmp458:
	.loc	1 473 5                         @ ../Middlewares/USMART/usmart_str.c:473:5
	cmp	r5, #1
.Ltmp459:
	.loc	1 475 14                        @ ../Middlewares/USMART/usmart_str.c:475:14
	add	r2, r1
.Ltmp460:
	@DEBUG_VALUE: usmart_get_parmpos:i <- [DW_OP_plus_uconst 1, DW_OP_stack_value] undef
	@DEBUG_VALUE: usmart_get_parmpos:temp <- $r2
	.loc	1 473 5                         @ ../Middlewares/USMART/usmart_str.c:473:5
	beq	.LBB10_47
.Ltmp461:
@ %bb.36:                               @   in Loop: Header=BB10_15 Depth=1
	@DEBUG_VALUE: usmart_get_parmpos:temp <- $r2
	@DEBUG_VALUE: usmart_get_parmpos:num <- $r8
	@DEBUG_VALUE: usmart_get_fparam:n <- $r8
	@DEBUG_VALUE: usmart_get_fparam:parn <- [$sp+0]
	@DEBUG_VALUE: usmart_get_parmpos:temp <- undef
	@DEBUG_VALUE: usmart_get_parmpos:i <- [DW_OP_plus_uconst 1, DW_OP_stack_value] undef
	.loc	1 475 17                        @ ../Middlewares/USMART/usmart_str.c:475:17
	ldrb	r1, [r3, #27]
.Ltmp462:
	.loc	1 473 5                         @ ../Middlewares/USMART/usmart_str.c:473:5
	cmp	r5, #2
.Ltmp463:
	.loc	1 475 14                        @ ../Middlewares/USMART/usmart_str.c:475:14
	add	r2, r1
.Ltmp464:
	@DEBUG_VALUE: usmart_get_parmpos:temp <- $r2
	@DEBUG_VALUE: usmart_get_parmpos:temp <- undef
	@DEBUG_VALUE: usmart_get_parmpos:i <- undef
	.loc	1 475 17 is_stmt 0              @ ../Middlewares/USMART/usmart_str.c:475:17
	itt	ne
	ldrbne	r1, [r3, #28]
	.loc	1 475 14                        @ ../Middlewares/USMART/usmart_str.c:475:14
	addne	r2, r1
.Ltmp465:
	@DEBUG_VALUE: usmart_get_parmpos:i <- [DW_OP_plus_uconst 1, DW_OP_plus_uconst 1, DW_OP_plus_uconst 1, DW_OP_stack_value] undef
	@DEBUG_VALUE: usmart_get_parmpos:temp <- $r2
	.loc	1 0 14                          @ ../Middlewares/USMART/usmart_str.c:0:14
	b	.LBB10_47
.Ltmp466:
.LBB10_37:                              @   in Loop: Header=BB10_15 Depth=1
	@DEBUG_VALUE: usmart_get_fparam:res <- $r12
	@DEBUG_VALUE: usmart_get_parmpos:num <- $r8
	@DEBUG_VALUE: usmart_get_parmpos:temp <- 0
	@DEBUG_VALUE: usmart_get_parmpos:i <- 0
	@DEBUG_VALUE: usmart_get_fparam:i <- $r0
	@DEBUG_VALUE: usmart_get_fparam:n <- $r8
	@DEBUG_VALUE: usmart_get_fparam:parn <- [$sp+0]
	mov.w	lr, #0
	movs	r2, #0
	b	.LBB10_55
.Ltmp467:
.LBB10_38:                              @   in Loop: Header=BB10_15 Depth=1
	@DEBUG_VALUE: usmart_get_fparam:res <- $r12
	@DEBUG_VALUE: usmart_get_parmpos:num <- $r8
	@DEBUG_VALUE: usmart_get_parmpos:temp <- 0
	@DEBUG_VALUE: usmart_get_parmpos:i <- 0
	@DEBUG_VALUE: usmart_get_fparam:n <- $r8
	@DEBUG_VALUE: usmart_get_fparam:parn <- [$sp+0]
	.loc	1 473 5 is_stmt 1               @ ../Middlewares/USMART/usmart_str.c:473:5
	and	r5, lr, #252
	movs	r3, #0
	movs	r2, #0
.Ltmp468:
	.p2align	2
.LBB10_39:                              @   Parent Loop BB10_15 Depth=1
                                        @ =>  This Inner Loop Header: Depth=2
	@DEBUG_VALUE: usmart_get_fparam:res <- $r12
	@DEBUG_VALUE: usmart_get_parmpos:num <- $r8
	@DEBUG_VALUE: usmart_get_fparam:n <- $r8
	@DEBUG_VALUE: usmart_get_fparam:parn <- [$sp+0]
	@DEBUG_VALUE: usmart_get_parmpos:temp <- $r2
	@DEBUG_VALUE: usmart_get_parmpos:i <- $r3
	.loc	1 475 17                        @ ../Middlewares/USMART/usmart_str.c:475:17
	add.w	r0, r9, r3
	ldrb	r1, [r0, #26]
.Ltmp469:
	@DEBUG_VALUE: usmart_get_parmpos:i <- [DW_OP_constu 1, DW_OP_or, DW_OP_stack_value] $r3
	.loc	1 0 17 is_stmt 0                @ ../Middlewares/USMART/usmart_str.c:0:17
	mov	r4, r9
	.loc	1 475 17                        @ ../Middlewares/USMART/usmart_str.c:475:17
	ldrb.w	r9, [r0, #27]
.Ltmp470:
	@DEBUG_VALUE: usmart_get_parmpos:i <- [DW_OP_constu 2, DW_OP_or, DW_OP_stack_value] $r3
	ldrb.w	r10, [r0, #28]
.Ltmp471:
	@DEBUG_VALUE: usmart_get_parmpos:i <- [DW_OP_constu 3, DW_OP_or, DW_OP_stack_value] $r3
	.loc	1 475 14                        @ ../Middlewares/USMART/usmart_str.c:475:14
	add	r1, r2
.Ltmp472:
	@DEBUG_VALUE: usmart_get_parmpos:temp <- $r1
	.loc	1 475 17                        @ ../Middlewares/USMART/usmart_str.c:475:17
	ldrb	r0, [r0, #29]
	.loc	1 475 14                        @ ../Middlewares/USMART/usmart_str.c:475:14
	add	r1, r9
.Ltmp473:
	@DEBUG_VALUE: usmart_get_parmpos:temp <- $r1
	add	r1, r10
.Ltmp474:
	@DEBUG_VALUE: usmart_get_parmpos:temp <- $r1
	.loc	1 473 27 is_stmt 1              @ ../Middlewares/USMART/usmart_str.c:473:27
	adds	r3, #4
.Ltmp475:
	@DEBUG_VALUE: usmart_get_parmpos:i <- $r3
	.loc	1 0 27 is_stmt 0                @ ../Middlewares/USMART/usmart_str.c:0:27
	mov	r9, r4
.Ltmp476:
	.loc	1 473 5                         @ ../Middlewares/USMART/usmart_str.c:473:5
	cmp	r5, r3
.Ltmp477:
	.loc	1 475 14 is_stmt 1              @ ../Middlewares/USMART/usmart_str.c:475:14
	add.w	r2, r0, r1
.Ltmp478:
	@DEBUG_VALUE: usmart_get_parmpos:temp <- $r2
	.loc	1 473 5                         @ ../Middlewares/USMART/usmart_str.c:473:5
	bne	.LBB10_39
.Ltmp479:
.LBB10_40:                              @   in Loop: Header=BB10_15 Depth=1
	@DEBUG_VALUE: usmart_get_fparam:res <- $r12
	@DEBUG_VALUE: usmart_get_parmpos:num <- $r8
	@DEBUG_VALUE: usmart_get_fparam:n <- $r8
	@DEBUG_VALUE: usmart_get_fparam:parn <- [$sp+0]
	ands	r5, r8, #3
	beq	.LBB10_54
.Ltmp480:
@ %bb.41:                               @   in Loop: Header=BB10_15 Depth=1
	@DEBUG_VALUE: usmart_get_fparam:res <- $r12
	@DEBUG_VALUE: usmart_get_parmpos:num <- $r8
	@DEBUG_VALUE: usmart_get_fparam:n <- $r8
	@DEBUG_VALUE: usmart_get_fparam:parn <- [$sp+0]
	@DEBUG_VALUE: usmart_get_parmpos:temp <- $r2
	@DEBUG_VALUE: usmart_get_parmpos:i <- $r3
	.loc	1 475 17                        @ ../Middlewares/USMART/usmart_str.c:475:17
	add	r3, r9
.Ltmp481:
	ldrb	r0, [r3, #26]
.Ltmp482:
	.loc	1 473 5                         @ ../Middlewares/USMART/usmart_str.c:473:5
	cmp	r5, #1
.Ltmp483:
	.loc	1 475 14                        @ ../Middlewares/USMART/usmart_str.c:475:14
	add	r2, r0
.Ltmp484:
	@DEBUG_VALUE: usmart_get_parmpos:i <- [DW_OP_plus_uconst 1, DW_OP_stack_value] undef
	@DEBUG_VALUE: usmart_get_parmpos:temp <- $r2
	.loc	1 0 14 is_stmt 0                @ ../Middlewares/USMART/usmart_str.c:0:14
	add.w	r10, sp, #11
.Ltmp485:
	.loc	1 473 5 is_stmt 1               @ ../Middlewares/USMART/usmart_str.c:473:5
	beq	.LBB10_55
.Ltmp486:
@ %bb.42:                               @   in Loop: Header=BB10_15 Depth=1
	@DEBUG_VALUE: usmart_get_parmpos:temp <- $r2
	@DEBUG_VALUE: usmart_get_fparam:res <- $r12
	@DEBUG_VALUE: usmart_get_parmpos:num <- $r8
	@DEBUG_VALUE: usmart_get_fparam:n <- $r8
	@DEBUG_VALUE: usmart_get_fparam:parn <- [$sp+0]
	@DEBUG_VALUE: usmart_get_parmpos:temp <- undef
	@DEBUG_VALUE: usmart_get_parmpos:i <- [DW_OP_plus_uconst 1, DW_OP_stack_value] undef
	.loc	1 475 17                        @ ../Middlewares/USMART/usmart_str.c:475:17
	ldrb	r0, [r3, #27]
.Ltmp487:
	.loc	1 473 5                         @ ../Middlewares/USMART/usmart_str.c:473:5
	cmp	r5, #2
.Ltmp488:
	.loc	1 475 14                        @ ../Middlewares/USMART/usmart_str.c:475:14
	add	r2, r0
.Ltmp489:
	@DEBUG_VALUE: usmart_get_parmpos:temp <- $r2
	@DEBUG_VALUE: usmart_get_parmpos:temp <- undef
	@DEBUG_VALUE: usmart_get_parmpos:i <- undef
	.loc	1 475 17 is_stmt 0              @ ../Middlewares/USMART/usmart_str.c:475:17
	itt	ne
	ldrbne	r0, [r3, #28]
	.loc	1 475 14                        @ ../Middlewares/USMART/usmart_str.c:475:14
	addne	r2, r0
.Ltmp490:
	@DEBUG_VALUE: usmart_get_parmpos:i <- [DW_OP_plus_uconst 1, DW_OP_plus_uconst 1, DW_OP_plus_uconst 1, DW_OP_stack_value] undef
	@DEBUG_VALUE: usmart_get_parmpos:temp <- $r2
	.loc	1 0 14                          @ ../Middlewares/USMART/usmart_str.c:0:14
	b	.LBB10_55
.Ltmp491:
.LBB10_43:                              @   in Loop: Header=BB10_15 Depth=1
	@DEBUG_VALUE: usmart_strlen:len <- [DW_OP_constu 1, DW_OP_or, DW_OP_stack_value] $lr
	@DEBUG_VALUE: usmart_strlen:str <- [DW_OP_constu 1, DW_OP_minus, DW_OP_stack_value] $r2
	@DEBUG_VALUE: usmart_get_fparam:n <- $r8
	@DEBUG_VALUE: usmart_get_fparam:parn <- [$sp+0]
	.loc	1 57 12 is_stmt 1               @ ../Middlewares/USMART/usmart_str.c:57:12
	orr	lr, lr, #1
.Ltmp492:
	@DEBUG_VALUE: usmart_get_fparam:len <- undef
	@DEBUG_VALUE: usmart_get_parmpos:num <- $r8
	@DEBUG_VALUE: usmart_get_parmpos:temp <- 0
	@DEBUG_VALUE: usmart_get_parmpos:i <- 0
	.loc	1 473 5                         @ ../Middlewares/USMART/usmart_str.c:473:5
	lsls.w	r2, r8, #24
.Ltmp493:
	bne	.LBB10_30
	b	.LBB10_46
.Ltmp494:
.LBB10_44:                              @   in Loop: Header=BB10_15 Depth=1
	@DEBUG_VALUE: usmart_strlen:len <- [DW_OP_constu 2, DW_OP_or, DW_OP_stack_value] $lr
	@DEBUG_VALUE: usmart_strlen:str <- $r2
	@DEBUG_VALUE: usmart_get_fparam:n <- $r8
	@DEBUG_VALUE: usmart_get_fparam:parn <- [$sp+0]
	.loc	1 57 12                         @ ../Middlewares/USMART/usmart_str.c:57:12
	orr	lr, lr, #2
.Ltmp495:
	@DEBUG_VALUE: usmart_get_fparam:len <- undef
	@DEBUG_VALUE: usmart_get_parmpos:num <- $r8
	@DEBUG_VALUE: usmart_get_parmpos:temp <- 0
	@DEBUG_VALUE: usmart_get_parmpos:i <- 0
	.loc	1 473 5                         @ ../Middlewares/USMART/usmart_str.c:473:5
	lsls.w	r2, r8, #24
.Ltmp496:
	.loc	1 0 5 is_stmt 0                 @ ../Middlewares/USMART/usmart_str.c:0:5
	bne	.LBB10_30
	b	.LBB10_46
.Ltmp497:
.LBB10_45:                              @   in Loop: Header=BB10_15 Depth=1
	@DEBUG_VALUE: usmart_strlen:len <- [DW_OP_constu 3, DW_OP_or, DW_OP_stack_value] $lr
	@DEBUG_VALUE: usmart_strlen:str <- [DW_OP_plus_uconst 1, DW_OP_stack_value] $r2
	@DEBUG_VALUE: usmart_get_fparam:n <- $r8
	@DEBUG_VALUE: usmart_get_fparam:parn <- [$sp+0]
	.loc	1 57 12 is_stmt 1               @ ../Middlewares/USMART/usmart_str.c:57:12
	orr	lr, lr, #3
.Ltmp498:
	@DEBUG_VALUE: usmart_get_fparam:len <- undef
	@DEBUG_VALUE: usmart_get_parmpos:num <- $r8
	@DEBUG_VALUE: usmart_get_parmpos:temp <- 0
	@DEBUG_VALUE: usmart_get_parmpos:i <- 0
	.loc	1 473 5                         @ ../Middlewares/USMART/usmart_str.c:473:5
	lsls.w	r2, r8, #24
.Ltmp499:
	bne	.LBB10_30
.Ltmp500:
.LBB10_46:                              @   in Loop: Header=BB10_15 Depth=1
	@DEBUG_VALUE: usmart_get_parmpos:i <- 0
	@DEBUG_VALUE: usmart_get_parmpos:temp <- 0
	@DEBUG_VALUE: usmart_get_parmpos:num <- $r8
	@DEBUG_VALUE: usmart_get_fparam:n <- $r8
	@DEBUG_VALUE: usmart_get_fparam:parn <- [$sp+0]
	.loc	1 0 5 is_stmt 0                 @ ../Middlewares/USMART/usmart_str.c:0:5
	movs	r2, #0
.Ltmp501:
.LBB10_47:                              @   in Loop: Header=BB10_15 Depth=1
	@DEBUG_VALUE: usmart_get_fparam:n <- $r8
	@DEBUG_VALUE: usmart_get_fparam:parn <- [$sp+0]
	@DEBUG_VALUE: usmart_get_fparam:len <- undef
	.loc	1 535 47 is_stmt 1              @ ../Middlewares/USMART/usmart_str.c:535:47
	uxtab	r1, r9, r2
.Ltmp502:
	@DEBUG_VALUE: usmart_strcopy:src <- [DW_OP_plus_uconst 11, DW_OP_stack_value] $sp
	@DEBUG_VALUE: usmart_strcopy:dst <- [DW_OP_plus_uconst 36, DW_OP_stack_value] $r1
	.loc	1 37 13                         @ ../Middlewares/USMART/usmart_str.c:37:13
	cmp.w	r12, #0
	.loc	1 35 14                         @ ../Middlewares/USMART/usmart_str.c:35:14
	strb.w	r12, [r1, #36]
	.loc	1 37 13                         @ ../Middlewares/USMART/usmart_str.c:37:13
	beq	.LBB10_53
.Ltmp503:
@ %bb.48:                               @   in Loop: Header=BB10_15 Depth=1
	@DEBUG_VALUE: usmart_strcopy:dst <- [DW_OP_plus_uconst 36, DW_OP_stack_value] $r1
	@DEBUG_VALUE: usmart_strcopy:src <- [DW_OP_plus_uconst 11, DW_OP_stack_value] $sp
	@DEBUG_VALUE: usmart_get_fparam:n <- $r8
	@DEBUG_VALUE: usmart_get_fparam:parn <- [$sp+0]
	.loc	1 0 0 is_stmt 0                 @ ../Middlewares/USMART/usmart_str.c:0:0
	uxtb	r1, r2
.Ltmp504:
	.loc	1 33 5 is_stmt 1                @ ../Middlewares/USMART/usmart_str.c:33:5
	add	r1, r9
	movs	r2, #0
.Ltmp505:
	.p2align	2
.LBB10_49:                              @   Parent Loop BB10_15 Depth=1
                                        @ =>  This Inner Loop Header: Depth=2
	@DEBUG_VALUE: usmart_get_fparam:n <- $r8
	@DEBUG_VALUE: usmart_get_fparam:parn <- [$sp+0]
	@DEBUG_VALUE: usmart_strcopy:dst <- [DW_OP_LLVM_arg 0, DW_OP_consts 4, DW_OP_div, DW_OP_consts 4, DW_OP_mul, DW_OP_consts 36, DW_OP_LLVM_arg 0, DW_OP_LLVM_convert 32 7, DW_OP_plus, DW_OP_LLVM_arg 0, DW_OP_plus, DW_OP_plus, DW_OP_stack_value] undef
	@DEBUG_VALUE: usmart_strcopy:src <- [DW_OP_LLVM_arg 0, DW_OP_consts 4, DW_OP_div, DW_OP_consts 4, DW_OP_mul, DW_OP_consts 1, DW_OP_LLVM_arg 1, DW_OP_plus_uconst 11, DW_OP_plus, DW_OP_plus, DW_OP_stack_value] $r2, $sp
	.loc	1 40 12                         @ ../Middlewares/USMART/usmart_str.c:40:12
	add.w	r3, r10, r2
.Ltmp506:
	@DEBUG_VALUE: usmart_strcopy:dst <- [DW_OP_LLVM_arg 0, DW_OP_consts 4, DW_OP_div, DW_OP_consts 4, DW_OP_mul, DW_OP_consts 37, DW_OP_LLVM_arg 0, DW_OP_LLVM_convert 32 7, DW_OP_plus, DW_OP_LLVM_arg 0, DW_OP_plus, DW_OP_plus, DW_OP_stack_value] undef
	.loc	1 35 16                         @ ../Middlewares/USMART/usmart_str.c:35:16
	ldrb	r7, [r3, #1]
	adds	r5, r1, r2
	.loc	1 35 14 is_stmt 0               @ ../Middlewares/USMART/usmart_str.c:35:14
	strb.w	r7, [r5, #37]
	.loc	1 37 13 is_stmt 1               @ ../Middlewares/USMART/usmart_str.c:37:13
	cbz	r7, .LBB10_53
.Ltmp507:
@ %bb.50:                               @   in Loop: Header=BB10_49 Depth=2
	@DEBUG_VALUE: usmart_strcopy:src <- [DW_OP_LLVM_arg 0, DW_OP_consts 4, DW_OP_div, DW_OP_consts 4, DW_OP_mul, DW_OP_consts 1, DW_OP_LLVM_arg 1, DW_OP_plus_uconst 11, DW_OP_plus, DW_OP_plus, DW_OP_stack_value] $r2, $sp
	@DEBUG_VALUE: usmart_get_fparam:n <- $r8
	@DEBUG_VALUE: usmart_get_fparam:parn <- [$sp+0]
	@DEBUG_VALUE: usmart_strcopy:dst <- [DW_OP_LLVM_arg 0, DW_OP_consts 4, DW_OP_div, DW_OP_consts 4, DW_OP_mul, DW_OP_consts 38, DW_OP_LLVM_arg 0, DW_OP_LLVM_convert 32 7, DW_OP_plus, DW_OP_LLVM_arg 0, DW_OP_plus, DW_OP_plus, DW_OP_stack_value] undef
	@DEBUG_VALUE: usmart_strcopy:src <- [DW_OP_LLVM_arg 0, DW_OP_consts 4, DW_OP_div, DW_OP_consts 4, DW_OP_mul, DW_OP_consts 2, DW_OP_LLVM_arg 1, DW_OP_plus_uconst 11, DW_OP_plus, DW_OP_plus, DW_OP_stack_value] $r2, $sp
	.loc	1 35 16                         @ ../Middlewares/USMART/usmart_str.c:35:16
	ldrb	r7, [r3, #2]
	.loc	1 35 14 is_stmt 0               @ ../Middlewares/USMART/usmart_str.c:35:14
	strb.w	r7, [r5, #38]
	.loc	1 37 13 is_stmt 1               @ ../Middlewares/USMART/usmart_str.c:37:13
	cbz	r7, .LBB10_53
.Ltmp508:
@ %bb.51:                               @   in Loop: Header=BB10_49 Depth=2
	@DEBUG_VALUE: usmart_strcopy:src <- [DW_OP_LLVM_arg 0, DW_OP_consts 4, DW_OP_div, DW_OP_consts 4, DW_OP_mul, DW_OP_consts 2, DW_OP_LLVM_arg 1, DW_OP_plus_uconst 11, DW_OP_plus, DW_OP_plus, DW_OP_stack_value] $r2, $sp
	@DEBUG_VALUE: usmart_get_fparam:n <- $r8
	@DEBUG_VALUE: usmart_get_fparam:parn <- [$sp+0]
	@DEBUG_VALUE: usmart_strcopy:dst <- [DW_OP_LLVM_arg 0, DW_OP_consts 4, DW_OP_div, DW_OP_consts 4, DW_OP_mul, DW_OP_consts 39, DW_OP_LLVM_arg 0, DW_OP_LLVM_convert 32 7, DW_OP_plus, DW_OP_LLVM_arg 0, DW_OP_plus, DW_OP_plus, DW_OP_stack_value] undef
	@DEBUG_VALUE: usmart_strcopy:src <- [DW_OP_LLVM_arg 0, DW_OP_consts 4, DW_OP_div, DW_OP_consts 4, DW_OP_mul, DW_OP_consts 3, DW_OP_LLVM_arg 1, DW_OP_plus_uconst 11, DW_OP_plus, DW_OP_plus, DW_OP_stack_value] $r2, $sp
	.loc	1 35 16                         @ ../Middlewares/USMART/usmart_str.c:35:16
	ldrb	r7, [r3, #3]
	.loc	1 35 14 is_stmt 0               @ ../Middlewares/USMART/usmart_str.c:35:14
	strb.w	r7, [r5, #39]
	.loc	1 37 13 is_stmt 1               @ ../Middlewares/USMART/usmart_str.c:37:13
	cbz	r7, .LBB10_53
.Ltmp509:
@ %bb.52:                               @   in Loop: Header=BB10_49 Depth=2
	@DEBUG_VALUE: usmart_strcopy:src <- [DW_OP_LLVM_arg 0, DW_OP_consts 4, DW_OP_div, DW_OP_consts 4, DW_OP_mul, DW_OP_consts 3, DW_OP_LLVM_arg 1, DW_OP_plus_uconst 11, DW_OP_plus, DW_OP_plus, DW_OP_stack_value] $r2, $sp
	@DEBUG_VALUE: usmart_get_fparam:n <- $r8
	@DEBUG_VALUE: usmart_get_fparam:parn <- [$sp+0]
	@DEBUG_VALUE: usmart_strcopy:dst <- [DW_OP_LLVM_arg 0, DW_OP_consts 4, DW_OP_div, DW_OP_consts 4, DW_OP_mul, DW_OP_consts 40, DW_OP_LLVM_arg 0, DW_OP_LLVM_convert 32 7, DW_OP_plus, DW_OP_LLVM_arg 0, DW_OP_plus, DW_OP_plus, DW_OP_stack_value] undef
	@DEBUG_VALUE: usmart_strcopy:src <- [DW_OP_LLVM_arg 0, DW_OP_consts 4, DW_OP_div, DW_OP_consts 4, DW_OP_mul, DW_OP_consts 4, DW_OP_LLVM_arg 1, DW_OP_plus_uconst 11, DW_OP_plus, DW_OP_plus, DW_OP_stack_value] $r2, $sp
	.loc	1 35 16                         @ ../Middlewares/USMART/usmart_str.c:35:16
	ldrb	r3, [r3, #4]
	.loc	1 37 13                         @ ../Middlewares/USMART/usmart_str.c:37:13
	adds	r2, #4
.Ltmp510:
	cmp	r3, #0
	.loc	1 35 14                         @ ../Middlewares/USMART/usmart_str.c:35:14
	strb.w	r3, [r5, #40]
	.loc	1 37 13                         @ ../Middlewares/USMART/usmart_str.c:37:13
	bne	.LBB10_49
.Ltmp511:
	.p2align	2
.LBB10_53:                              @   in Loop: Header=BB10_15 Depth=1
	@DEBUG_VALUE: usmart_get_fparam:n <- $r8
	@DEBUG_VALUE: usmart_get_fparam:parn <- [$sp+0]
	.loc	1 536 45                        @ ../Middlewares/USMART/usmart_str.c:536:45
	uxtb.w	r1, r8
	.loc	1 536 37 is_stmt 0              @ ../Middlewares/USMART/usmart_str.c:536:37
	ldrh.w	r2, [r9, #24]
	.loc	1 536 42                        @ ../Middlewares/USMART/usmart_str.c:536:42
	movs	r3, #1
	lsl.w	r1, r3, r1
	.loc	1 536 37                        @ ../Middlewares/USMART/usmart_str.c:536:37
	orrs	r1, r2
	strh.w	r1, [r9, #24]
	.loc	1 537 17 is_stmt 1              @ ../Middlewares/USMART/usmart_str.c:537:17
	uxtab	r1, r9, r8
	.loc	1 538 18                        @ ../Middlewares/USMART/usmart_str.c:538:18
	add.w	r8, r8, #1
.Ltmp512:
	@DEBUG_VALUE: usmart_get_fparam:n <- $r8
	.loc	1 0 0 is_stmt 0                 @ ../Middlewares/USMART/usmart_str.c:0:0
	add.w	r7, lr, #1
.Ltmp513:
	@DEBUG_VALUE: usmart_get_fparam:len <- $r7
	.loc	1 538 18                        @ ../Middlewares/USMART/usmart_str.c:538:18
	uxtb.w	r2, r8
	.loc	1 540 21 is_stmt 1              @ ../Middlewares/USMART/usmart_str.c:540:21
	cmp	r2, #10
	.loc	1 537 39                        @ ../Middlewares/USMART/usmart_str.c:537:39
	strb	r7, [r1, #26]
	add.w	r7, sp, #219
.Ltmp514:
	.loc	1 540 21                        @ ../Middlewares/USMART/usmart_str.c:540:21
	bls	.LBB10_56
	b	.LBB10_60
.Ltmp515:
.LBB10_54:                              @   in Loop: Header=BB10_15 Depth=1
	@DEBUG_VALUE: usmart_get_fparam:res <- $r12
	@DEBUG_VALUE: usmart_get_parmpos:num <- $r8
	@DEBUG_VALUE: usmart_get_fparam:n <- $r8
	@DEBUG_VALUE: usmart_get_fparam:parn <- [$sp+0]
	.loc	1 0 21 is_stmt 0                @ ../Middlewares/USMART/usmart_str.c:0:21
	add.w	r10, sp, #11
.Ltmp516:
.LBB10_55:                              @   in Loop: Header=BB10_15 Depth=1
	@DEBUG_VALUE: usmart_get_fparam:res <- $r12
	@DEBUG_VALUE: usmart_get_fparam:n <- $r8
	@DEBUG_VALUE: usmart_get_fparam:parn <- [$sp+0]
	.loc	1 523 51 is_stmt 1              @ ../Middlewares/USMART/usmart_str.c:523:51
	uxtab	r0, r9, r2
	.loc	1 523 76 is_stmt 0              @ ../Middlewares/USMART/usmart_str.c:523:76
	str.w	r12, [r0, #36]
	.loc	1 524 41 is_stmt 1              @ ../Middlewares/USMART/usmart_str.c:524:41
	ldrh.w	r0, [r9, #24]
	.loc	1 524 48 is_stmt 0              @ ../Middlewares/USMART/usmart_str.c:524:48
	movs	r1, #1
	lsl.w	r1, r1, lr
	.loc	1 526 22 is_stmt 1              @ ../Middlewares/USMART/usmart_str.c:526:22
	add.w	r8, r8, #1
.Ltmp517:
	@DEBUG_VALUE: usmart_get_fparam:n <- $r8
	.loc	1 524 41                        @ ../Middlewares/USMART/usmart_str.c:524:41
	bics	r0, r1
	.loc	1 526 22                        @ ../Middlewares/USMART/usmart_str.c:526:22
	uxtb.w	r1, r8
	.loc	1 524 41                        @ ../Middlewares/USMART/usmart_str.c:524:41
	strh.w	r0, [r9, #24]
	.loc	1 525 21                        @ ../Middlewares/USMART/usmart_str.c:525:21
	add.w	r0, r9, lr
	.loc	1 528 25                        @ ../Middlewares/USMART/usmart_str.c:528:25
	cmp	r1, #10
	.loc	1 525 43                        @ ../Middlewares/USMART/usmart_str.c:525:43
	mov.w	r1, #4
	strb	r1, [r0, #26]
	mov	r0, r6
	.loc	1 528 25                        @ ../Middlewares/USMART/usmart_str.c:528:25
	bhi	.LBB10_60
.Ltmp518:
	.p2align	2
.LBB10_56:                              @   in Loop: Header=BB10_15 Depth=1
	@DEBUG_VALUE: usmart_get_fparam:n <- $r8
	@DEBUG_VALUE: usmart_get_fparam:parn <- [$sp+0]
	.loc	1 0 0 is_stmt 0                 @ ../Middlewares/USMART/usmart_str.c:0:0
	add	r11, r0
	@DEBUG_VALUE: usmart_get_fparam:n <- $r8
.Ltmp519:
	@DEBUG_VALUE: usmart_get_fparam:str <- $r11
	.loc	1 548 13 is_stmt 1              @ ../Middlewares/USMART/usmart_str.c:548:13
	ldrb.w	r0, [r11]
	.loc	1 548 25 is_stmt 0              @ ../Middlewares/USMART/usmart_str.c:548:25
	cmp	r0, #41
	beq	.LBB10_58
.Ltmp520:
@ %bb.57:                               @   in Loop: Header=BB10_15 Depth=1
	@DEBUG_VALUE: usmart_get_fparam:n <- $r8
	@DEBUG_VALUE: usmart_get_fparam:parn <- [$sp+0]
	@DEBUG_VALUE: usmart_get_fparam:str <- $r11
	cmp	r0, #0
	bne.w	.LBB10_15
.Ltmp521:
.LBB10_58:
	@DEBUG_VALUE: usmart_get_fparam:n <- $r8
	@DEBUG_VALUE: usmart_get_fparam:parn <- [$sp+0]
	@DEBUG_VALUE: usmart_get_fparam:str <- $r11
	.loc	1 551 11 is_stmt 1              @ ../Middlewares/USMART/usmart_str.c:551:11
	ldr	r0, [sp]                        @ 4-byte Reload
.Ltmp522:
	@DEBUG_VALUE: usmart_get_fparam:parn <- $r0
	strb.w	r8, [r0]
	movs	r0, #0
.Ltmp523:
	@DEBUG_VALUE: usmart_get_fparam:parn <- [DW_OP_LLVM_entry_value 1] $r1
	.loc	1 553 1                         @ ../Middlewares/USMART/usmart_str.c:553:1
	add	sp, #220
	pop.w	{r4, r5, r6, r7, r8, r9, r10, r11, pc}
.Ltmp524:
.LBB10_59:
	@DEBUG_VALUE: usmart_get_fparam:n <- $r8
	@DEBUG_VALUE: usmart_get_fparam:parn <- [$sp+0]
	.loc	1 0 1 is_stmt 0                 @ ../Middlewares/USMART/usmart_str.c:0:1
	movs	r0, #2
	.loc	1 553 1                         @ ../Middlewares/USMART/usmart_str.c:553:1
	add	sp, #220
	pop.w	{r4, r5, r6, r7, r8, r9, r10, r11, pc}
.Ltmp525:
.LBB10_60:
	@DEBUG_VALUE: usmart_get_fparam:n <- $r8
	@DEBUG_VALUE: usmart_get_fparam:parn <- [$sp+0]
	.loc	1 0 1                           @ ../Middlewares/USMART/usmart_str.c:0:1
	movs	r0, #3
	.loc	1 553 1                         @ ../Middlewares/USMART/usmart_str.c:553:1
	add	sp, #220
	pop.w	{r4, r5, r6, r7, r8, r9, r10, r11, pc}
.Ltmp526:
.Lfunc_end10:
	.size	usmart_get_fparam, .Lfunc_end10-usmart_get_fparam
	.cfi_endproc
	.cantunwind
	.fnend
                                        @ -- End function
	.type	.L.str,%object                  @ @.str
	.section	.rodata.str1.1,"aMS",%progbits,1
.L.str:
	.asciz	"void"
	.size	.L.str, 5

	.section	".note.GNU-stack","",%progbits
	.eabi_attribute	30, 1	@ Tag_ABI_optimization_goals
	.ARM_attribute	16, 1	@ Tag_AV_eba