	.text
	.syntax unified
	.eabi_attribute	67, "2.09"	@ Tag_conformance
	.cpu	cortex-m4
	.eabi_attribute	6, 13	@ Tag_CPU_arch
	.eabi_attribute	7, 77	@ Tag_CPU_arch_profile
	.eabi_attribute	8, 0	@ Tag_ARM_ISA_use
	.eabi_attribute	9, 2	@ Tag_THUMB_ISA_use
	.fpu	fpv4-sp-d16
	.eabi_attribute	27, 1	@ Tag_ABI_HardFP_use
	.eabi_attribute	36, 1	@ Tag_FP_HP_extension
	.eabi_attribute	34, 1	@ Tag_CPU_unaligned_access
	.eabi_attribute	17, 1	@ Tag_ABI_PCS_GOT_use
	.eabi_attribute	20, 2	@ Tag_ABI_FP_denormal
	.eabi_attribute	21, 0	@ Tag_ABI_FP_exceptions
	.eabi_attribute	23, 1	@ Tag_ABI_FP_number_model
	.eabi_attribute	24, 1	@ Tag_ABI_align_needed
	.eabi_attribute	25, 1	@ Tag_ABI_align_preserved
	.eabi_attribute	28, 1	@ Tag_ABI_VFP_args
	.eabi_attribute	38, 1	@ Tag_ABI_FP_16bit_format
	.eabi_attribute	18, 2	@ Tag_ABI_PCS_wchar_t
	.eabi_attribute	26, 1	@ Tag_ABI_enum_size
	.eabi_attribute	14, 0	@ Tag_ABI_PCS_R9_use
	.file	"led.c"
	.file	1 "E:\\StudyNote\\study_STM32-HAL\\STM32F4_Quick_Start_Guide_HAL\\2.code\\19.RTC-Alarms\\Project" "../Libraries/STM32F4xx_HAL_Driver/Inc\\stm32f4xx_hal_gpio.h"
	.file	2 "E:\\dianzi\\MDKv5\\ARM\\ARMCLANG\\Bin\\..\\include" "stdint.h"
	.file	3 "E:\\StudyNote\\study_STM32-HAL\\STM32F4_Quick_Start_Guide_HAL\\2.code\\19.RTC-Alarms\\Project" "../Libraries/CMSIS/Device/ST/STM32F4xx/Include/stm32f407xx.h"
	.section	.text.bsp_led_init,"ax",%progbits
	.hidden	bsp_led_init                    @ -- Begin function bsp_led_init
	.globl	bsp_led_init
	.p2align	2
	.type	bsp_led_init,%function
	.code	16                              @ @bsp_led_init
	.thumb_func
bsp_led_init:
.Lfunc_begin0:
	.file	4 "E:\\StudyNote\\study_STM32-HAL\\STM32F4_Quick_Start_Guide_HAL\\2.code\\19.RTC-Alarms\\Project" "../User/BSP/led/led.c"
	.loc	4 4 0                           @ ../User/BSP/led/led.c:4:0
	.fnstart
	.cfi_sections .debug_frame
	.cfi_startproc
@ %bb.0:
	.save	{r4, r5, r7, lr}
	push	{r4, r5, r7, lr}
	.cfi_def_cfa_offset 16
	.cfi_offset lr, -4
	.cfi_offset r7, -8
	.cfi_offset r5, -12
	.cfi_offset r4, -16
	.pad	#24
	sub	sp, #24
	.cfi_def_cfa_offset 40
	movs	r0, #0
.Ltmp0:
	.loc	4 6 5 prologue_end              @ ../User/BSP/led/led.c:6:5
	str	r0, [sp, #4]
	movw	r0, #14384
	movt	r0, #16386
	ldr	r1, [r0]
	movw	r4, #5120
	orr	r1, r1, #32
	str	r1, [r0]
	ldr	r0, [r0]
	movt	r4, #16386
	and	r0, r0, #32
	str	r0, [sp, #4]
	ldr	r0, [sp, #4]
	mov.w	r0, #512
.Ltmp1:
	.loc	4 7 28                          @ ../User/BSP/led/led.c:7:28
	str	r0, [sp, #4]
	movs	r0, #1
	.loc	4 8 29                          @ ../User/BSP/led/led.c:8:29
	strd	r0, r0, [sp, #8]
	movs	r0, #3
	add	r5, sp, #4
	.loc	4 10 30                         @ ../User/BSP/led/led.c:10:30
	str	r0, [sp, #16]
	.loc	4 11 5                          @ ../User/BSP/led/led.c:11:5
	mov	r0, r4
	mov	r1, r5
	bl	HAL_GPIO_Init
.Ltmp2:
	.loc	4 0 5 is_stmt 0                 @ ../User/BSP/led/led.c:0:5
	mov.w	r0, #1024
	.loc	4 12 28 is_stmt 1               @ ../User/BSP/led/led.c:12:28
	str	r0, [sp, #4]
	.loc	4 13 5                          @ ../User/BSP/led/led.c:13:5
	mov	r0, r4
	mov	r1, r5
	bl	HAL_GPIO_Init
.Ltmp3:
	.loc	4 14 5                          @ ../User/BSP/led/led.c:14:5
	mov	r0, r4
	mov.w	r1, #1536
	movs	r2, #1
	bl	HAL_GPIO_WritePin
.Ltmp4:
	.loc	4 15 1                          @ ../User/BSP/led/led.c:15:1
	add	sp, #24
	pop	{r4, r5, r7, pc}
.Ltmp5:
.Lfunc_end0:
	.size	bsp_led_init, .Lfunc_end0-bsp_led_init
	.cfi_endproc
	.cantunwind
	.fnend
                                        @ -- End function
	.section	".note.GNU-stack","",%progbits
	.eabi_attribute	30, 1	@ Tag_ABI_optimization_goals
	.ARM_attribute	16, 1	@ Tag_AV_eba