	.text
	.syntax unified
	.eabi_attribute	67, "2.09"	@ Tag_conformance
	.cpu	cortex-m4
	.eabi_attribute	6, 13	@ Tag_CPU_arch
	.eabi_attribute	7, 77	@ Tag_CPU_arch_profile
	.eabi_attribute	8, 0	@ Tag_ARM_ISA_use
	.eabi_attribute	9, 2	@ Tag_THUMB_ISA_use
	.fpu	fpv4-sp-d16
	.eabi_attribute	27, 1	@ Tag_ABI_HardFP_use
	.eabi_attribute	36, 1	@ Tag_FP_HP_extension
	.eabi_attribute	34, 1	@ Tag_CPU_unaligned_access
	.eabi_attribute	17, 1	@ Tag_ABI_PCS_GOT_use
	.eabi_attribute	20, 2	@ Tag_ABI_FP_denormal
	.eabi_attribute	21, 0	@ Tag_ABI_FP_exceptions
	.eabi_attribute	23, 1	@ Tag_ABI_FP_number_model
	.eabi_attribute	24, 1	@ Tag_ABI_align_needed
	.eabi_attribute	25, 1	@ Tag_ABI_align_preserved
	.eabi_attribute	28, 1	@ Tag_ABI_VFP_args
	.eabi_attribute	38, 1	@ Tag_ABI_FP_16bit_format
	.eabi_attribute	18, 2	@ Tag_ABI_PCS_wchar_t
	.eabi_attribute	26, 1	@ Tag_ABI_enum_size
	.eabi_attribute	14, 0	@ Tag_ABI_PCS_R9_use
	.file	"stm32f4xx_hal_sram.c"
	.file	1 "E:\\StudyNote\\study_STM32-HAL\\STM32F4_Quick_Start_Guide_HAL\\2.code\\19.RTC-Alarms\\Project" "../Libraries/STM32F4xx_HAL_Driver/Inc/stm32f4xx_hal_def.h"
	.file	2 "E:\\StudyNote\\study_STM32-HAL\\STM32F4_Quick_Start_Guide_HAL\\2.code\\19.RTC-Alarms\\Project" "../Libraries/STM32F4xx_HAL_Driver/Inc\\stm32f4xx_hal_sram.h"
	.file	3 "E:\\StudyNote\\study_STM32-HAL\\STM32F4_Quick_Start_Guide_HAL\\2.code\\19.RTC-Alarms\\Project" "../Libraries/STM32F4xx_HAL_Driver/Inc\\stm32f4xx_hal_dma.h"
	.file	4 "E:\\dianzi\\MDKv5\\ARM\\ARMCLANG\\Bin\\..\\include" "stdint.h"
	.section	.text.HAL_SRAM_Init,"ax",%progbits
	.hidden	HAL_SRAM_Init                   @ -- Begin function HAL_SRAM_Init
	.globl	HAL_SRAM_Init
	.p2align	2
	.type	HAL_SRAM_Init,%function
	.code	16                              @ @HAL_SRAM_Init
	.thumb_func
HAL_SRAM_Init:
.Lfunc_begin0:
	.file	5 "E:\\StudyNote\\study_STM32-HAL\\STM32F4_Quick_Start_Guide_HAL\\2.code\\19.RTC-Alarms\\Project" "../Libraries/STM32F4xx_HAL_Driver/Src/stm32f4xx_hal_sram.c"
	.loc	5 166 0                         @ ../Libraries/STM32F4xx_HAL_Driver/Src/stm32f4xx_hal_sram.c:166:0
	.fnstart
	.cfi_sections .debug_frame
	.cfi_startproc
@ %bb.0:
	@DEBUG_VALUE: HAL_SRAM_Init:hsram <- $r0
	@DEBUG_VALUE: HAL_SRAM_Init:Timing <- $r1
	@DEBUG_VALUE: HAL_SRAM_Init:ExtTiming <- $r2
	@DEBUG_VALUE: HAL_SRAM_Init:ExtTiming <- $r2
	@DEBUG_VALUE: HAL_SRAM_Init:hsram <- $r0
	.loc	5 168 6 prologue_end            @ ../Libraries/STM32F4xx_HAL_Driver/Src/stm32f4xx_hal_sram.c:168:6
	cmp	r0, #0
	@DEBUG_VALUE: HAL_SRAM_Init:Timing <- $r1
	itt	eq
	moveq	r0, #1
.Ltmp0:
	@DEBUG_VALUE: HAL_SRAM_Init:hsram <- [DW_OP_LLVM_entry_value 1] $r0
	.loc	5 207 1                         @ ../Libraries/STM32F4xx_HAL_Driver/Src/stm32f4xx_hal_sram.c:207:1
	bxeq	lr
.Ltmp1:
.LBB0_1:
	@DEBUG_VALUE: HAL_SRAM_Init:hsram <- [DW_OP_LLVM_entry_value 1] $r0
	@DEBUG_VALUE: HAL_SRAM_Init:ExtTiming <- $r2
	@DEBUG_VALUE: HAL_SRAM_Init:Timing <- $r1
	.save	{r4, r5, r6, lr}
	push	{r4, r5, r6, lr}
	.cfi_def_cfa_offset 16
	.cfi_offset lr, -4
	.cfi_offset r6, -8
	.cfi_offset r5, -12
	.cfi_offset r4, -16
	mov	r4, r0
.Ltmp2:
	@DEBUG_VALUE: HAL_SRAM_Init:hsram <- $r4
	.loc	5 173 13                        @ ../Libraries/STM32F4xx_HAL_Driver/Src/stm32f4xx_hal_sram.c:173:13
	ldrb.w	r0, [r0, #73]
	mov	r5, r2
.Ltmp3:
	@DEBUG_VALUE: HAL_SRAM_Init:ExtTiming <- $r5
	@DEBUG_VALUE: HAL_SRAM_Init:ExtTiming <- $r5
	.loc	5 0 13 is_stmt 0                @ ../Libraries/STM32F4xx_HAL_Driver/Src/stm32f4xx_hal_sram.c:0:13
	mov	r6, r1
.Ltmp4:
	@DEBUG_VALUE: HAL_SRAM_Init:Timing <- $r6
	@DEBUG_VALUE: HAL_SRAM_Init:Timing <- $r6
	.loc	5 173 6                         @ ../Libraries/STM32F4xx_HAL_Driver/Src/stm32f4xx_hal_sram.c:173:6
	cbnz	r0, .LBB0_3
.Ltmp5:
@ %bb.2:
	@DEBUG_VALUE: HAL_SRAM_Init:Timing <- $r6
	@DEBUG_VALUE: HAL_SRAM_Init:ExtTiming <- $r5
	@DEBUG_VALUE: HAL_SRAM_Init:hsram <- $r4
	.loc	5 0 6                           @ ../Libraries/STM32F4xx_HAL_Driver/Src/stm32f4xx_hal_sram.c:0:6
	movs	r0, #0
.Ltmp6:
	.loc	5 176 17 is_stmt 1              @ ../Libraries/STM32F4xx_HAL_Driver/Src/stm32f4xx_hal_sram.c:176:17
	strb.w	r0, [r4, #72]
	.loc	5 190 5                         @ ../Libraries/STM32F4xx_HAL_Driver/Src/stm32f4xx_hal_sram.c:190:5
	mov	r0, r4
	bl	HAL_SRAM_MspInit
.Ltmp7:
.LBB0_3:
	@DEBUG_VALUE: HAL_SRAM_Init:Timing <- $r6
	@DEBUG_VALUE: HAL_SRAM_Init:ExtTiming <- $r5
	@DEBUG_VALUE: HAL_SRAM_Init:hsram <- $r4
	.loc	5 195 27                        @ ../Libraries/STM32F4xx_HAL_Driver/Src/stm32f4xx_hal_sram.c:195:27
	ldr	r0, [r4]
	.loc	5 195 46 is_stmt 0              @ ../Libraries/STM32F4xx_HAL_Driver/Src/stm32f4xx_hal_sram.c:195:46
	add.w	r1, r4, #8
	.loc	5 195 3                         @ ../Libraries/STM32F4xx_HAL_Driver/Src/stm32f4xx_hal_sram.c:195:3
	bl	FSMC_NORSRAM_Init
.Ltmp8:
	.loc	5 198 34 is_stmt 1              @ ../Libraries/STM32F4xx_HAL_Driver/Src/stm32f4xx_hal_sram.c:198:34
	ldr	r0, [r4]
	.loc	5 198 64 is_stmt 0              @ ../Libraries/STM32F4xx_HAL_Driver/Src/stm32f4xx_hal_sram.c:198:64
	ldr	r2, [r4, #8]
	.loc	5 198 3                         @ ../Libraries/STM32F4xx_HAL_Driver/Src/stm32f4xx_hal_sram.c:198:3
	mov	r1, r6
	bl	FSMC_NORSRAM_Timing_Init
.Ltmp9:
	.loc	5 201 43 is_stmt 1              @ ../Libraries/STM32F4xx_HAL_Driver/Src/stm32f4xx_hal_sram.c:201:43
	ldrd	r0, r2, [r4, #4]
	.loc	5 201 97 is_stmt 0              @ ../Libraries/STM32F4xx_HAL_Driver/Src/stm32f4xx_hal_sram.c:201:97
	ldr	r3, [r4, #48]
	.loc	5 201 3                         @ ../Libraries/STM32F4xx_HAL_Driver/Src/stm32f4xx_hal_sram.c:201:3
	mov	r1, r5
	bl	FSMC_NORSRAM_Extended_Timing_Init
.Ltmp10:
	.loc	5 204 3 is_stmt 1               @ ../Libraries/STM32F4xx_HAL_Driver/Src/stm32f4xx_hal_sram.c:204:3
	ldr	r0, [r4]
	ldr	r1, [r4, #8]
	ldr.w	r2, [r0, r1, lsl #2]
	orr	r2, r2, #1
	str.w	r2, [r0, r1, lsl #2]
	movs	r0, #0
	pop	{r4, r5, r6, pc}
.Ltmp11:
.Lfunc_end0:
	.size	HAL_SRAM_Init, .Lfunc_end0-HAL_SRAM_Init
	.cfi_endproc
	.cantunwind
	.fnend
                                        @ -- End function
	.section	.text.HAL_SRAM_MspInit,"ax",%progbits
	.hidden	HAL_SRAM_MspInit                @ -- Begin function HAL_SRAM_MspInit
	.weak	HAL_SRAM_MspInit
	.p2align	2
	.type	HAL_SRAM_MspInit,%function
	.code	16                              @ @HAL_SRAM_MspInit
	.thumb_func
HAL_SRAM_MspInit:
.Lfunc_begin1:
	.loc	5 248 0                         @ ../Libraries/STM32F4xx_HAL_Driver/Src/stm32f4xx_hal_sram.c:248:0
	.fnstart
	.cfi_startproc
@ %bb.0:
	@DEBUG_VALUE: HAL_SRAM_MspInit:hsram <- $r0
	.loc	5 254 1 prologue_end            @ ../Libraries/STM32F4xx_HAL_Driver/Src/stm32f4xx_hal_sram.c:254:1
	bx	lr
.Ltmp12:
.Lfunc_end1:
	.size	HAL_SRAM_MspInit, .Lfunc_end1-HAL_SRAM_MspInit
	.cfi_endproc
	.cantunwind
	.fnend
                                        @ -- End function
	.section	.text.HAL_SRAM_DeInit,"ax",%progbits
	.hidden	HAL_SRAM_DeInit                 @ -- Begin function HAL_SRAM_DeInit
	.globl	HAL_SRAM_DeInit
	.p2align	2
	.type	HAL_SRAM_DeInit,%function
	.code	16                              @ @HAL_SRAM_DeInit
	.thumb_func
HAL_SRAM_DeInit:
.Lfunc_begin2:
	.loc	5 216 0                         @ ../Libraries/STM32F4xx_HAL_Driver/Src/stm32f4xx_hal_sram.c:216:0
	.fnstart
	.cfi_startproc
@ %bb.0:
	@DEBUG_VALUE: HAL_SRAM_DeInit:hsram <- $r0
	.save	{r4, lr}
	push	{r4, lr}
	.cfi_def_cfa_offset 8
	.cfi_offset lr, -4
	.cfi_offset r4, -8
	mov	r4, r0
.Ltmp13:
	@DEBUG_VALUE: HAL_SRAM_DeInit:hsram <- $r4
	.loc	5 227 3 prologue_end            @ ../Libraries/STM32F4xx_HAL_Driver/Src/stm32f4xx_hal_sram.c:227:3
	bl	HAL_SRAM_MspDeInit
.Ltmp14:
	.loc	5 231 29                        @ ../Libraries/STM32F4xx_HAL_Driver/Src/stm32f4xx_hal_sram.c:231:29
	ldm.w	r4, {r0, r1, r2}
	.loc	5 231 3 is_stmt 0               @ ../Libraries/STM32F4xx_HAL_Driver/Src/stm32f4xx_hal_sram.c:231:3
	bl	FSMC_NORSRAM_DeInit
.Ltmp15:
	.loc	5 0 3                           @ ../Libraries/STM32F4xx_HAL_Driver/Src/stm32f4xx_hal_sram.c:0:3
	movs	r1, #0
	.loc	5 238 3 is_stmt 1               @ ../Libraries/STM32F4xx_HAL_Driver/Src/stm32f4xx_hal_sram.c:238:3
	movs	r0, #0
	.loc	5 233 16                        @ ../Libraries/STM32F4xx_HAL_Driver/Src/stm32f4xx_hal_sram.c:233:16
	strb.w	r1, [r4, #73]
.Ltmp16:
	.loc	5 236 3                         @ ../Libraries/STM32F4xx_HAL_Driver/Src/stm32f4xx_hal_sram.c:236:3
	strb.w	r1, [r4, #72]
.Ltmp17:
	.loc	5 238 3                         @ ../Libraries/STM32F4xx_HAL_Driver/Src/stm32f4xx_hal_sram.c:238:3
	pop	{r4, pc}
.Ltmp18:
.Lfunc_end2:
	.size	HAL_SRAM_DeInit, .Lfunc_end2-HAL_SRAM_DeInit
	.cfi_endproc
	.cantunwind
	.fnend
                                        @ -- End function
	.section	.text.HAL_SRAM_MspDeInit,"ax",%progbits
	.hidden	HAL_SRAM_MspDeInit              @ -- Begin function HAL_SRAM_MspDeInit
	.weak	HAL_SRAM_MspDeInit
	.p2align	2
	.type	HAL_SRAM_MspDeInit,%function
	.code	16                              @ @HAL_SRAM_MspDeInit
	.thumb_func
HAL_SRAM_MspDeInit:
.Lfunc_begin3:
	.loc	5 263 0                         @ ../Libraries/STM32F4xx_HAL_Driver/Src/stm32f4xx_hal_sram.c:263:0
	.fnstart
	.cfi_startproc
@ %bb.0:
	@DEBUG_VALUE: HAL_SRAM_MspDeInit:hsram <- $r0
	.loc	5 269 1 prologue_end            @ ../Libraries/STM32F4xx_HAL_Driver/Src/stm32f4xx_hal_sram.c:269:1
	bx	lr
.Ltmp19:
.Lfunc_end3:
	.size	HAL_SRAM_MspDeInit, .Lfunc_end3-HAL_SRAM_MspDeInit
	.cfi_endproc
	.cantunwind
	.fnend
                                        @ -- End function
	.section	.text.HAL_SRAM_DMA_XferCpltCallback,"ax",%progbits
	.hidden	HAL_SRAM_DMA_XferCpltCallback   @ -- Begin function HAL_SRAM_DMA_XferCpltCallback
	.weak	HAL_SRAM_DMA_XferCpltCallback
	.p2align	2
	.type	HAL_SRAM_DMA_XferCpltCallback,%function
	.code	16                              @ @HAL_SRAM_DMA_XferCpltCallback
	.thumb_func
HAL_SRAM_DMA_XferCpltCallback:
.Lfunc_begin4:
	.loc	5 278 0                         @ ../Libraries/STM32F4xx_HAL_Driver/Src/stm32f4xx_hal_sram.c:278:0
	.fnstart
	.cfi_startproc
@ %bb.0:
	@DEBUG_VALUE: HAL_SRAM_DMA_XferCpltCallback:hdma <- $r0
	.loc	5 284 1 prologue_end            @ ../Libraries/STM32F4xx_HAL_Driver/Src/stm32f4xx_hal_sram.c:284:1
	bx	lr
.Ltmp20:
.Lfunc_end4:
	.size	HAL_SRAM_DMA_XferCpltCallback, .Lfunc_end4-HAL_SRAM_DMA_XferCpltCallback
	.cfi_endproc
	.cantunwind
	.fnend
                                        @ -- End function
	.section	.text.HAL_SRAM_DMA_XferErrorCallback,"ax",%progbits
	.hidden	HAL_SRAM_DMA_XferErrorCallback  @ -- Begin function HAL_SRAM_DMA_XferErrorCallback
	.weak	HAL_SRAM_DMA_XferErrorCallback
	.p2align	2
	.type	HAL_SRAM_DMA_XferErrorCallback,%function
	.code	16                              @ @HAL_SRAM_DMA_XferErrorCallback
	.thumb_func
HAL_SRAM_DMA_XferErrorCallback:
.Lfunc_begin5:
	.loc	5 293 0                         @ ../Libraries/STM32F4xx_HAL_Driver/Src/stm32f4xx_hal_sram.c:293:0
	.fnstart
	.cfi_startproc
@ %bb.0:
	@DEBUG_VALUE: HAL_SRAM_DMA_XferErrorCallback:hdma <- $r0
	.loc	5 299 1 prologue_end            @ ../Libraries/STM32F4xx_HAL_Driver/Src/stm32f4xx_hal_sram.c:299:1
	bx	lr
.Ltmp21:
.Lfunc_end5:
	.size	HAL_SRAM_DMA_XferErrorCallback, .Lfunc_end5-HAL_SRAM_DMA_XferErrorCallback
	.cfi_endproc
	.cantunwind
	.fnend
                                        @ -- End function
	.section	.text.HAL_SRAM_Read_8b,"ax",%progbits
	.hidden	HAL_SRAM_Read_8b                @ -- Begin function HAL_SRAM_Read_8b
	.globl	HAL_SRAM_Read_8b
	.p2align	2
	.type	HAL_SRAM_Read_8b,%function
	.code	16                              @ @HAL_SRAM_Read_8b
	.thumb_func
HAL_SRAM_Read_8b:
.Lfunc_begin6:
	.loc	5 329 0                         @ ../Libraries/STM32F4xx_HAL_Driver/Src/stm32f4xx_hal_sram.c:329:0
	.fnstart
	.cfi_startproc
@ %bb.0:
	@DEBUG_VALUE: HAL_SRAM_Read_8b:hsram <- $r0
	@DEBUG_VALUE: HAL_SRAM_Read_8b:pAddress <- $r1
	@DEBUG_VALUE: HAL_SRAM_Read_8b:pDstBuffer <- $r2
	@DEBUG_VALUE: HAL_SRAM_Read_8b:BufferSize <- $r3
	.save	{r4, r5, r6, r7, lr}
	push	{r4, r5, r6, r7, lr}
	.cfi_def_cfa_offset 20
	.cfi_offset lr, -4
	.cfi_offset r7, -8
	.cfi_offset r6, -12
	.cfi_offset r5, -16
	.cfi_offset r4, -20
.Ltmp22:
	@DEBUG_VALUE: HAL_SRAM_Read_8b:pSramAddress <- $r1
	.loc	5 333 3 prologue_end            @ ../Libraries/STM32F4xx_HAL_Driver/Src/stm32f4xx_hal_sram.c:333:3
	ldrb.w	r6, [r0, #72]
	mov.w	r12, #2
.Ltmp23:
	.loc	5 333 3 is_stmt 0               @ ../Libraries/STM32F4xx_HAL_Driver/Src/stm32f4xx_hal_sram.c:333:3
	cmp	r6, #1
	beq	.LBB6_12
.Ltmp24:
@ %bb.1:
	@DEBUG_VALUE: HAL_SRAM_Read_8b:pSramAddress <- $r1
	@DEBUG_VALUE: HAL_SRAM_Read_8b:BufferSize <- $r3
	@DEBUG_VALUE: HAL_SRAM_Read_8b:pDstBuffer <- $r2
	@DEBUG_VALUE: HAL_SRAM_Read_8b:pAddress <- $r1
	@DEBUG_VALUE: HAL_SRAM_Read_8b:hsram <- $r0
	.loc	5 0 3                           @ ../Libraries/STM32F4xx_HAL_Driver/Src/stm32f4xx_hal_sram.c:0:3
	mov.w	lr, #1
.Ltmp25:
	@DEBUG_VALUE: HAL_SRAM_Read_8b:pDstBuffer <- undef
	.loc	5 333 3                         @ ../Libraries/STM32F4xx_HAL_Driver/Src/stm32f4xx_hal_sram.c:333:3
	strb.w	lr, [r0, #72]
.Ltmp26:
	.loc	5 336 16 is_stmt 1              @ ../Libraries/STM32F4xx_HAL_Driver/Src/stm32f4xx_hal_sram.c:336:16
	strb.w	r12, [r0, #73]
	@DEBUG_VALUE: HAL_SRAM_Read_8b:pSramAddress <- $r1
	@DEBUG_VALUE: HAL_SRAM_Read_8b:BufferSize <- $r3
.Ltmp27:
	.loc	5 339 3                         @ ../Libraries/STM32F4xx_HAL_Driver/Src/stm32f4xx_hal_sram.c:339:3
	cbz	r3, .LBB6_11
.Ltmp28:
@ %bb.2:
	@DEBUG_VALUE: HAL_SRAM_Read_8b:pSramAddress <- $r1
	@DEBUG_VALUE: HAL_SRAM_Read_8b:BufferSize <- $r3
	@DEBUG_VALUE: HAL_SRAM_Read_8b:pAddress <- $r1
	@DEBUG_VALUE: HAL_SRAM_Read_8b:hsram <- $r0
	ands	r5, r3, #3
	sub.w	r12, r3, #1
	beq	.LBB6_5
.Ltmp29:
@ %bb.3:
	@DEBUG_VALUE: HAL_SRAM_Read_8b:pSramAddress <- $r1
	@DEBUG_VALUE: HAL_SRAM_Read_8b:BufferSize <- $r3
	@DEBUG_VALUE: HAL_SRAM_Read_8b:pAddress <- $r1
	@DEBUG_VALUE: HAL_SRAM_Read_8b:hsram <- $r0
	@DEBUG_VALUE: HAL_SRAM_Read_8b:pSramAddress <- $r1
	.loc	5 341 19                        @ ../Libraries/STM32F4xx_HAL_Driver/Src/stm32f4xx_hal_sram.c:341:19
	mov	r4, r1
	ldrb	r7, [r4], #1
.Ltmp30:
	@DEBUG_VALUE: HAL_SRAM_Read_8b:pDstBuffer <- $r2
	.loc	5 341 17 is_stmt 0              @ ../Libraries/STM32F4xx_HAL_Driver/Src/stm32f4xx_hal_sram.c:341:17
	mov	r6, r2
.Ltmp31:
	.loc	5 339 3 is_stmt 1               @ ../Libraries/STM32F4xx_HAL_Driver/Src/stm32f4xx_hal_sram.c:339:3
	cmp	r5, #1
.Ltmp32:
	.loc	5 341 17                        @ ../Libraries/STM32F4xx_HAL_Driver/Src/stm32f4xx_hal_sram.c:341:17
	strb	r7, [r6], #1
.Ltmp33:
	@DEBUG_VALUE: HAL_SRAM_Read_8b:pSramAddress <- $r4
	@DEBUG_VALUE: HAL_SRAM_Read_8b:BufferSize <- $r12
	@DEBUG_VALUE: HAL_SRAM_Read_8b:pDstBuffer <- $r6
	.loc	5 339 3                         @ ../Libraries/STM32F4xx_HAL_Driver/Src/stm32f4xx_hal_sram.c:339:3
	bne	.LBB6_6
.Ltmp34:
@ %bb.4:
	@DEBUG_VALUE: HAL_SRAM_Read_8b:pDstBuffer <- $r6
	@DEBUG_VALUE: HAL_SRAM_Read_8b:BufferSize <- $r12
	@DEBUG_VALUE: HAL_SRAM_Read_8b:pSramAddress <- $r4
	@DEBUG_VALUE: HAL_SRAM_Read_8b:pAddress <- $r1
	@DEBUG_VALUE: HAL_SRAM_Read_8b:hsram <- $r0
	.loc	5 0 3 is_stmt 0                 @ ../Libraries/STM32F4xx_HAL_Driver/Src/stm32f4xx_hal_sram.c:0:3
	mov	r3, r12
	mov	r2, r6
	.loc	5 339 3                         @ ../Libraries/STM32F4xx_HAL_Driver/Src/stm32f4xx_hal_sram.c:339:3
	cmp.w	r12, #3
	bhs	.LBB6_9
	b	.LBB6_11
.Ltmp35:
.LBB6_5:
	@DEBUG_VALUE: HAL_SRAM_Read_8b:pSramAddress <- $r1
	@DEBUG_VALUE: HAL_SRAM_Read_8b:BufferSize <- $r3
	@DEBUG_VALUE: HAL_SRAM_Read_8b:pAddress <- $r1
	@DEBUG_VALUE: HAL_SRAM_Read_8b:hsram <- $r0
	.loc	5 0 3                           @ ../Libraries/STM32F4xx_HAL_Driver/Src/stm32f4xx_hal_sram.c:0:3
	mov	r4, r1
.Ltmp36:
	@DEBUG_VALUE: HAL_SRAM_Read_8b:pAddress <- $r4
	.loc	5 339 3                         @ ../Libraries/STM32F4xx_HAL_Driver/Src/stm32f4xx_hal_sram.c:339:3
	cmp.w	r12, #3
	bhs	.LBB6_9
	b	.LBB6_11
.Ltmp37:
.LBB6_6:
	@DEBUG_VALUE: HAL_SRAM_Read_8b:pDstBuffer <- $r6
	@DEBUG_VALUE: HAL_SRAM_Read_8b:BufferSize <- $r12
	@DEBUG_VALUE: HAL_SRAM_Read_8b:pSramAddress <- $r4
	@DEBUG_VALUE: HAL_SRAM_Read_8b:pAddress <- $r1
	@DEBUG_VALUE: HAL_SRAM_Read_8b:hsram <- $r0
	@DEBUG_VALUE: HAL_SRAM_Read_8b:pDstBuffer <- undef
	@DEBUG_VALUE: HAL_SRAM_Read_8b:BufferSize <- $r12
	@DEBUG_VALUE: HAL_SRAM_Read_8b:pSramAddress <- undef
	.loc	5 341 19 is_stmt 1              @ ../Libraries/STM32F4xx_HAL_Driver/Src/stm32f4xx_hal_sram.c:341:19
	ldrb	r4, [r1, #1]
.Ltmp38:
	.loc	5 339 3                         @ ../Libraries/STM32F4xx_HAL_Driver/Src/stm32f4xx_hal_sram.c:339:3
	cmp	r5, #2
.Ltmp39:
	.loc	5 341 17                        @ ../Libraries/STM32F4xx_HAL_Driver/Src/stm32f4xx_hal_sram.c:341:17
	strb	r4, [r2, #1]
.Ltmp40:
	@DEBUG_VALUE: HAL_SRAM_Read_8b:BufferSize <- undef
	.loc	5 339 3                         @ ../Libraries/STM32F4xx_HAL_Driver/Src/stm32f4xx_hal_sram.c:339:3
	bne	.LBB6_8
.Ltmp41:
@ %bb.7:
	@DEBUG_VALUE: HAL_SRAM_Read_8b:pAddress <- $r1
	@DEBUG_VALUE: HAL_SRAM_Read_8b:hsram <- $r0
	.loc	5 0 3 is_stmt 0                 @ ../Libraries/STM32F4xx_HAL_Driver/Src/stm32f4xx_hal_sram.c:0:3
	adds	r2, #2
.Ltmp42:
	@DEBUG_VALUE: HAL_SRAM_Read_8b:pDstBuffer <- $r2
	adds	r4, r1, #2
.Ltmp43:
	@DEBUG_VALUE: HAL_SRAM_Read_8b:pSramAddress <- $r4
	subs	r3, #2
.Ltmp44:
	@DEBUG_VALUE: HAL_SRAM_Read_8b:BufferSize <- $r3
	.loc	5 339 3                         @ ../Libraries/STM32F4xx_HAL_Driver/Src/stm32f4xx_hal_sram.c:339:3
	cmp.w	r12, #3
	bhs	.LBB6_9
	b	.LBB6_11
.Ltmp45:
.LBB6_8:
	@DEBUG_VALUE: HAL_SRAM_Read_8b:pAddress <- $r1
	@DEBUG_VALUE: HAL_SRAM_Read_8b:hsram <- $r0
	@DEBUG_VALUE: HAL_SRAM_Read_8b:pDstBuffer <- $r2
	@DEBUG_VALUE: HAL_SRAM_Read_8b:BufferSize <- $r3
	@DEBUG_VALUE: HAL_SRAM_Read_8b:pSramAddress <- undef
	.loc	5 341 19 is_stmt 1              @ ../Libraries/STM32F4xx_HAL_Driver/Src/stm32f4xx_hal_sram.c:341:19
	ldrb	r4, [r1, #2]
.Ltmp46:
	.loc	5 339 37                        @ ../Libraries/STM32F4xx_HAL_Driver/Src/stm32f4xx_hal_sram.c:339:37
	subs	r3, #3
.Ltmp47:
	.loc	5 341 17                        @ ../Libraries/STM32F4xx_HAL_Driver/Src/stm32f4xx_hal_sram.c:341:17
	strb	r4, [r2, #2]
	.loc	5 342 15                        @ ../Libraries/STM32F4xx_HAL_Driver/Src/stm32f4xx_hal_sram.c:342:15
	adds	r2, #3
.Ltmp48:
	@DEBUG_VALUE: HAL_SRAM_Read_8b:pDstBuffer <- $r2
	.loc	5 343 17                        @ ../Libraries/STM32F4xx_HAL_Driver/Src/stm32f4xx_hal_sram.c:343:17
	adds	r4, r1, #3
.Ltmp49:
	@DEBUG_VALUE: HAL_SRAM_Read_8b:pSramAddress <- $r4
	.loc	5 339 3                         @ ../Libraries/STM32F4xx_HAL_Driver/Src/stm32f4xx_hal_sram.c:339:3
	cmp.w	r12, #3
	blo	.LBB6_11
.Ltmp50:
.LBB6_9:
	@DEBUG_VALUE: HAL_SRAM_Read_8b:hsram <- $r0
	subs	r1, r4, #4
	subs	r2, #4
.Ltmp51:
	.p2align	2
.LBB6_10:                               @ =>This Inner Loop Header: Depth=1
	@DEBUG_VALUE: HAL_SRAM_Read_8b:hsram <- $r0
	@DEBUG_VALUE: HAL_SRAM_Read_8b:pDstBuffer <- [DW_OP_LLVM_arg 0, DW_OP_consts 18446744073709551612, DW_OP_LLVM_arg 0, DW_OP_plus, DW_OP_minus, DW_OP_consts 4, DW_OP_div, DW_OP_consts 4, DW_OP_mul, DW_OP_LLVM_arg 0, DW_OP_plus, DW_OP_stack_value] undef
	@DEBUG_VALUE: HAL_SRAM_Read_8b:BufferSize <- $r3
	@DEBUG_VALUE: HAL_SRAM_Read_8b:pSramAddress <- [DW_OP_plus_uconst 4, DW_OP_stack_value] $r1
	.loc	5 341 19                        @ ../Libraries/STM32F4xx_HAL_Driver/Src/stm32f4xx_hal_sram.c:341:19
	ldrb	r7, [r1, #4]!
.Ltmp52:
	.loc	5 339 37                        @ ../Libraries/STM32F4xx_HAL_Driver/Src/stm32f4xx_hal_sram.c:339:37
	subs	r3, #4
.Ltmp53:
	@DEBUG_VALUE: HAL_SRAM_Read_8b:BufferSize <- $r3
	.loc	5 341 17                        @ ../Libraries/STM32F4xx_HAL_Driver/Src/stm32f4xx_hal_sram.c:341:17
	strb	r7, [r2, #4]!
.Ltmp54:
	@DEBUG_VALUE: HAL_SRAM_Read_8b:pSramAddress <- [DW_OP_plus_uconst 5, DW_OP_stack_value] $r1
	@DEBUG_VALUE: HAL_SRAM_Read_8b:BufferSize <- [DW_OP_constu 1, DW_OP_minus, DW_OP_stack_value] $r3
	@DEBUG_VALUE: HAL_SRAM_Read_8b:pDstBuffer <- [DW_OP_LLVM_arg 0, DW_OP_consts 18446744073709551612, DW_OP_LLVM_arg 0, DW_OP_plus, DW_OP_minus, DW_OP_consts 4, DW_OP_div, DW_OP_consts 4, DW_OP_mul, DW_OP_consts 1, DW_OP_LLVM_arg 0, DW_OP_plus, DW_OP_plus, DW_OP_stack_value] undef
	.loc	5 341 19 is_stmt 0              @ ../Libraries/STM32F4xx_HAL_Driver/Src/stm32f4xx_hal_sram.c:341:19
	ldrb	r7, [r1, #1]
	.loc	5 341 17                        @ ../Libraries/STM32F4xx_HAL_Driver/Src/stm32f4xx_hal_sram.c:341:17
	strb	r7, [r2, #1]
.Ltmp55:
	@DEBUG_VALUE: HAL_SRAM_Read_8b:pSramAddress <- [DW_OP_plus_uconst 6, DW_OP_stack_value] $r1
	@DEBUG_VALUE: HAL_SRAM_Read_8b:BufferSize <- [DW_OP_constu 2, DW_OP_minus, DW_OP_stack_value] $r3
	@DEBUG_VALUE: HAL_SRAM_Read_8b:pDstBuffer <- [DW_OP_LLVM_arg 0, DW_OP_consts 18446744073709551612, DW_OP_LLVM_arg 0, DW_OP_plus, DW_OP_minus, DW_OP_consts 4, DW_OP_div, DW_OP_consts 4, DW_OP_mul, DW_OP_consts 2, DW_OP_LLVM_arg 0, DW_OP_plus, DW_OP_plus, DW_OP_stack_value] undef
	.loc	5 341 19                        @ ../Libraries/STM32F4xx_HAL_Driver/Src/stm32f4xx_hal_sram.c:341:19
	ldrb	r7, [r1, #2]
	.loc	5 341 17                        @ ../Libraries/STM32F4xx_HAL_Driver/Src/stm32f4xx_hal_sram.c:341:17
	strb	r7, [r2, #2]
.Ltmp56:
	@DEBUG_VALUE: HAL_SRAM_Read_8b:pSramAddress <- [DW_OP_plus_uconst 7, DW_OP_stack_value] $r1
	@DEBUG_VALUE: HAL_SRAM_Read_8b:BufferSize <- [DW_OP_constu 3, DW_OP_minus, DW_OP_stack_value] $r3
	@DEBUG_VALUE: HAL_SRAM_Read_8b:pDstBuffer <- [DW_OP_LLVM_arg 0, DW_OP_consts 18446744073709551612, DW_OP_LLVM_arg 0, DW_OP_plus, DW_OP_minus, DW_OP_consts 4, DW_OP_div, DW_OP_consts 4, DW_OP_mul, DW_OP_consts 3, DW_OP_LLVM_arg 0, DW_OP_plus, DW_OP_plus, DW_OP_stack_value] undef
	.loc	5 341 19                        @ ../Libraries/STM32F4xx_HAL_Driver/Src/stm32f4xx_hal_sram.c:341:19
	ldrb	r7, [r1, #3]
	.loc	5 341 17                        @ ../Libraries/STM32F4xx_HAL_Driver/Src/stm32f4xx_hal_sram.c:341:17
	strb	r7, [r2, #3]
.Ltmp57:
	@DEBUG_VALUE: HAL_SRAM_Read_8b:pSramAddress <- [DW_OP_plus_uconst 8, DW_OP_stack_value] $r1
	@DEBUG_VALUE: HAL_SRAM_Read_8b:pDstBuffer <- [DW_OP_LLVM_arg 0, DW_OP_consts 18446744073709551612, DW_OP_LLVM_arg 0, DW_OP_plus, DW_OP_minus, DW_OP_consts 4, DW_OP_div, DW_OP_consts 4, DW_OP_mul, DW_OP_consts 4, DW_OP_LLVM_arg 0, DW_OP_plus, DW_OP_plus, DW_OP_stack_value] undef
	.loc	5 339 3 is_stmt 1               @ ../Libraries/STM32F4xx_HAL_Driver/Src/stm32f4xx_hal_sram.c:339:3
	bne	.LBB6_10
.Ltmp58:
.LBB6_11:
	@DEBUG_VALUE: HAL_SRAM_Read_8b:hsram <- $r0
	.loc	5 0 3 is_stmt 0                 @ ../Libraries/STM32F4xx_HAL_Driver/Src/stm32f4xx_hal_sram.c:0:3
	mov.w	r12, #0
	.loc	5 347 16 is_stmt 1              @ ../Libraries/STM32F4xx_HAL_Driver/Src/stm32f4xx_hal_sram.c:347:16
	strb.w	lr, [r0, #73]
.Ltmp59:
	.loc	5 350 3                         @ ../Libraries/STM32F4xx_HAL_Driver/Src/stm32f4xx_hal_sram.c:350:3
	strb.w	r12, [r0, #72]
.Ltmp60:
.LBB6_12:
	@DEBUG_VALUE: HAL_SRAM_Read_8b:hsram <- $r0
	.loc	5 353 1                         @ ../Libraries/STM32F4xx_HAL_Driver/Src/stm32f4xx_hal_sram.c:353:1
	mov	r0, r12
.Ltmp61:
	@DEBUG_VALUE: HAL_SRAM_Read_8b:hsram <- [DW_OP_LLVM_entry_value 1] $r0
	pop	{r4, r5, r6, r7, pc}
.Ltmp62:
.Lfunc_end6:
	.size	HAL_SRAM_Read_8b, .Lfunc_end6-HAL_SRAM_Read_8b
	.cfi_endproc
	.cantunwind
	.fnend
                                        @ -- End function
	.section	.text.HAL_SRAM_Write_8b,"ax",%progbits
	.hidden	HAL_SRAM_Write_8b               @ -- Begin function HAL_SRAM_Write_8b
	.globl	HAL_SRAM_Write_8b
	.p2align	2
	.type	HAL_SRAM_Write_8b,%function
	.code	16                              @ @HAL_SRAM_Write_8b
	.thumb_func
HAL_SRAM_Write_8b:
.Lfunc_begin7:
	.loc	5 365 0                         @ ../Libraries/STM32F4xx_HAL_Driver/Src/stm32f4xx_hal_sram.c:365:0
	.fnstart
	.cfi_startproc
@ %bb.0:
	@DEBUG_VALUE: HAL_SRAM_Write_8b:hsram <- $r0
	@DEBUG_VALUE: HAL_SRAM_Write_8b:pAddress <- $r1
	@DEBUG_VALUE: HAL_SRAM_Write_8b:pSrcBuffer <- $r2
	@DEBUG_VALUE: HAL_SRAM_Write_8b:BufferSize <- $r3
	.save	{r4, r5, r6, r7, lr}
	push	{r4, r5, r6, r7, lr}
	.cfi_def_cfa_offset 20
	.cfi_offset lr, -4
	.cfi_offset r7, -8
	.cfi_offset r6, -12
	.cfi_offset r5, -16
	.cfi_offset r4, -20
.Ltmp63:
	@DEBUG_VALUE: HAL_SRAM_Write_8b:pSramAddress <- $r1
	.loc	5 369 13 prologue_end           @ ../Libraries/STM32F4xx_HAL_Driver/Src/stm32f4xx_hal_sram.c:369:13
	ldrb.w	r6, [r0, #73]
.Ltmp64:
	.loc	5 369 6 is_stmt 0               @ ../Libraries/STM32F4xx_HAL_Driver/Src/stm32f4xx_hal_sram.c:369:6
	cmp	r6, #4
	itt	eq
	moveq	r0, #1
.Ltmp65:
	@DEBUG_VALUE: HAL_SRAM_Write_8b:hsram <- [DW_OP_LLVM_entry_value 1] $r0
	.loc	5 395 1 is_stmt 1               @ ../Libraries/STM32F4xx_HAL_Driver/Src/stm32f4xx_hal_sram.c:395:1
	popeq	{r4, r5, r6, r7, pc}
.Ltmp66:
.LBB7_1:
	@DEBUG_VALUE: HAL_SRAM_Write_8b:hsram <- [DW_OP_LLVM_entry_value 1] $r0
	@DEBUG_VALUE: HAL_SRAM_Write_8b:pSramAddress <- $r1
	@DEBUG_VALUE: HAL_SRAM_Write_8b:BufferSize <- $r3
	@DEBUG_VALUE: HAL_SRAM_Write_8b:pSrcBuffer <- $r2
	@DEBUG_VALUE: HAL_SRAM_Write_8b:pAddress <- $r1
	.loc	5 375 3                         @ ../Libraries/STM32F4xx_HAL_Driver/Src/stm32f4xx_hal_sram.c:375:3
	ldrb.w	r6, [r0, #72]
	mov.w	r12, #2
.Ltmp67:
	.loc	5 375 3 is_stmt 0               @ ../Libraries/STM32F4xx_HAL_Driver/Src/stm32f4xx_hal_sram.c:375:3
	cmp	r6, #1
	beq	.LBB7_13
.Ltmp68:
@ %bb.2:
	@DEBUG_VALUE: HAL_SRAM_Write_8b:hsram <- [DW_OP_LLVM_entry_value 1] $r0
	@DEBUG_VALUE: HAL_SRAM_Write_8b:pSramAddress <- $r1
	@DEBUG_VALUE: HAL_SRAM_Write_8b:BufferSize <- $r3
	@DEBUG_VALUE: HAL_SRAM_Write_8b:pSrcBuffer <- $r2
	@DEBUG_VALUE: HAL_SRAM_Write_8b:pAddress <- $r1
	.loc	5 0 3                           @ ../Libraries/STM32F4xx_HAL_Driver/Src/stm32f4xx_hal_sram.c:0:3
	mov.w	lr, #1
.Ltmp69:
	@DEBUG_VALUE: HAL_SRAM_Write_8b:pSrcBuffer <- undef
	.loc	5 375 3                         @ ../Libraries/STM32F4xx_HAL_Driver/Src/stm32f4xx_hal_sram.c:375:3
	strb.w	lr, [r0, #72]
.Ltmp70:
	.loc	5 378 16 is_stmt 1              @ ../Libraries/STM32F4xx_HAL_Driver/Src/stm32f4xx_hal_sram.c:378:16
	strb.w	r12, [r0, #73]
	@DEBUG_VALUE: HAL_SRAM_Write_8b:pSramAddress <- $r1
	@DEBUG_VALUE: HAL_SRAM_Write_8b:BufferSize <- $r3
.Ltmp71:
	.loc	5 381 3                         @ ../Libraries/STM32F4xx_HAL_Driver/Src/stm32f4xx_hal_sram.c:381:3
	cbz	r3, .LBB7_12
.Ltmp72:
@ %bb.3:
	@DEBUG_VALUE: HAL_SRAM_Write_8b:hsram <- [DW_OP_LLVM_entry_value 1] $r0
	@DEBUG_VALUE: HAL_SRAM_Write_8b:pSramAddress <- $r1
	@DEBUG_VALUE: HAL_SRAM_Write_8b:BufferSize <- $r3
	@DEBUG_VALUE: HAL_SRAM_Write_8b:pAddress <- $r1
	ands	r5, r3, #3
	sub.w	r12, r3, #1
	beq	.LBB7_6
.Ltmp73:
@ %bb.4:
	@DEBUG_VALUE: HAL_SRAM_Write_8b:hsram <- [DW_OP_LLVM_entry_value 1] $r0
	@DEBUG_VALUE: HAL_SRAM_Write_8b:pSramAddress <- $r1
	@DEBUG_VALUE: HAL_SRAM_Write_8b:BufferSize <- $r3
	@DEBUG_VALUE: HAL_SRAM_Write_8b:pAddress <- $r1
	@DEBUG_VALUE: HAL_SRAM_Write_8b:pSrcBuffer <- $r2
	@DEBUG_VALUE: HAL_SRAM_Write_8b:pSramAddress <- $r1
	.loc	5 383 37                        @ ../Libraries/STM32F4xx_HAL_Driver/Src/stm32f4xx_hal_sram.c:383:37
	mov	r4, r2
	ldrb	r7, [r4], #1
	.loc	5 383 35 is_stmt 0              @ ../Libraries/STM32F4xx_HAL_Driver/Src/stm32f4xx_hal_sram.c:383:35
	mov	r6, r1
.Ltmp74:
	.loc	5 381 3 is_stmt 1               @ ../Libraries/STM32F4xx_HAL_Driver/Src/stm32f4xx_hal_sram.c:381:3
	cmp	r5, #1
.Ltmp75:
	.loc	5 383 35                        @ ../Libraries/STM32F4xx_HAL_Driver/Src/stm32f4xx_hal_sram.c:383:35
	strb	r7, [r6], #1
.Ltmp76:
	@DEBUG_VALUE: HAL_SRAM_Write_8b:pSramAddress <- $r6
	@DEBUG_VALUE: HAL_SRAM_Write_8b:BufferSize <- $r12
	@DEBUG_VALUE: HAL_SRAM_Write_8b:pSrcBuffer <- $r4
	.loc	5 381 3                         @ ../Libraries/STM32F4xx_HAL_Driver/Src/stm32f4xx_hal_sram.c:381:3
	bne	.LBB7_7
.Ltmp77:
@ %bb.5:
	@DEBUG_VALUE: HAL_SRAM_Write_8b:pSrcBuffer <- $r4
	@DEBUG_VALUE: HAL_SRAM_Write_8b:BufferSize <- $r12
	@DEBUG_VALUE: HAL_SRAM_Write_8b:pSramAddress <- $r6
	@DEBUG_VALUE: HAL_SRAM_Write_8b:hsram <- [DW_OP_LLVM_entry_value 1] $r0
	@DEBUG_VALUE: HAL_SRAM_Write_8b:pAddress <- $r1
	.loc	5 0 3 is_stmt 0                 @ ../Libraries/STM32F4xx_HAL_Driver/Src/stm32f4xx_hal_sram.c:0:3
	mov	r1, r6
.Ltmp78:
	@DEBUG_VALUE: HAL_SRAM_Write_8b:pAddress <- [DW_OP_LLVM_entry_value 1] $r1
	mov	r3, r12
	.loc	5 381 3                         @ ../Libraries/STM32F4xx_HAL_Driver/Src/stm32f4xx_hal_sram.c:381:3
	cmp.w	r12, #3
	bhs	.LBB7_10
	b	.LBB7_12
.Ltmp79:
.LBB7_6:
	@DEBUG_VALUE: HAL_SRAM_Write_8b:hsram <- [DW_OP_LLVM_entry_value 1] $r0
	@DEBUG_VALUE: HAL_SRAM_Write_8b:pSramAddress <- $r1
	@DEBUG_VALUE: HAL_SRAM_Write_8b:BufferSize <- $r3
	@DEBUG_VALUE: HAL_SRAM_Write_8b:pAddress <- $r1
	.loc	5 0 3                           @ ../Libraries/STM32F4xx_HAL_Driver/Src/stm32f4xx_hal_sram.c:0:3
	mov	r4, r2
	.loc	5 381 3                         @ ../Libraries/STM32F4xx_HAL_Driver/Src/stm32f4xx_hal_sram.c:381:3
	cmp.w	r12, #3
	bhs	.LBB7_10
	b	.LBB7_12
.Ltmp80:
.LBB7_7:
	@DEBUG_VALUE: HAL_SRAM_Write_8b:pSrcBuffer <- $r4
	@DEBUG_VALUE: HAL_SRAM_Write_8b:BufferSize <- $r12
	@DEBUG_VALUE: HAL_SRAM_Write_8b:pSramAddress <- $r6
	@DEBUG_VALUE: HAL_SRAM_Write_8b:hsram <- [DW_OP_LLVM_entry_value 1] $r0
	@DEBUG_VALUE: HAL_SRAM_Write_8b:pAddress <- $r1
	@DEBUG_VALUE: HAL_SRAM_Write_8b:pSrcBuffer <- undef
	@DEBUG_VALUE: HAL_SRAM_Write_8b:BufferSize <- $r12
	@DEBUG_VALUE: HAL_SRAM_Write_8b:pSramAddress <- undef
	.loc	5 383 37 is_stmt 1              @ ../Libraries/STM32F4xx_HAL_Driver/Src/stm32f4xx_hal_sram.c:383:37
	ldrb	r4, [r2, #1]
.Ltmp81:
	.loc	5 381 3                         @ ../Libraries/STM32F4xx_HAL_Driver/Src/stm32f4xx_hal_sram.c:381:3
	cmp	r5, #2
.Ltmp82:
	.loc	5 383 35                        @ ../Libraries/STM32F4xx_HAL_Driver/Src/stm32f4xx_hal_sram.c:383:35
	strb	r4, [r1, #1]
.Ltmp83:
	@DEBUG_VALUE: HAL_SRAM_Write_8b:BufferSize <- undef
	.loc	5 381 3                         @ ../Libraries/STM32F4xx_HAL_Driver/Src/stm32f4xx_hal_sram.c:381:3
	bne	.LBB7_9
.Ltmp84:
@ %bb.8:
	@DEBUG_VALUE: HAL_SRAM_Write_8b:hsram <- [DW_OP_LLVM_entry_value 1] $r0
	@DEBUG_VALUE: HAL_SRAM_Write_8b:pAddress <- $r1
	.loc	5 0 3 is_stmt 0                 @ ../Libraries/STM32F4xx_HAL_Driver/Src/stm32f4xx_hal_sram.c:0:3
	adds	r4, r2, #2
.Ltmp85:
	@DEBUG_VALUE: HAL_SRAM_Write_8b:pSrcBuffer <- $r4
	adds	r1, #2
.Ltmp86:
	@DEBUG_VALUE: HAL_SRAM_Write_8b:pAddress <- [DW_OP_LLVM_entry_value 1] $r1
	@DEBUG_VALUE: HAL_SRAM_Write_8b:pSramAddress <- $r1
	subs	r3, #2
.Ltmp87:
	@DEBUG_VALUE: HAL_SRAM_Write_8b:BufferSize <- $r3
	.loc	5 381 3                         @ ../Libraries/STM32F4xx_HAL_Driver/Src/stm32f4xx_hal_sram.c:381:3
	cmp.w	r12, #3
	bhs	.LBB7_10
	b	.LBB7_12
.Ltmp88:
.LBB7_9:
	@DEBUG_VALUE: HAL_SRAM_Write_8b:hsram <- [DW_OP_LLVM_entry_value 1] $r0
	@DEBUG_VALUE: HAL_SRAM_Write_8b:pAddress <- $r1
	@DEBUG_VALUE: HAL_SRAM_Write_8b:pSrcBuffer <- undef
	@DEBUG_VALUE: HAL_SRAM_Write_8b:BufferSize <- $r3
	@DEBUG_VALUE: HAL_SRAM_Write_8b:pSramAddress <- $r1
	.loc	5 383 37 is_stmt 1              @ ../Libraries/STM32F4xx_HAL_Driver/Src/stm32f4xx_hal_sram.c:383:37
	ldrb	r4, [r2, #2]
.Ltmp89:
	.loc	5 381 37                        @ ../Libraries/STM32F4xx_HAL_Driver/Src/stm32f4xx_hal_sram.c:381:37
	subs	r3, #3
.Ltmp90:
	.loc	5 383 35                        @ ../Libraries/STM32F4xx_HAL_Driver/Src/stm32f4xx_hal_sram.c:383:35
	strb	r4, [r1, #2]
	.loc	5 384 15                        @ ../Libraries/STM32F4xx_HAL_Driver/Src/stm32f4xx_hal_sram.c:384:15
	adds	r4, r2, #3
.Ltmp91:
	@DEBUG_VALUE: HAL_SRAM_Write_8b:pSrcBuffer <- $r4
	.loc	5 385 17                        @ ../Libraries/STM32F4xx_HAL_Driver/Src/stm32f4xx_hal_sram.c:385:17
	adds	r1, #3
.Ltmp92:
	@DEBUG_VALUE: HAL_SRAM_Write_8b:pAddress <- [DW_OP_LLVM_entry_value 1] $r1
	@DEBUG_VALUE: HAL_SRAM_Write_8b:pSramAddress <- $r1
	.loc	5 381 3                         @ ../Libraries/STM32F4xx_HAL_Driver/Src/stm32f4xx_hal_sram.c:381:3
	cmp.w	r12, #3
	blo	.LBB7_12
.Ltmp93:
.LBB7_10:
	@DEBUG_VALUE: HAL_SRAM_Write_8b:hsram <- [DW_OP_LLVM_entry_value 1] $r0
	subs	r1, #4
	subs	r2, r4, #4
.Ltmp94:
	.p2align	2
.LBB7_11:                               @ =>This Inner Loop Header: Depth=1
	@DEBUG_VALUE: HAL_SRAM_Write_8b:hsram <- [DW_OP_LLVM_entry_value 1] $r0
	@DEBUG_VALUE: HAL_SRAM_Write_8b:pSrcBuffer <- [DW_OP_LLVM_arg 0, DW_OP_consts 18446744073709551612, DW_OP_LLVM_arg 0, DW_OP_plus, DW_OP_minus, DW_OP_consts 4, DW_OP_div, DW_OP_consts 4, DW_OP_mul, DW_OP_LLVM_arg 0, DW_OP_plus, DW_OP_stack_value] undef
	@DEBUG_VALUE: HAL_SRAM_Write_8b:BufferSize <- $r3
	@DEBUG_VALUE: HAL_SRAM_Write_8b:pSramAddress <- [DW_OP_plus_uconst 4, DW_OP_stack_value] $r1
	.loc	5 383 37                        @ ../Libraries/STM32F4xx_HAL_Driver/Src/stm32f4xx_hal_sram.c:383:37
	ldrb	r7, [r2, #4]!
.Ltmp95:
	.loc	5 381 37                        @ ../Libraries/STM32F4xx_HAL_Driver/Src/stm32f4xx_hal_sram.c:381:37
	subs	r3, #4
.Ltmp96:
	@DEBUG_VALUE: HAL_SRAM_Write_8b:BufferSize <- $r3
	.loc	5 383 35                        @ ../Libraries/STM32F4xx_HAL_Driver/Src/stm32f4xx_hal_sram.c:383:35
	strb	r7, [r1, #4]!
.Ltmp97:
	@DEBUG_VALUE: HAL_SRAM_Write_8b:pSramAddress <- [DW_OP_plus_uconst 5, DW_OP_stack_value] $r1
	@DEBUG_VALUE: HAL_SRAM_Write_8b:BufferSize <- [DW_OP_constu 1, DW_OP_minus, DW_OP_stack_value] $r3
	@DEBUG_VALUE: HAL_SRAM_Write_8b:pSrcBuffer <- [DW_OP_LLVM_arg 0, DW_OP_consts 18446744073709551612, DW_OP_LLVM_arg 0, DW_OP_plus, DW_OP_minus, DW_OP_consts 4, DW_OP_div, DW_OP_consts 4, DW_OP_mul, DW_OP_consts 1, DW_OP_LLVM_arg 0, DW_OP_plus, DW_OP_plus, DW_OP_stack_value] undef
	.loc	5 383 37 is_stmt 0              @ ../Libraries/STM32F4xx_HAL_Driver/Src/stm32f4xx_hal_sram.c:383:37
	ldrb	r7, [r2, #1]
	.loc	5 383 35                        @ ../Libraries/STM32F4xx_HAL_Driver/Src/stm32f4xx_hal_sram.c:383:35
	strb	r7, [r1, #1]
.Ltmp98:
	@DEBUG_VALUE: HAL_SRAM_Write_8b:pSramAddress <- [DW_OP_plus_uconst 6, DW_OP_stack_value] $r1
	@DEBUG_VALUE: HAL_SRAM_Write_8b:BufferSize <- [DW_OP_constu 2, DW_OP_minus, DW_OP_stack_value] $r3
	@DEBUG_VALUE: HAL_SRAM_Write_8b:pSrcBuffer <- [DW_OP_LLVM_arg 0, DW_OP_consts 18446744073709551612, DW_OP_LLVM_arg 0, DW_OP_plus, DW_OP_minus, DW_OP_consts 4, DW_OP_div, DW_OP_consts 4, DW_OP_mul, DW_OP_consts 2, DW_OP_LLVM_arg 0, DW_OP_plus, DW_OP_plus, DW_OP_stack_value] undef
	.loc	5 383 37                        @ ../Libraries/STM32F4xx_HAL_Driver/Src/stm32f4xx_hal_sram.c:383:37
	ldrb	r7, [r2, #2]
	.loc	5 383 35                        @ ../Libraries/STM32F4xx_HAL_Driver/Src/stm32f4xx_hal_sram.c:383:35
	strb	r7, [r1, #2]
.Ltmp99:
	@DEBUG_VALUE: HAL_SRAM_Write_8b:pSramAddress <- [DW_OP_plus_uconst 7, DW_OP_stack_value] $r1
	@DEBUG_VALUE: HAL_SRAM_Write_8b:BufferSize <- [DW_OP_constu 3, DW_OP_minus, DW_OP_stack_value] $r3
	@DEBUG_VALUE: HAL_SRAM_Write_8b:pSrcBuffer <- [DW_OP_LLVM_arg 0, DW_OP_consts 18446744073709551612, DW_OP_LLVM_arg 0, DW_OP_plus, DW_OP_minus, DW_OP_consts 4, DW_OP_div, DW_OP_consts 4, DW_OP_mul, DW_OP_consts 3, DW_OP_LLVM_arg 0, DW_OP_plus, DW_OP_plus, DW_OP_stack_value] undef
	.loc	5 383 37                        @ ../Libraries/STM32F4xx_HAL_Driver/Src/stm32f4xx_hal_sram.c:383:37
	ldrb	r7, [r2, #3]
	.loc	5 383 35                        @ ../Libraries/STM32F4xx_HAL_Driver/Src/stm32f4xx_hal_sram.c:383:35
	strb	r7, [r1, #3]
.Ltmp100:
	@DEBUG_VALUE: HAL_SRAM_Write_8b:pSramAddress <- [DW_OP_plus_uconst 8, DW_OP_stack_value] $r1
	@DEBUG_VALUE: HAL_SRAM_Write_8b:pSrcBuffer <- [DW_OP_LLVM_arg 0, DW_OP_consts 18446744073709551612, DW_OP_LLVM_arg 0, DW_OP_plus, DW_OP_minus, DW_OP_consts 4, DW_OP_div, DW_OP_consts 4, DW_OP_mul, DW_OP_consts 4, DW_OP_LLVM_arg 0, DW_OP_plus, DW_OP_plus, DW_OP_stack_value] undef
	.loc	5 381 3 is_stmt 1               @ ../Libraries/STM32F4xx_HAL_Driver/Src/stm32f4xx_hal_sram.c:381:3
	bne	.LBB7_11
.Ltmp101:
.LBB7_12:
	@DEBUG_VALUE: HAL_SRAM_Write_8b:hsram <- [DW_OP_LLVM_entry_value 1] $r0
	.loc	5 0 3 is_stmt 0                 @ ../Libraries/STM32F4xx_HAL_Driver/Src/stm32f4xx_hal_sram.c:0:3
	mov.w	r12, #0
	.loc	5 389 16 is_stmt 1              @ ../Libraries/STM32F4xx_HAL_Driver/Src/stm32f4xx_hal_sram.c:389:16
	strb.w	lr, [r0, #73]
.Ltmp102:
	.loc	5 392 3                         @ ../Libraries/STM32F4xx_HAL_Driver/Src/stm32f4xx_hal_sram.c:392:3
	strb.w	r12, [r0, #72]
.Ltmp103:
.LBB7_13:
	@DEBUG_VALUE: HAL_SRAM_Write_8b:hsram <- [DW_OP_LLVM_entry_value 1] $r0
	.loc	5 395 1                         @ ../Libraries/STM32F4xx_HAL_Driver/Src/stm32f4xx_hal_sram.c:395:1
	mov	r0, r12
	pop	{r4, r5, r6, r7, pc}
.Ltmp104:
.Lfunc_end7:
	.size	HAL_SRAM_Write_8b, .Lfunc_end7-HAL_SRAM_Write_8b
	.cfi_endproc
	.cantunwind
	.fnend
                                        @ -- End function
	.section	.text.HAL_SRAM_Read_16b,"ax",%progbits
	.hidden	HAL_SRAM_Read_16b               @ -- Begin function HAL_SRAM_Read_16b
	.globl	HAL_SRAM_Read_16b
	.p2align	2
	.type	HAL_SRAM_Read_16b,%function
	.code	16                              @ @HAL_SRAM_Read_16b
	.thumb_func
HAL_SRAM_Read_16b:
.Lfunc_begin8:
	.loc	5 407 0                         @ ../Libraries/STM32F4xx_HAL_Driver/Src/stm32f4xx_hal_sram.c:407:0
	.fnstart
	.cfi_startproc
@ %bb.0:
	@DEBUG_VALUE: HAL_SRAM_Read_16b:hsram <- $r0
	@DEBUG_VALUE: HAL_SRAM_Read_16b:pAddress <- $r1
	@DEBUG_VALUE: HAL_SRAM_Read_16b:pDstBuffer <- $r2
	@DEBUG_VALUE: HAL_SRAM_Read_16b:BufferSize <- $r3
	.save	{r4, r5, r6, lr}
	push	{r4, r5, r6, lr}
	.cfi_def_cfa_offset 16
	.cfi_offset lr, -4
	.cfi_offset r6, -8
	.cfi_offset r5, -12
	.cfi_offset r4, -16
.Ltmp105:
	@DEBUG_VALUE: HAL_SRAM_Read_16b:pSramAddress <- $r1
	.loc	5 411 3 prologue_end            @ ../Libraries/STM32F4xx_HAL_Driver/Src/stm32f4xx_hal_sram.c:411:3
	ldrb.w	r5, [r0, #72]
	mov.w	r12, #2
.Ltmp106:
	.loc	5 411 3 is_stmt 0               @ ../Libraries/STM32F4xx_HAL_Driver/Src/stm32f4xx_hal_sram.c:411:3
	cmp	r5, #1
	beq	.LBB8_12
.Ltmp107:
@ %bb.1:
	@DEBUG_VALUE: HAL_SRAM_Read_16b:pSramAddress <- $r1
	@DEBUG_VALUE: HAL_SRAM_Read_16b:BufferSize <- $r3
	@DEBUG_VALUE: HAL_SRAM_Read_16b:pDstBuffer <- $r2
	@DEBUG_VALUE: HAL_SRAM_Read_16b:pAddress <- $r1
	@DEBUG_VALUE: HAL_SRAM_Read_16b:hsram <- $r0
	@DEBUG_VALUE: HAL_SRAM_Read_16b:pDstBuffer <- undef
	.loc	5 414 16 is_stmt 1              @ ../Libraries/STM32F4xx_HAL_Driver/Src/stm32f4xx_hal_sram.c:414:16
	strb.w	r12, [r0, #73]
	@DEBUG_VALUE: HAL_SRAM_Read_16b:pSramAddress <- $r1
	@DEBUG_VALUE: HAL_SRAM_Read_16b:BufferSize <- $r3
.Ltmp108:
	.loc	5 417 3                         @ ../Libraries/STM32F4xx_HAL_Driver/Src/stm32f4xx_hal_sram.c:417:3
	cbz	r3, .LBB8_11
.Ltmp109:
@ %bb.2:
	@DEBUG_VALUE: HAL_SRAM_Read_16b:pSramAddress <- $r1
	@DEBUG_VALUE: HAL_SRAM_Read_16b:BufferSize <- $r3
	@DEBUG_VALUE: HAL_SRAM_Read_16b:pAddress <- $r1
	@DEBUG_VALUE: HAL_SRAM_Read_16b:hsram <- $r0
	ands	r4, r3, #3
	sub.w	r12, r3, #1
	beq	.LBB8_5
.Ltmp110:
@ %bb.3:
	@DEBUG_VALUE: HAL_SRAM_Read_16b:pSramAddress <- $r1
	@DEBUG_VALUE: HAL_SRAM_Read_16b:BufferSize <- $r3
	@DEBUG_VALUE: HAL_SRAM_Read_16b:pAddress <- $r1
	@DEBUG_VALUE: HAL_SRAM_Read_16b:hsram <- $r0
	@DEBUG_VALUE: HAL_SRAM_Read_16b:pSramAddress <- $r1
	.loc	5 419 19                        @ ../Libraries/STM32F4xx_HAL_Driver/Src/stm32f4xx_hal_sram.c:419:19
	mov	lr, r1
	ldrh	r6, [lr], #2
.Ltmp111:
	@DEBUG_VALUE: HAL_SRAM_Read_16b:pDstBuffer <- $r2
	.loc	5 419 17 is_stmt 0              @ ../Libraries/STM32F4xx_HAL_Driver/Src/stm32f4xx_hal_sram.c:419:17
	mov	r5, r2
.Ltmp112:
	.loc	5 417 3 is_stmt 1               @ ../Libraries/STM32F4xx_HAL_Driver/Src/stm32f4xx_hal_sram.c:417:3
	cmp	r4, #1
.Ltmp113:
	.loc	5 419 17                        @ ../Libraries/STM32F4xx_HAL_Driver/Src/stm32f4xx_hal_sram.c:419:17
	strh	r6, [r5], #2
.Ltmp114:
	@DEBUG_VALUE: HAL_SRAM_Read_16b:pSramAddress <- $lr
	@DEBUG_VALUE: HAL_SRAM_Read_16b:BufferSize <- $r12
	@DEBUG_VALUE: HAL_SRAM_Read_16b:pDstBuffer <- $r5
	.loc	5 417 3                         @ ../Libraries/STM32F4xx_HAL_Driver/Src/stm32f4xx_hal_sram.c:417:3
	bne	.LBB8_6
.Ltmp115:
@ %bb.4:
	@DEBUG_VALUE: HAL_SRAM_Read_16b:pDstBuffer <- $r5
	@DEBUG_VALUE: HAL_SRAM_Read_16b:BufferSize <- $r12
	@DEBUG_VALUE: HAL_SRAM_Read_16b:pSramAddress <- $lr
	@DEBUG_VALUE: HAL_SRAM_Read_16b:pAddress <- $r1
	@DEBUG_VALUE: HAL_SRAM_Read_16b:hsram <- $r0
	.loc	5 0 3 is_stmt 0                 @ ../Libraries/STM32F4xx_HAL_Driver/Src/stm32f4xx_hal_sram.c:0:3
	mov	r3, r12
	mov	r2, r5
	.loc	5 417 3                         @ ../Libraries/STM32F4xx_HAL_Driver/Src/stm32f4xx_hal_sram.c:417:3
	cmp.w	r12, #3
	bhs	.LBB8_9
	b	.LBB8_11
.Ltmp116:
.LBB8_5:
	@DEBUG_VALUE: HAL_SRAM_Read_16b:pSramAddress <- $r1
	@DEBUG_VALUE: HAL_SRAM_Read_16b:BufferSize <- $r3
	@DEBUG_VALUE: HAL_SRAM_Read_16b:pAddress <- $r1
	@DEBUG_VALUE: HAL_SRAM_Read_16b:hsram <- $r0
	.loc	5 0 3                           @ ../Libraries/STM32F4xx_HAL_Driver/Src/stm32f4xx_hal_sram.c:0:3
	mov	lr, r1
.Ltmp117:
	@DEBUG_VALUE: HAL_SRAM_Read_16b:pAddress <- $lr
	.loc	5 417 3                         @ ../Libraries/STM32F4xx_HAL_Driver/Src/stm32f4xx_hal_sram.c:417:3
	cmp.w	r12, #3
	bhs	.LBB8_9
	b	.LBB8_11
.Ltmp118:
.LBB8_6:
	@DEBUG_VALUE: HAL_SRAM_Read_16b:pDstBuffer <- $r5
	@DEBUG_VALUE: HAL_SRAM_Read_16b:BufferSize <- $r12
	@DEBUG_VALUE: HAL_SRAM_Read_16b:pSramAddress <- $lr
	@DEBUG_VALUE: HAL_SRAM_Read_16b:pAddress <- $r1
	@DEBUG_VALUE: HAL_SRAM_Read_16b:hsram <- $r0
	@DEBUG_VALUE: HAL_SRAM_Read_16b:pDstBuffer <- undef
	@DEBUG_VALUE: HAL_SRAM_Read_16b:BufferSize <- $r12
	@DEBUG_VALUE: HAL_SRAM_Read_16b:pSramAddress <- undef
	.loc	5 419 19 is_stmt 1              @ ../Libraries/STM32F4xx_HAL_Driver/Src/stm32f4xx_hal_sram.c:419:19
	ldrh	r6, [r1, #2]
.Ltmp119:
	.loc	5 417 3                         @ ../Libraries/STM32F4xx_HAL_Driver/Src/stm32f4xx_hal_sram.c:417:3
	cmp	r4, #2
.Ltmp120:
	.loc	5 419 17                        @ ../Libraries/STM32F4xx_HAL_Driver/Src/stm32f4xx_hal_sram.c:419:17
	strh	r6, [r2, #2]
.Ltmp121:
	@DEBUG_VALUE: HAL_SRAM_Read_16b:BufferSize <- undef
	.loc	5 417 3                         @ ../Libraries/STM32F4xx_HAL_Driver/Src/stm32f4xx_hal_sram.c:417:3
	bne	.LBB8_8
.Ltmp122:
@ %bb.7:
	@DEBUG_VALUE: HAL_SRAM_Read_16b:pAddress <- $r1
	@DEBUG_VALUE: HAL_SRAM_Read_16b:hsram <- $r0
	.loc	5 0 3 is_stmt 0                 @ ../Libraries/STM32F4xx_HAL_Driver/Src/stm32f4xx_hal_sram.c:0:3
	adds	r2, #4
.Ltmp123:
	@DEBUG_VALUE: HAL_SRAM_Read_16b:pDstBuffer <- $r2
	add.w	lr, r1, #4
.Ltmp124:
	@DEBUG_VALUE: HAL_SRAM_Read_16b:pSramAddress <- $lr
	subs	r3, #2
.Ltmp125:
	@DEBUG_VALUE: HAL_SRAM_Read_16b:BufferSize <- $r3
	.loc	5 417 3                         @ ../Libraries/STM32F4xx_HAL_Driver/Src/stm32f4xx_hal_sram.c:417:3
	cmp.w	r12, #3
	bhs	.LBB8_9
	b	.LBB8_11
.Ltmp126:
.LBB8_8:
	@DEBUG_VALUE: HAL_SRAM_Read_16b:pAddress <- $r1
	@DEBUG_VALUE: HAL_SRAM_Read_16b:hsram <- $r0
	@DEBUG_VALUE: HAL_SRAM_Read_16b:pDstBuffer <- $r2
	@DEBUG_VALUE: HAL_SRAM_Read_16b:BufferSize <- $r3
	@DEBUG_VALUE: HAL_SRAM_Read_16b:pSramAddress <- undef
	.loc	5 419 19 is_stmt 1              @ ../Libraries/STM32F4xx_HAL_Driver/Src/stm32f4xx_hal_sram.c:419:19
	ldrh	r6, [r1, #4]
	.loc	5 421 17                        @ ../Libraries/STM32F4xx_HAL_Driver/Src/stm32f4xx_hal_sram.c:421:17
	add.w	lr, r1, #6
.Ltmp127:
	@DEBUG_VALUE: HAL_SRAM_Read_16b:pSramAddress <- $lr
	.loc	5 419 17                        @ ../Libraries/STM32F4xx_HAL_Driver/Src/stm32f4xx_hal_sram.c:419:17
	strh	r6, [r2, #4]
	.loc	5 420 15                        @ ../Libraries/STM32F4xx_HAL_Driver/Src/stm32f4xx_hal_sram.c:420:15
	adds	r2, #6
.Ltmp128:
	@DEBUG_VALUE: HAL_SRAM_Read_16b:pDstBuffer <- $r2
	.loc	5 417 37                        @ ../Libraries/STM32F4xx_HAL_Driver/Src/stm32f4xx_hal_sram.c:417:37
	subs	r3, #3
.Ltmp129:
	.loc	5 417 3 is_stmt 0               @ ../Libraries/STM32F4xx_HAL_Driver/Src/stm32f4xx_hal_sram.c:417:3
	cmp.w	r12, #3
	blo	.LBB8_11
.Ltmp130:
.LBB8_9:
	@DEBUG_VALUE: HAL_SRAM_Read_16b:hsram <- $r0
	sub.w	r1, lr, #8
	subs	r2, #8
.Ltmp131:
	.p2align	2
.LBB8_10:                               @ =>This Inner Loop Header: Depth=1
	@DEBUG_VALUE: HAL_SRAM_Read_16b:hsram <- $r0
	@DEBUG_VALUE: HAL_SRAM_Read_16b:pDstBuffer <- [DW_OP_LLVM_arg 0, DW_OP_consts 18446744073709551608, DW_OP_LLVM_arg 0, DW_OP_plus, DW_OP_minus, DW_OP_consts 8, DW_OP_div, DW_OP_consts 8, DW_OP_mul, DW_OP_LLVM_arg 0, DW_OP_plus, DW_OP_stack_value] undef
	@DEBUG_VALUE: HAL_SRAM_Read_16b:BufferSize <- $r3
	@DEBUG_VALUE: HAL_SRAM_Read_16b:pSramAddress <- [DW_OP_plus_uconst 8, DW_OP_stack_value] $r1
	.loc	5 419 19 is_stmt 1              @ ../Libraries/STM32F4xx_HAL_Driver/Src/stm32f4xx_hal_sram.c:419:19
	ldrh	r6, [r1, #8]!
.Ltmp132:
	.loc	5 417 37                        @ ../Libraries/STM32F4xx_HAL_Driver/Src/stm32f4xx_hal_sram.c:417:37
	subs	r3, #4
.Ltmp133:
	@DEBUG_VALUE: HAL_SRAM_Read_16b:BufferSize <- $r3
	.loc	5 419 17                        @ ../Libraries/STM32F4xx_HAL_Driver/Src/stm32f4xx_hal_sram.c:419:17
	strh	r6, [r2, #8]!
.Ltmp134:
	@DEBUG_VALUE: HAL_SRAM_Read_16b:pSramAddress <- [DW_OP_plus_uconst 10, DW_OP_stack_value] $r1
	@DEBUG_VALUE: HAL_SRAM_Read_16b:BufferSize <- [DW_OP_constu 1, DW_OP_minus, DW_OP_stack_value] $r3
	@DEBUG_VALUE: HAL_SRAM_Read_16b:pDstBuffer <- [DW_OP_LLVM_arg 0, DW_OP_consts 18446744073709551608, DW_OP_LLVM_arg 0, DW_OP_plus, DW_OP_minus, DW_OP_consts 8, DW_OP_div, DW_OP_consts 8, DW_OP_mul, DW_OP_consts 2, DW_OP_LLVM_arg 0, DW_OP_plus, DW_OP_plus, DW_OP_stack_value] undef
	.loc	5 419 19 is_stmt 0              @ ../Libraries/STM32F4xx_HAL_Driver/Src/stm32f4xx_hal_sram.c:419:19
	ldrh	r6, [r1, #2]
	.loc	5 419 17                        @ ../Libraries/STM32F4xx_HAL_Driver/Src/stm32f4xx_hal_sram.c:419:17
	strh	r6, [r2, #2]
.Ltmp135:
	@DEBUG_VALUE: HAL_SRAM_Read_16b:pSramAddress <- [DW_OP_plus_uconst 12, DW_OP_stack_value] $r1
	@DEBUG_VALUE: HAL_SRAM_Read_16b:BufferSize <- [DW_OP_constu 2, DW_OP_minus, DW_OP_stack_value] $r3
	@DEBUG_VALUE: HAL_SRAM_Read_16b:pDstBuffer <- [DW_OP_LLVM_arg 0, DW_OP_consts 18446744073709551608, DW_OP_LLVM_arg 0, DW_OP_plus, DW_OP_minus, DW_OP_consts 8, DW_OP_div, DW_OP_consts 8, DW_OP_mul, DW_OP_consts 4, DW_OP_LLVM_arg 0, DW_OP_plus, DW_OP_plus, DW_OP_stack_value] undef
	.loc	5 419 19                        @ ../Libraries/STM32F4xx_HAL_Driver/Src/stm32f4xx_hal_sram.c:419:19
	ldrh	r6, [r1, #4]
	.loc	5 419 17                        @ ../Libraries/STM32F4xx_HAL_Driver/Src/stm32f4xx_hal_sram.c:419:17
	strh	r6, [r2, #4]
.Ltmp136:
	@DEBUG_VALUE: HAL_SRAM_Read_16b:pSramAddress <- [DW_OP_plus_uconst 14, DW_OP_stack_value] $r1
	@DEBUG_VALUE: HAL_SRAM_Read_16b:BufferSize <- [DW_OP_constu 3, DW_OP_minus, DW_OP_stack_value] $r3
	@DEBUG_VALUE: HAL_SRAM_Read_16b:pDstBuffer <- [DW_OP_LLVM_arg 0, DW_OP_consts 18446744073709551608, DW_OP_LLVM_arg 0, DW_OP_plus, DW_OP_minus, DW_OP_consts 8, DW_OP_div, DW_OP_consts 8, DW_OP_mul, DW_OP_consts 6, DW_OP_LLVM_arg 0, DW_OP_plus, DW_OP_plus, DW_OP_stack_value] undef
	.loc	5 419 19                        @ ../Libraries/STM32F4xx_HAL_Driver/Src/stm32f4xx_hal_sram.c:419:19
	ldrh	r6, [r1, #6]
	.loc	5 419 17                        @ ../Libraries/STM32F4xx_HAL_Driver/Src/stm32f4xx_hal_sram.c:419:17
	strh	r6, [r2, #6]
.Ltmp137:
	@DEBUG_VALUE: HAL_SRAM_Read_16b:pSramAddress <- [DW_OP_plus_uconst 16, DW_OP_stack_value] $r1
	@DEBUG_VALUE: HAL_SRAM_Read_16b:pDstBuffer <- [DW_OP_LLVM_arg 0, DW_OP_consts 18446744073709551608, DW_OP_LLVM_arg 0, DW_OP_plus, DW_OP_minus, DW_OP_consts 8, DW_OP_div, DW_OP_consts 8, DW_OP_mul, DW_OP_consts 8, DW_OP_LLVM_arg 0, DW_OP_plus, DW_OP_plus, DW_OP_stack_value] undef
	.loc	5 417 3 is_stmt 1               @ ../Libraries/STM32F4xx_HAL_Driver/Src/stm32f4xx_hal_sram.c:417:3
	bne	.LBB8_10
.Ltmp138:
.LBB8_11:
	@DEBUG_VALUE: HAL_SRAM_Read_16b:hsram <- $r0
	.loc	5 0 3 is_stmt 0                 @ ../Libraries/STM32F4xx_HAL_Driver/Src/stm32f4xx_hal_sram.c:0:3
	movs	r1, #1
	mov.w	r12, #0
	.loc	5 425 16 is_stmt 1              @ ../Libraries/STM32F4xx_HAL_Driver/Src/stm32f4xx_hal_sram.c:425:16
	strb.w	r1, [r0, #73]
.Ltmp139:
	.loc	5 428 3                         @ ../Libraries/STM32F4xx_HAL_Driver/Src/stm32f4xx_hal_sram.c:428:3
	strb.w	r12, [r0, #72]
.Ltmp140:
.LBB8_12:
	@DEBUG_VALUE: HAL_SRAM_Read_16b:hsram <- $r0
	.loc	5 431 1                         @ ../Libraries/STM32F4xx_HAL_Driver/Src/stm32f4xx_hal_sram.c:431:1
	mov	r0, r12
.Ltmp141:
	@DEBUG_VALUE: HAL_SRAM_Read_16b:hsram <- [DW_OP_LLVM_entry_value 1] $r0
	pop	{r4, r5, r6, pc}
.Ltmp142:
.Lfunc_end8:
	.size	HAL_SRAM_Read_16b, .Lfunc_end8-HAL_SRAM_Read_16b
	.cfi_endproc
	.cantunwind
	.fnend
                                        @ -- End function
	.section	.text.HAL_SRAM_Write_16b,"ax",%progbits
	.hidden	HAL_SRAM_Write_16b              @ -- Begin function HAL_SRAM_Write_16b
	.globl	HAL_SRAM_Write_16b
	.p2align	2
	.type	HAL_SRAM_Write_16b,%function
	.code	16                              @ @HAL_SRAM_Write_16b
	.thumb_func
HAL_SRAM_Write_16b:
.Lfunc_begin9:
	.loc	5 443 0                         @ ../Libraries/STM32F4xx_HAL_Driver/Src/stm32f4xx_hal_sram.c:443:0
	.fnstart
	.cfi_startproc
@ %bb.0:
	@DEBUG_VALUE: HAL_SRAM_Write_16b:hsram <- $r0
	@DEBUG_VALUE: HAL_SRAM_Write_16b:pAddress <- $r1
	@DEBUG_VALUE: HAL_SRAM_Write_16b:pSrcBuffer <- $r2
	@DEBUG_VALUE: HAL_SRAM_Write_16b:BufferSize <- $r3
	.save	{r4, r5, r6, lr}
	push	{r4, r5, r6, lr}
	.cfi_def_cfa_offset 16
	.cfi_offset lr, -4
	.cfi_offset r6, -8
	.cfi_offset r5, -12
	.cfi_offset r4, -16
.Ltmp143:
	@DEBUG_VALUE: HAL_SRAM_Write_16b:pSramAddress <- $r1
	.loc	5 447 13 prologue_end           @ ../Libraries/STM32F4xx_HAL_Driver/Src/stm32f4xx_hal_sram.c:447:13
	ldrb.w	r5, [r0, #73]
.Ltmp144:
	.loc	5 447 6 is_stmt 0               @ ../Libraries/STM32F4xx_HAL_Driver/Src/stm32f4xx_hal_sram.c:447:6
	cmp	r5, #4
	itt	eq
	moveq	r0, #1
.Ltmp145:
	@DEBUG_VALUE: HAL_SRAM_Write_16b:hsram <- [DW_OP_LLVM_entry_value 1] $r0
	.loc	5 473 1 is_stmt 1               @ ../Libraries/STM32F4xx_HAL_Driver/Src/stm32f4xx_hal_sram.c:473:1
	popeq	{r4, r5, r6, pc}
.Ltmp146:
.LBB9_1:
	@DEBUG_VALUE: HAL_SRAM_Write_16b:hsram <- [DW_OP_LLVM_entry_value 1] $r0
	@DEBUG_VALUE: HAL_SRAM_Write_16b:pSramAddress <- $r1
	@DEBUG_VALUE: HAL_SRAM_Write_16b:BufferSize <- $r3
	@DEBUG_VALUE: HAL_SRAM_Write_16b:pSrcBuffer <- $r2
	@DEBUG_VALUE: HAL_SRAM_Write_16b:pAddress <- $r1
	.loc	5 453 3                         @ ../Libraries/STM32F4xx_HAL_Driver/Src/stm32f4xx_hal_sram.c:453:3
	ldrb.w	r5, [r0, #72]
	mov.w	r12, #2
.Ltmp147:
	.loc	5 453 3 is_stmt 0               @ ../Libraries/STM32F4xx_HAL_Driver/Src/stm32f4xx_hal_sram.c:453:3
	cmp	r5, #1
	beq	.LBB9_13
.Ltmp148:
@ %bb.2:
	@DEBUG_VALUE: HAL_SRAM_Write_16b:hsram <- [DW_OP_LLVM_entry_value 1] $r0
	@DEBUG_VALUE: HAL_SRAM_Write_16b:pSramAddress <- $r1
	@DEBUG_VALUE: HAL_SRAM_Write_16b:BufferSize <- $r3
	@DEBUG_VALUE: HAL_SRAM_Write_16b:pSrcBuffer <- $r2
	@DEBUG_VALUE: HAL_SRAM_Write_16b:pAddress <- $r1
	@DEBUG_VALUE: HAL_SRAM_Write_16b:pSrcBuffer <- undef
	.loc	5 456 16 is_stmt 1              @ ../Libraries/STM32F4xx_HAL_Driver/Src/stm32f4xx_hal_sram.c:456:16
	strb.w	r12, [r0, #73]
	@DEBUG_VALUE: HAL_SRAM_Write_16b:pSramAddress <- $r1
	@DEBUG_VALUE: HAL_SRAM_Write_16b:BufferSize <- $r3
.Ltmp149:
	.loc	5 459 3                         @ ../Libraries/STM32F4xx_HAL_Driver/Src/stm32f4xx_hal_sram.c:459:3
	cbz	r3, .LBB9_12
.Ltmp150:
@ %bb.3:
	@DEBUG_VALUE: HAL_SRAM_Write_16b:hsram <- [DW_OP_LLVM_entry_value 1] $r0
	@DEBUG_VALUE: HAL_SRAM_Write_16b:pSramAddress <- $r1
	@DEBUG_VALUE: HAL_SRAM_Write_16b:BufferSize <- $r3
	@DEBUG_VALUE: HAL_SRAM_Write_16b:pAddress <- $r1
	ands	r4, r3, #3
	sub.w	r12, r3, #1
	beq	.LBB9_6
.Ltmp151:
@ %bb.4:
	@DEBUG_VALUE: HAL_SRAM_Write_16b:hsram <- [DW_OP_LLVM_entry_value 1] $r0
	@DEBUG_VALUE: HAL_SRAM_Write_16b:pSramAddress <- $r1
	@DEBUG_VALUE: HAL_SRAM_Write_16b:BufferSize <- $r3
	@DEBUG_VALUE: HAL_SRAM_Write_16b:pAddress <- $r1
	@DEBUG_VALUE: HAL_SRAM_Write_16b:pSrcBuffer <- $r2
	@DEBUG_VALUE: HAL_SRAM_Write_16b:pSramAddress <- $r1
	.loc	5 461 38                        @ ../Libraries/STM32F4xx_HAL_Driver/Src/stm32f4xx_hal_sram.c:461:38
	mov	lr, r2
	ldrh	r6, [lr], #2
	.loc	5 461 36 is_stmt 0              @ ../Libraries/STM32F4xx_HAL_Driver/Src/stm32f4xx_hal_sram.c:461:36
	mov	r5, r1
.Ltmp152:
	.loc	5 459 3 is_stmt 1               @ ../Libraries/STM32F4xx_HAL_Driver/Src/stm32f4xx_hal_sram.c:459:3
	cmp	r4, #1
.Ltmp153:
	.loc	5 461 36                        @ ../Libraries/STM32F4xx_HAL_Driver/Src/stm32f4xx_hal_sram.c:461:36
	strh	r6, [r5], #2
.Ltmp154:
	@DEBUG_VALUE: HAL_SRAM_Write_16b:pSramAddress <- $r5
	@DEBUG_VALUE: HAL_SRAM_Write_16b:BufferSize <- $r12
	@DEBUG_VALUE: HAL_SRAM_Write_16b:pSrcBuffer <- $lr
	.loc	5 459 3                         @ ../Libraries/STM32F4xx_HAL_Driver/Src/stm32f4xx_hal_sram.c:459:3
	bne	.LBB9_7
.Ltmp155:
@ %bb.5:
	@DEBUG_VALUE: HAL_SRAM_Write_16b:pSrcBuffer <- $lr
	@DEBUG_VALUE: HAL_SRAM_Write_16b:BufferSize <- $r12
	@DEBUG_VALUE: HAL_SRAM_Write_16b:pSramAddress <- $r5
	@DEBUG_VALUE: HAL_SRAM_Write_16b:hsram <- [DW_OP_LLVM_entry_value 1] $r0
	@DEBUG_VALUE: HAL_SRAM_Write_16b:pAddress <- $r1
	.loc	5 0 3 is_stmt 0                 @ ../Libraries/STM32F4xx_HAL_Driver/Src/stm32f4xx_hal_sram.c:0:3
	mov	r1, r5
.Ltmp156:
	@DEBUG_VALUE: HAL_SRAM_Write_16b:pAddress <- [DW_OP_LLVM_entry_value 1] $r1
	mov	r3, r12
	.loc	5 459 3                         @ ../Libraries/STM32F4xx_HAL_Driver/Src/stm32f4xx_hal_sram.c:459:3
	cmp.w	r12, #3
	bhs	.LBB9_10
	b	.LBB9_12
.Ltmp157:
.LBB9_6:
	@DEBUG_VALUE: HAL_SRAM_Write_16b:hsram <- [DW_OP_LLVM_entry_value 1] $r0
	@DEBUG_VALUE: HAL_SRAM_Write_16b:pSramAddress <- $r1
	@DEBUG_VALUE: HAL_SRAM_Write_16b:BufferSize <- $r3
	@DEBUG_VALUE: HAL_SRAM_Write_16b:pAddress <- $r1
	.loc	5 0 3                           @ ../Libraries/STM32F4xx_HAL_Driver/Src/stm32f4xx_hal_sram.c:0:3
	mov	lr, r2
	.loc	5 459 3                         @ ../Libraries/STM32F4xx_HAL_Driver/Src/stm32f4xx_hal_sram.c:459:3
	cmp.w	r12, #3
	bhs	.LBB9_10
	b	.LBB9_12
.Ltmp158:
.LBB9_7:
	@DEBUG_VALUE: HAL_SRAM_Write_16b:pSrcBuffer <- $lr
	@DEBUG_VALUE: HAL_SRAM_Write_16b:BufferSize <- $r12
	@DEBUG_VALUE: HAL_SRAM_Write_16b:pSramAddress <- $r5
	@DEBUG_VALUE: HAL_SRAM_Write_16b:hsram <- [DW_OP_LLVM_entry_value 1] $r0
	@DEBUG_VALUE: HAL_SRAM_Write_16b:pAddress <- $r1
	@DEBUG_VALUE: HAL_SRAM_Write_16b:pSrcBuffer <- undef
	@DEBUG_VALUE: HAL_SRAM_Write_16b:BufferSize <- $r12
	@DEBUG_VALUE: HAL_SRAM_Write_16b:pSramAddress <- undef
	.loc	5 461 38 is_stmt 1              @ ../Libraries/STM32F4xx_HAL_Driver/Src/stm32f4xx_hal_sram.c:461:38
	ldrh	r6, [r2, #2]
.Ltmp159:
	.loc	5 459 3                         @ ../Libraries/STM32F4xx_HAL_Driver/Src/stm32f4xx_hal_sram.c:459:3
	cmp	r4, #2
.Ltmp160:
	.loc	5 461 36                        @ ../Libraries/STM32F4xx_HAL_Driver/Src/stm32f4xx_hal_sram.c:461:36
	strh	r6, [r1, #2]
.Ltmp161:
	@DEBUG_VALUE: HAL_SRAM_Write_16b:BufferSize <- undef
	.loc	5 459 3                         @ ../Libraries/STM32F4xx_HAL_Driver/Src/stm32f4xx_hal_sram.c:459:3
	bne	.LBB9_9
.Ltmp162:
@ %bb.8:
	@DEBUG_VALUE: HAL_SRAM_Write_16b:hsram <- [DW_OP_LLVM_entry_value 1] $r0
	@DEBUG_VALUE: HAL_SRAM_Write_16b:pAddress <- $r1
	.loc	5 0 3 is_stmt 0                 @ ../Libraries/STM32F4xx_HAL_Driver/Src/stm32f4xx_hal_sram.c:0:3
	add.w	lr, r2, #4
.Ltmp163:
	@DEBUG_VALUE: HAL_SRAM_Write_16b:pSrcBuffer <- $lr
	adds	r1, #4
.Ltmp164:
	@DEBUG_VALUE: HAL_SRAM_Write_16b:pAddress <- [DW_OP_LLVM_entry_value 1] $r1
	@DEBUG_VALUE: HAL_SRAM_Write_16b:pSramAddress <- $r1
	subs	r3, #2
.Ltmp165:
	@DEBUG_VALUE: HAL_SRAM_Write_16b:BufferSize <- $r3
	.loc	5 459 3                         @ ../Libraries/STM32F4xx_HAL_Driver/Src/stm32f4xx_hal_sram.c:459:3
	cmp.w	r12, #3
	bhs	.LBB9_10
	b	.LBB9_12
.Ltmp166:
.LBB9_9:
	@DEBUG_VALUE: HAL_SRAM_Write_16b:hsram <- [DW_OP_LLVM_entry_value 1] $r0
	@DEBUG_VALUE: HAL_SRAM_Write_16b:pAddress <- $r1
	@DEBUG_VALUE: HAL_SRAM_Write_16b:pSrcBuffer <- undef
	@DEBUG_VALUE: HAL_SRAM_Write_16b:BufferSize <- $r3
	@DEBUG_VALUE: HAL_SRAM_Write_16b:pSramAddress <- $r1
	.loc	5 461 38 is_stmt 1              @ ../Libraries/STM32F4xx_HAL_Driver/Src/stm32f4xx_hal_sram.c:461:38
	ldrh	r6, [r2, #4]
	.loc	5 462 15                        @ ../Libraries/STM32F4xx_HAL_Driver/Src/stm32f4xx_hal_sram.c:462:15
	add.w	lr, r2, #6
.Ltmp167:
	@DEBUG_VALUE: HAL_SRAM_Write_16b:pSrcBuffer <- $lr
	.loc	5 461 36                        @ ../Libraries/STM32F4xx_HAL_Driver/Src/stm32f4xx_hal_sram.c:461:36
	strh	r6, [r1, #4]
	.loc	5 463 17                        @ ../Libraries/STM32F4xx_HAL_Driver/Src/stm32f4xx_hal_sram.c:463:17
	adds	r1, #6
.Ltmp168:
	@DEBUG_VALUE: HAL_SRAM_Write_16b:pAddress <- [DW_OP_LLVM_entry_value 1] $r1
	@DEBUG_VALUE: HAL_SRAM_Write_16b:pSramAddress <- $r1
	.loc	5 459 37                        @ ../Libraries/STM32F4xx_HAL_Driver/Src/stm32f4xx_hal_sram.c:459:37
	subs	r3, #3
.Ltmp169:
	.loc	5 459 3 is_stmt 0               @ ../Libraries/STM32F4xx_HAL_Driver/Src/stm32f4xx_hal_sram.c:459:3
	cmp.w	r12, #3
	blo	.LBB9_12
.Ltmp170:
.LBB9_10:
	@DEBUG_VALUE: HAL_SRAM_Write_16b:hsram <- [DW_OP_LLVM_entry_value 1] $r0
	subs	r1, #8
	sub.w	r2, lr, #8
.Ltmp171:
	.p2align	2
.LBB9_11:                               @ =>This Inner Loop Header: Depth=1
	@DEBUG_VALUE: HAL_SRAM_Write_16b:hsram <- [DW_OP_LLVM_entry_value 1] $r0
	@DEBUG_VALUE: HAL_SRAM_Write_16b:pSrcBuffer <- [DW_OP_LLVM_arg 0, DW_OP_consts 18446744073709551608, DW_OP_LLVM_arg 0, DW_OP_plus, DW_OP_minus, DW_OP_consts 8, DW_OP_div, DW_OP_consts 8, DW_OP_mul, DW_OP_LLVM_arg 0, DW_OP_plus, DW_OP_stack_value] undef
	@DEBUG_VALUE: HAL_SRAM_Write_16b:BufferSize <- $r3
	@DEBUG_VALUE: HAL_SRAM_Write_16b:pSramAddress <- [DW_OP_plus_uconst 8, DW_OP_stack_value] $r1
	.loc	5 461 38 is_stmt 1              @ ../Libraries/STM32F4xx_HAL_Driver/Src/stm32f4xx_hal_sram.c:461:38
	ldrh	r6, [r2, #8]!
.Ltmp172:
	.loc	5 459 37                        @ ../Libraries/STM32F4xx_HAL_Driver/Src/stm32f4xx_hal_sram.c:459:37
	subs	r3, #4
.Ltmp173:
	@DEBUG_VALUE: HAL_SRAM_Write_16b:BufferSize <- $r3
	.loc	5 461 36                        @ ../Libraries/STM32F4xx_HAL_Driver/Src/stm32f4xx_hal_sram.c:461:36
	strh	r6, [r1, #8]!
.Ltmp174:
	@DEBUG_VALUE: HAL_SRAM_Write_16b:pSramAddress <- [DW_OP_plus_uconst 10, DW_OP_stack_value] $r1
	@DEBUG_VALUE: HAL_SRAM_Write_16b:BufferSize <- [DW_OP_constu 1, DW_OP_minus, DW_OP_stack_value] $r3
	@DEBUG_VALUE: HAL_SRAM_Write_16b:pSrcBuffer <- [DW_OP_LLVM_arg 0, DW_OP_consts 18446744073709551608, DW_OP_LLVM_arg 0, DW_OP_plus, DW_OP_minus, DW_OP_consts 8, DW_OP_div, DW_OP_consts 8, DW_OP_mul, DW_OP_consts 2, DW_OP_LLVM_arg 0, DW_OP_plus, DW_OP_plus, DW_OP_stack_value] undef
	.loc	5 461 38 is_stmt 0              @ ../Libraries/STM32F4xx_HAL_Driver/Src/stm32f4xx_hal_sram.c:461:38
	ldrh	r6, [r2, #2]
	.loc	5 461 36                        @ ../Libraries/STM32F4xx_HAL_Driver/Src/stm32f4xx_hal_sram.c:461:36
	strh	r6, [r1, #2]
.Ltmp175:
	@DEBUG_VALUE: HAL_SRAM_Write_16b:pSramAddress <- [DW_OP_plus_uconst 12, DW_OP_stack_value] $r1
	@DEBUG_VALUE: HAL_SRAM_Write_16b:BufferSize <- [DW_OP_constu 2, DW_OP_minus, DW_OP_stack_value] $r3
	@DEBUG_VALUE: HAL_SRAM_Write_16b:pSrcBuffer <- [DW_OP_LLVM_arg 0, DW_OP_consts 18446744073709551608, DW_OP_LLVM_arg 0, DW_OP_plus, DW_OP_minus, DW_OP_consts 8, DW_OP_div, DW_OP_consts 8, DW_OP_mul, DW_OP_consts 4, DW_OP_LLVM_arg 0, DW_OP_plus, DW_OP_plus, DW_OP_stack_value] undef
	.loc	5 461 38                        @ ../Libraries/STM32F4xx_HAL_Driver/Src/stm32f4xx_hal_sram.c:461:38
	ldrh	r6, [r2, #4]
	.loc	5 461 36                        @ ../Libraries/STM32F4xx_HAL_Driver/Src/stm32f4xx_hal_sram.c:461:36
	strh	r6, [r1, #4]
.Ltmp176:
	@DEBUG_VALUE: HAL_SRAM_Write_16b:pSramAddress <- [DW_OP_plus_uconst 14, DW_OP_stack_value] $r1
	@DEBUG_VALUE: HAL_SRAM_Write_16b:BufferSize <- [DW_OP_constu 3, DW_OP_minus, DW_OP_stack_value] $r3
	@DEBUG_VALUE: HAL_SRAM_Write_16b:pSrcBuffer <- [DW_OP_LLVM_arg 0, DW_OP_consts 18446744073709551608, DW_OP_LLVM_arg 0, DW_OP_plus, DW_OP_minus, DW_OP_consts 8, DW_OP_div, DW_OP_consts 8, DW_OP_mul, DW_OP_consts 6, DW_OP_LLVM_arg 0, DW_OP_plus, DW_OP_plus, DW_OP_stack_value] undef
	.loc	5 461 38                        @ ../Libraries/STM32F4xx_HAL_Driver/Src/stm32f4xx_hal_sram.c:461:38
	ldrh	r6, [r2, #6]
	.loc	5 461 36                        @ ../Libraries/STM32F4xx_HAL_Driver/Src/stm32f4xx_hal_sram.c:461:36
	strh	r6, [r1, #6]
.Ltmp177:
	@DEBUG_VALUE: HAL_SRAM_Write_16b:pSramAddress <- [DW_OP_plus_uconst 16, DW_OP_stack_value] $r1
	@DEBUG_VALUE: HAL_SRAM_Write_16b:pSrcBuffer <- [DW_OP_LLVM_arg 0, DW_OP_consts 18446744073709551608, DW_OP_LLVM_arg 0, DW_OP_plus, DW_OP_minus, DW_OP_consts 8, DW_OP_div, DW_OP_consts 8, DW_OP_mul, DW_OP_consts 8, DW_OP_LLVM_arg 0, DW_OP_plus, DW_OP_plus, DW_OP_stack_value] undef
	.loc	5 459 3 is_stmt 1               @ ../Libraries/STM32F4xx_HAL_Driver/Src/stm32f4xx_hal_sram.c:459:3
	bne	.LBB9_11
.Ltmp178:
.LBB9_12:
	@DEBUG_VALUE: HAL_SRAM_Write_16b:hsram <- [DW_OP_LLVM_entry_value 1] $r0
	.loc	5 0 3 is_stmt 0                 @ ../Libraries/STM32F4xx_HAL_Driver/Src/stm32f4xx_hal_sram.c:0:3
	movs	r1, #1
	mov.w	r12, #0
	.loc	5 467 16 is_stmt 1              @ ../Libraries/STM32F4xx_HAL_Driver/Src/stm32f4xx_hal_sram.c:467:16
	strb.w	r1, [r0, #73]
.Ltmp179:
	.loc	5 470 3                         @ ../Libraries/STM32F4xx_HAL_Driver/Src/stm32f4xx_hal_sram.c:470:3
	strb.w	r12, [r0, #72]
.Ltmp180:
.LBB9_13:
	@DEBUG_VALUE: HAL_SRAM_Write_16b:hsram <- [DW_OP_LLVM_entry_value 1] $r0
	.loc	5 473 1                         @ ../Libraries/STM32F4xx_HAL_Driver/Src/stm32f4xx_hal_sram.c:473:1
	mov	r0, r12
	pop	{r4, r5, r6, pc}
.Ltmp181:
.Lfunc_end9:
	.size	HAL_SRAM_Write_16b, .Lfunc_end9-HAL_SRAM_Write_16b
	.cfi_endproc
	.cantunwind
	.fnend
                                        @ -- End function
	.section	.text.HAL_SRAM_Read_32b,"ax",%progbits
	.hidden	HAL_SRAM_Read_32b               @ -- Begin function HAL_SRAM_Read_32b
	.globl	HAL_SRAM_Read_32b
	.p2align	2
	.type	HAL_SRAM_Read_32b,%function
	.code	16                              @ @HAL_SRAM_Read_32b
	.thumb_func
HAL_SRAM_Read_32b:
.Lfunc_begin10:
	.loc	5 485 0                         @ ../Libraries/STM32F4xx_HAL_Driver/Src/stm32f4xx_hal_sram.c:485:0
	.fnstart
	.cfi_startproc
@ %bb.0:
	@DEBUG_VALUE: HAL_SRAM_Read_32b:hsram <- $r0
	@DEBUG_VALUE: HAL_SRAM_Read_32b:pAddress <- $r1
	@DEBUG_VALUE: HAL_SRAM_Read_32b:pDstBuffer <- $r2
	@DEBUG_VALUE: HAL_SRAM_Read_32b:BufferSize <- $r3
	.save	{r4, r5, r6, lr}
	push	{r4, r5, r6, lr}
	.cfi_def_cfa_offset 16
	.cfi_offset lr, -4
	.cfi_offset r6, -8
	.cfi_offset r5, -12
	.cfi_offset r4, -16
.Ltmp182:
	.loc	5 487 3 prologue_end            @ ../Libraries/STM32F4xx_HAL_Driver/Src/stm32f4xx_hal_sram.c:487:3
	ldrb.w	r5, [r0, #72]
	mov.w	r12, #2
.Ltmp183:
	.loc	5 487 3 is_stmt 0               @ ../Libraries/STM32F4xx_HAL_Driver/Src/stm32f4xx_hal_sram.c:487:3
	cmp	r5, #1
	beq	.LBB10_12
.Ltmp184:
@ %bb.1:
	@DEBUG_VALUE: HAL_SRAM_Read_32b:BufferSize <- $r3
	@DEBUG_VALUE: HAL_SRAM_Read_32b:pDstBuffer <- $r2
	@DEBUG_VALUE: HAL_SRAM_Read_32b:pAddress <- $r1
	@DEBUG_VALUE: HAL_SRAM_Read_32b:hsram <- $r0
	@DEBUG_VALUE: HAL_SRAM_Read_32b:pDstBuffer <- undef
	@DEBUG_VALUE: HAL_SRAM_Read_32b:pAddress <- undef
	.loc	5 490 16 is_stmt 1              @ ../Libraries/STM32F4xx_HAL_Driver/Src/stm32f4xx_hal_sram.c:490:16
	strb.w	r12, [r0, #73]
	@DEBUG_VALUE: HAL_SRAM_Read_32b:BufferSize <- $r3
.Ltmp185:
	.loc	5 493 3                         @ ../Libraries/STM32F4xx_HAL_Driver/Src/stm32f4xx_hal_sram.c:493:3
	cbz	r3, .LBB10_11
.Ltmp186:
@ %bb.2:
	@DEBUG_VALUE: HAL_SRAM_Read_32b:BufferSize <- $r3
	@DEBUG_VALUE: HAL_SRAM_Read_32b:hsram <- $r0
	ands	r4, r3, #3
	sub.w	r12, r3, #1
	beq	.LBB10_5
.Ltmp187:
@ %bb.3:
	@DEBUG_VALUE: HAL_SRAM_Read_32b:BufferSize <- $r3
	@DEBUG_VALUE: HAL_SRAM_Read_32b:hsram <- $r0
	@DEBUG_VALUE: HAL_SRAM_Read_32b:pAddress <- $r1
	.loc	5 495 19                        @ ../Libraries/STM32F4xx_HAL_Driver/Src/stm32f4xx_hal_sram.c:495:19
	mov	lr, r1
	ldr	r6, [lr], #4
.Ltmp188:
	@DEBUG_VALUE: HAL_SRAM_Read_32b:pDstBuffer <- $r2
	.loc	5 495 17 is_stmt 0              @ ../Libraries/STM32F4xx_HAL_Driver/Src/stm32f4xx_hal_sram.c:495:17
	mov	r5, r2
.Ltmp189:
	.loc	5 493 3 is_stmt 1               @ ../Libraries/STM32F4xx_HAL_Driver/Src/stm32f4xx_hal_sram.c:493:3
	cmp	r4, #1
.Ltmp190:
	.loc	5 495 17                        @ ../Libraries/STM32F4xx_HAL_Driver/Src/stm32f4xx_hal_sram.c:495:17
	str	r6, [r5], #4
.Ltmp191:
	@DEBUG_VALUE: HAL_SRAM_Read_32b:BufferSize <- $r12
	@DEBUG_VALUE: HAL_SRAM_Read_32b:pDstBuffer <- $r5
	@DEBUG_VALUE: HAL_SRAM_Read_32b:pAddress <- $lr
	.loc	5 493 3                         @ ../Libraries/STM32F4xx_HAL_Driver/Src/stm32f4xx_hal_sram.c:493:3
	bne	.LBB10_6
.Ltmp192:
@ %bb.4:
	@DEBUG_VALUE: HAL_SRAM_Read_32b:pAddress <- $lr
	@DEBUG_VALUE: HAL_SRAM_Read_32b:pDstBuffer <- $r5
	@DEBUG_VALUE: HAL_SRAM_Read_32b:BufferSize <- $r12
	@DEBUG_VALUE: HAL_SRAM_Read_32b:hsram <- $r0
	.loc	5 0 3 is_stmt 0                 @ ../Libraries/STM32F4xx_HAL_Driver/Src/stm32f4xx_hal_sram.c:0:3
	mov	r3, r12
	mov	r2, r5
	.loc	5 493 3                         @ ../Libraries/STM32F4xx_HAL_Driver/Src/stm32f4xx_hal_sram.c:493:3
	cmp.w	r12, #3
	bhs	.LBB10_9
	b	.LBB10_11
.Ltmp193:
.LBB10_5:
	@DEBUG_VALUE: HAL_SRAM_Read_32b:BufferSize <- $r3
	@DEBUG_VALUE: HAL_SRAM_Read_32b:hsram <- $r0
	.loc	5 0 3                           @ ../Libraries/STM32F4xx_HAL_Driver/Src/stm32f4xx_hal_sram.c:0:3
	mov	lr, r1
	.loc	5 493 3                         @ ../Libraries/STM32F4xx_HAL_Driver/Src/stm32f4xx_hal_sram.c:493:3
	cmp.w	r12, #3
	bhs	.LBB10_9
	b	.LBB10_11
.Ltmp194:
.LBB10_6:
	@DEBUG_VALUE: HAL_SRAM_Read_32b:pAddress <- $lr
	@DEBUG_VALUE: HAL_SRAM_Read_32b:pDstBuffer <- $r5
	@DEBUG_VALUE: HAL_SRAM_Read_32b:BufferSize <- $r12
	@DEBUG_VALUE: HAL_SRAM_Read_32b:hsram <- $r0
	@DEBUG_VALUE: HAL_SRAM_Read_32b:pAddress <- undef
	@DEBUG_VALUE: HAL_SRAM_Read_32b:pDstBuffer <- undef
	@DEBUG_VALUE: HAL_SRAM_Read_32b:BufferSize <- $r12
	.loc	5 495 19 is_stmt 1              @ ../Libraries/STM32F4xx_HAL_Driver/Src/stm32f4xx_hal_sram.c:495:19
	ldr	r6, [r1, #4]
.Ltmp195:
	.loc	5 493 3                         @ ../Libraries/STM32F4xx_HAL_Driver/Src/stm32f4xx_hal_sram.c:493:3
	cmp	r4, #2
.Ltmp196:
	.loc	5 495 17                        @ ../Libraries/STM32F4xx_HAL_Driver/Src/stm32f4xx_hal_sram.c:495:17
	str	r6, [r2, #4]
.Ltmp197:
	@DEBUG_VALUE: HAL_SRAM_Read_32b:BufferSize <- undef
	.loc	5 493 3                         @ ../Libraries/STM32F4xx_HAL_Driver/Src/stm32f4xx_hal_sram.c:493:3
	bne	.LBB10_8
.Ltmp198:
@ %bb.7:
	@DEBUG_VALUE: HAL_SRAM_Read_32b:hsram <- $r0
	.loc	5 0 3 is_stmt 0                 @ ../Libraries/STM32F4xx_HAL_Driver/Src/stm32f4xx_hal_sram.c:0:3
	adds	r2, #8
.Ltmp199:
	@DEBUG_VALUE: HAL_SRAM_Read_32b:pDstBuffer <- $r2
	add.w	lr, r1, #8
.Ltmp200:
	@DEBUG_VALUE: HAL_SRAM_Read_32b:pAddress <- $lr
	subs	r3, #2
.Ltmp201:
	@DEBUG_VALUE: HAL_SRAM_Read_32b:BufferSize <- $r3
	.loc	5 493 3                         @ ../Libraries/STM32F4xx_HAL_Driver/Src/stm32f4xx_hal_sram.c:493:3
	cmp.w	r12, #3
	bhs	.LBB10_9
	b	.LBB10_11
.Ltmp202:
.LBB10_8:
	@DEBUG_VALUE: HAL_SRAM_Read_32b:hsram <- $r0
	@DEBUG_VALUE: HAL_SRAM_Read_32b:pAddress <- undef
	@DEBUG_VALUE: HAL_SRAM_Read_32b:pDstBuffer <- $r2
	@DEBUG_VALUE: HAL_SRAM_Read_32b:BufferSize <- $r3
	.loc	5 495 19 is_stmt 1              @ ../Libraries/STM32F4xx_HAL_Driver/Src/stm32f4xx_hal_sram.c:495:19
	ldr	r6, [r1, #8]
	.loc	5 497 13                        @ ../Libraries/STM32F4xx_HAL_Driver/Src/stm32f4xx_hal_sram.c:497:13
	add.w	lr, r1, #12
.Ltmp203:
	@DEBUG_VALUE: HAL_SRAM_Read_32b:pAddress <- $lr
	.loc	5 495 17                        @ ../Libraries/STM32F4xx_HAL_Driver/Src/stm32f4xx_hal_sram.c:495:17
	str	r6, [r2, #8]
	.loc	5 496 15                        @ ../Libraries/STM32F4xx_HAL_Driver/Src/stm32f4xx_hal_sram.c:496:15
	adds	r2, #12
.Ltmp204:
	@DEBUG_VALUE: HAL_SRAM_Read_32b:pDstBuffer <- $r2
	.loc	5 493 37                        @ ../Libraries/STM32F4xx_HAL_Driver/Src/stm32f4xx_hal_sram.c:493:37
	subs	r3, #3
.Ltmp205:
	.loc	5 493 3 is_stmt 0               @ ../Libraries/STM32F4xx_HAL_Driver/Src/stm32f4xx_hal_sram.c:493:3
	cmp.w	r12, #3
	blo	.LBB10_11
.Ltmp206:
.LBB10_9:
	@DEBUG_VALUE: HAL_SRAM_Read_32b:hsram <- $r0
	sub.w	r1, r2, #16
	sub.w	r2, lr, #16
.Ltmp207:
	.p2align	2
.LBB10_10:                              @ =>This Inner Loop Header: Depth=1
	@DEBUG_VALUE: HAL_SRAM_Read_32b:hsram <- $r0
	@DEBUG_VALUE: HAL_SRAM_Read_32b:pAddress <- [DW_OP_LLVM_arg 0, DW_OP_consts 18446744073709551600, DW_OP_LLVM_arg 0, DW_OP_plus, DW_OP_minus, DW_OP_consts 16, DW_OP_div, DW_OP_consts 16, DW_OP_mul, DW_OP_LLVM_arg 0, DW_OP_plus, DW_OP_stack_value] undef
	@DEBUG_VALUE: HAL_SRAM_Read_32b:pDstBuffer <- [DW_OP_plus_uconst 16, DW_OP_stack_value] $r1
	@DEBUG_VALUE: HAL_SRAM_Read_32b:BufferSize <- $r3
	.loc	5 495 19 is_stmt 1              @ ../Libraries/STM32F4xx_HAL_Driver/Src/stm32f4xx_hal_sram.c:495:19
	ldr	r6, [r2, #16]!
.Ltmp208:
	.loc	5 493 37                        @ ../Libraries/STM32F4xx_HAL_Driver/Src/stm32f4xx_hal_sram.c:493:37
	subs	r3, #4
.Ltmp209:
	@DEBUG_VALUE: HAL_SRAM_Read_32b:BufferSize <- $r3
	.loc	5 495 17                        @ ../Libraries/STM32F4xx_HAL_Driver/Src/stm32f4xx_hal_sram.c:495:17
	str	r6, [r1, #16]!
.Ltmp210:
	@DEBUG_VALUE: HAL_SRAM_Read_32b:BufferSize <- [DW_OP_constu 1, DW_OP_minus, DW_OP_stack_value] $r3
	@DEBUG_VALUE: HAL_SRAM_Read_32b:pDstBuffer <- [DW_OP_plus_uconst 20, DW_OP_stack_value] $r1
	@DEBUG_VALUE: HAL_SRAM_Read_32b:pAddress <- [DW_OP_LLVM_arg 0, DW_OP_consts 18446744073709551600, DW_OP_LLVM_arg 0, DW_OP_plus, DW_OP_minus, DW_OP_consts 16, DW_OP_div, DW_OP_consts 16, DW_OP_mul, DW_OP_consts 4, DW_OP_LLVM_arg 0, DW_OP_plus, DW_OP_plus, DW_OP_stack_value] undef
	.loc	5 495 19 is_stmt 0              @ ../Libraries/STM32F4xx_HAL_Driver/Src/stm32f4xx_hal_sram.c:495:19
	ldr	r6, [r2, #4]
	.loc	5 495 17                        @ ../Libraries/STM32F4xx_HAL_Driver/Src/stm32f4xx_hal_sram.c:495:17
	str	r6, [r1, #4]
.Ltmp211:
	@DEBUG_VALUE: HAL_SRAM_Read_32b:BufferSize <- [DW_OP_constu 2, DW_OP_minus, DW_OP_stack_value] $r3
	@DEBUG_VALUE: HAL_SRAM_Read_32b:pDstBuffer <- [DW_OP_plus_uconst 24, DW_OP_stack_value] $r1
	@DEBUG_VALUE: HAL_SRAM_Read_32b:pAddress <- [DW_OP_LLVM_arg 0, DW_OP_consts 18446744073709551600, DW_OP_LLVM_arg 0, DW_OP_plus, DW_OP_minus, DW_OP_consts 16, DW_OP_div, DW_OP_consts 16, DW_OP_mul, DW_OP_consts 8, DW_OP_LLVM_arg 0, DW_OP_plus, DW_OP_plus, DW_OP_stack_value] undef
	.loc	5 495 19                        @ ../Libraries/STM32F4xx_HAL_Driver/Src/stm32f4xx_hal_sram.c:495:19
	ldr	r6, [r2, #8]
	.loc	5 495 17                        @ ../Libraries/STM32F4xx_HAL_Driver/Src/stm32f4xx_hal_sram.c:495:17
	str	r6, [r1, #8]
.Ltmp212:
	@DEBUG_VALUE: HAL_SRAM_Read_32b:BufferSize <- [DW_OP_constu 3, DW_OP_minus, DW_OP_stack_value] $r3
	@DEBUG_VALUE: HAL_SRAM_Read_32b:pDstBuffer <- [DW_OP_plus_uconst 28, DW_OP_stack_value] $r1
	@DEBUG_VALUE: HAL_SRAM_Read_32b:pAddress <- [DW_OP_LLVM_arg 0, DW_OP_consts 18446744073709551600, DW_OP_LLVM_arg 0, DW_OP_plus, DW_OP_minus, DW_OP_consts 16, DW_OP_div, DW_OP_consts 16, DW_OP_mul, DW_OP_consts 12, DW_OP_LLVM_arg 0, DW_OP_plus, DW_OP_plus, DW_OP_stack_value] undef
	.loc	5 495 19                        @ ../Libraries/STM32F4xx_HAL_Driver/Src/stm32f4xx_hal_sram.c:495:19
	ldr	r6, [r2, #12]
	.loc	5 495 17                        @ ../Libraries/STM32F4xx_HAL_Driver/Src/stm32f4xx_hal_sram.c:495:17
	str	r6, [r1, #12]
.Ltmp213:
	@DEBUG_VALUE: HAL_SRAM_Read_32b:pDstBuffer <- [DW_OP_plus_uconst 32, DW_OP_stack_value] $r1
	@DEBUG_VALUE: HAL_SRAM_Read_32b:pAddress <- [DW_OP_LLVM_arg 0, DW_OP_consts 18446744073709551600, DW_OP_LLVM_arg 0, DW_OP_plus, DW_OP_minus, DW_OP_consts 16, DW_OP_div, DW_OP_consts 16, DW_OP_mul, DW_OP_consts 16, DW_OP_LLVM_arg 0, DW_OP_plus, DW_OP_plus, DW_OP_stack_value] undef
	.loc	5 493 3 is_stmt 1               @ ../Libraries/STM32F4xx_HAL_Driver/Src/stm32f4xx_hal_sram.c:493:3
	bne	.LBB10_10
.Ltmp214:
.LBB10_11:
	@DEBUG_VALUE: HAL_SRAM_Read_32b:hsram <- $r0
	.loc	5 0 3 is_stmt 0                 @ ../Libraries/STM32F4xx_HAL_Driver/Src/stm32f4xx_hal_sram.c:0:3
	movs	r1, #1
	mov.w	r12, #0
	.loc	5 501 16 is_stmt 1              @ ../Libraries/STM32F4xx_HAL_Driver/Src/stm32f4xx_hal_sram.c:501:16
	strb.w	r1, [r0, #73]
.Ltmp215:
	.loc	5 504 3                         @ ../Libraries/STM32F4xx_HAL_Driver/Src/stm32f4xx_hal_sram.c:504:3
	strb.w	r12, [r0, #72]
.Ltmp216:
.LBB10_12:
	@DEBUG_VALUE: HAL_SRAM_Read_32b:hsram <- $r0
	.loc	5 507 1                         @ ../Libraries/STM32F4xx_HAL_Driver/Src/stm32f4xx_hal_sram.c:507:1
	mov	r0, r12
.Ltmp217:
	@DEBUG_VALUE: HAL_SRAM_Read_32b:hsram <- [DW_OP_LLVM_entry_value 1] $r0
	pop	{r4, r5, r6, pc}
.Ltmp218:
.Lfunc_end10:
	.size	HAL_SRAM_Read_32b, .Lfunc_end10-HAL_SRAM_Read_32b
	.cfi_endproc
	.cantunwind
	.fnend
                                        @ -- End function
	.section	.text.HAL_SRAM_Write_32b,"ax",%progbits
	.hidden	HAL_SRAM_Write_32b              @ -- Begin function HAL_SRAM_Write_32b
	.globl	HAL_SRAM_Write_32b
	.p2align	2
	.type	HAL_SRAM_Write_32b,%function
	.code	16                              @ @HAL_SRAM_Write_32b
	.thumb_func
HAL_SRAM_Write_32b:
.Lfunc_begin11:
	.loc	5 519 0                         @ ../Libraries/STM32F4xx_HAL_Driver/Src/stm32f4xx_hal_sram.c:519:0
	.fnstart
	.cfi_startproc
@ %bb.0:
	@DEBUG_VALUE: HAL_SRAM_Write_32b:hsram <- $r0
	@DEBUG_VALUE: HAL_SRAM_Write_32b:pAddress <- $r1
	@DEBUG_VALUE: HAL_SRAM_Write_32b:pSrcBuffer <- $r2
	@DEBUG_VALUE: HAL_SRAM_Write_32b:BufferSize <- $r3
	.save	{r4, r5, r6, lr}
	push	{r4, r5, r6, lr}
	.cfi_def_cfa_offset 16
	.cfi_offset lr, -4
	.cfi_offset r6, -8
	.cfi_offset r5, -12
	.cfi_offset r4, -16
.Ltmp219:
	.loc	5 521 13 prologue_end           @ ../Libraries/STM32F4xx_HAL_Driver/Src/stm32f4xx_hal_sram.c:521:13
	ldrb.w	r5, [r0, #73]
.Ltmp220:
	.loc	5 521 6 is_stmt 0               @ ../Libraries/STM32F4xx_HAL_Driver/Src/stm32f4xx_hal_sram.c:521:6
	cmp	r5, #4
	itt	eq
	moveq	r0, #1
.Ltmp221:
	@DEBUG_VALUE: HAL_SRAM_Write_32b:hsram <- [DW_OP_LLVM_entry_value 1] $r0
	.loc	5 547 1 is_stmt 1               @ ../Libraries/STM32F4xx_HAL_Driver/Src/stm32f4xx_hal_sram.c:547:1
	popeq	{r4, r5, r6, pc}
.Ltmp222:
.LBB11_1:
	@DEBUG_VALUE: HAL_SRAM_Write_32b:hsram <- [DW_OP_LLVM_entry_value 1] $r0
	@DEBUG_VALUE: HAL_SRAM_Write_32b:BufferSize <- $r3
	@DEBUG_VALUE: HAL_SRAM_Write_32b:pSrcBuffer <- $r2
	@DEBUG_VALUE: HAL_SRAM_Write_32b:pAddress <- $r1
	.loc	5 527 3                         @ ../Libraries/STM32F4xx_HAL_Driver/Src/stm32f4xx_hal_sram.c:527:3
	ldrb.w	r5, [r0, #72]
	mov.w	r12, #2
.Ltmp223:
	.loc	5 527 3 is_stmt 0               @ ../Libraries/STM32F4xx_HAL_Driver/Src/stm32f4xx_hal_sram.c:527:3
	cmp	r5, #1
	beq	.LBB11_13
.Ltmp224:
@ %bb.2:
	@DEBUG_VALUE: HAL_SRAM_Write_32b:hsram <- [DW_OP_LLVM_entry_value 1] $r0
	@DEBUG_VALUE: HAL_SRAM_Write_32b:BufferSize <- $r3
	@DEBUG_VALUE: HAL_SRAM_Write_32b:pSrcBuffer <- $r2
	@DEBUG_VALUE: HAL_SRAM_Write_32b:pAddress <- $r1
	@DEBUG_VALUE: HAL_SRAM_Write_32b:pSrcBuffer <- undef
	@DEBUG_VALUE: HAL_SRAM_Write_32b:pAddress <- undef
	.loc	5 530 16 is_stmt 1              @ ../Libraries/STM32F4xx_HAL_Driver/Src/stm32f4xx_hal_sram.c:530:16
	strb.w	r12, [r0, #73]
	@DEBUG_VALUE: HAL_SRAM_Write_32b:BufferSize <- $r3
.Ltmp225:
	.loc	5 533 3                         @ ../Libraries/STM32F4xx_HAL_Driver/Src/stm32f4xx_hal_sram.c:533:3
	cbz	r3, .LBB11_12
.Ltmp226:
@ %bb.3:
	@DEBUG_VALUE: HAL_SRAM_Write_32b:hsram <- [DW_OP_LLVM_entry_value 1] $r0
	@DEBUG_VALUE: HAL_SRAM_Write_32b:BufferSize <- $r3
	ands	r4, r3, #3
	sub.w	r12, r3, #1
	beq	.LBB11_6
.Ltmp227:
@ %bb.4:
	@DEBUG_VALUE: HAL_SRAM_Write_32b:hsram <- [DW_OP_LLVM_entry_value 1] $r0
	@DEBUG_VALUE: HAL_SRAM_Write_32b:BufferSize <- $r3
	@DEBUG_VALUE: HAL_SRAM_Write_32b:pSrcBuffer <- $r2
	.loc	5 535 34                        @ ../Libraries/STM32F4xx_HAL_Driver/Src/stm32f4xx_hal_sram.c:535:34
	mov	lr, r2
	ldr	r6, [lr], #4
.Ltmp228:
	@DEBUG_VALUE: HAL_SRAM_Write_32b:pAddress <- $r1
	.loc	5 535 32 is_stmt 0              @ ../Libraries/STM32F4xx_HAL_Driver/Src/stm32f4xx_hal_sram.c:535:32
	mov	r5, r1
.Ltmp229:
	.loc	5 533 3 is_stmt 1               @ ../Libraries/STM32F4xx_HAL_Driver/Src/stm32f4xx_hal_sram.c:533:3
	cmp	r4, #1
.Ltmp230:
	.loc	5 535 32                        @ ../Libraries/STM32F4xx_HAL_Driver/Src/stm32f4xx_hal_sram.c:535:32
	str	r6, [r5], #4
.Ltmp231:
	@DEBUG_VALUE: HAL_SRAM_Write_32b:BufferSize <- $r12
	@DEBUG_VALUE: HAL_SRAM_Write_32b:pSrcBuffer <- $lr
	@DEBUG_VALUE: HAL_SRAM_Write_32b:pAddress <- $r5
	.loc	5 533 3                         @ ../Libraries/STM32F4xx_HAL_Driver/Src/stm32f4xx_hal_sram.c:533:3
	bne	.LBB11_7
.Ltmp232:
@ %bb.5:
	@DEBUG_VALUE: HAL_SRAM_Write_32b:pAddress <- $r5
	@DEBUG_VALUE: HAL_SRAM_Write_32b:pSrcBuffer <- $lr
	@DEBUG_VALUE: HAL_SRAM_Write_32b:BufferSize <- $r12
	@DEBUG_VALUE: HAL_SRAM_Write_32b:hsram <- [DW_OP_LLVM_entry_value 1] $r0
	.loc	5 0 3 is_stmt 0                 @ ../Libraries/STM32F4xx_HAL_Driver/Src/stm32f4xx_hal_sram.c:0:3
	mov	r3, r12
	mov	r1, r5
	.loc	5 533 3                         @ ../Libraries/STM32F4xx_HAL_Driver/Src/stm32f4xx_hal_sram.c:533:3
	cmp.w	r12, #3
	bhs	.LBB11_10
	b	.LBB11_12
.Ltmp233:
.LBB11_6:
	@DEBUG_VALUE: HAL_SRAM_Write_32b:hsram <- [DW_OP_LLVM_entry_value 1] $r0
	@DEBUG_VALUE: HAL_SRAM_Write_32b:BufferSize <- $r3
	.loc	5 0 3                           @ ../Libraries/STM32F4xx_HAL_Driver/Src/stm32f4xx_hal_sram.c:0:3
	mov	lr, r2
	.loc	5 533 3                         @ ../Libraries/STM32F4xx_HAL_Driver/Src/stm32f4xx_hal_sram.c:533:3
	cmp.w	r12, #3
	bhs	.LBB11_10
	b	.LBB11_12
.Ltmp234:
.LBB11_7:
	@DEBUG_VALUE: HAL_SRAM_Write_32b:pAddress <- $r5
	@DEBUG_VALUE: HAL_SRAM_Write_32b:pSrcBuffer <- $lr
	@DEBUG_VALUE: HAL_SRAM_Write_32b:BufferSize <- $r12
	@DEBUG_VALUE: HAL_SRAM_Write_32b:hsram <- [DW_OP_LLVM_entry_value 1] $r0
	@DEBUG_VALUE: HAL_SRAM_Write_32b:pAddress <- undef
	@DEBUG_VALUE: HAL_SRAM_Write_32b:pSrcBuffer <- undef
	@DEBUG_VALUE: HAL_SRAM_Write_32b:BufferSize <- $r12
	.loc	5 535 34 is_stmt 1              @ ../Libraries/STM32F4xx_HAL_Driver/Src/stm32f4xx_hal_sram.c:535:34
	ldr	r6, [r2, #4]
.Ltmp235:
	.loc	5 533 3                         @ ../Libraries/STM32F4xx_HAL_Driver/Src/stm32f4xx_hal_sram.c:533:3
	cmp	r4, #2
.Ltmp236:
	.loc	5 535 32                        @ ../Libraries/STM32F4xx_HAL_Driver/Src/stm32f4xx_hal_sram.c:535:32
	str	r6, [r1, #4]
.Ltmp237:
	@DEBUG_VALUE: HAL_SRAM_Write_32b:BufferSize <- undef
	.loc	5 533 3                         @ ../Libraries/STM32F4xx_HAL_Driver/Src/stm32f4xx_hal_sram.c:533:3
	bne	.LBB11_9
.Ltmp238:
@ %bb.8:
	@DEBUG_VALUE: HAL_SRAM_Write_32b:hsram <- [DW_OP_LLVM_entry_value 1] $r0
	.loc	5 0 3 is_stmt 0                 @ ../Libraries/STM32F4xx_HAL_Driver/Src/stm32f4xx_hal_sram.c:0:3
	add.w	lr, r2, #8
.Ltmp239:
	@DEBUG_VALUE: HAL_SRAM_Write_32b:pSrcBuffer <- $lr
	adds	r1, #8
.Ltmp240:
	@DEBUG_VALUE: HAL_SRAM_Write_32b:pAddress <- $r1
	subs	r3, #2
.Ltmp241:
	@DEBUG_VALUE: HAL_SRAM_Write_32b:BufferSize <- $r3
	.loc	5 533 3                         @ ../Libraries/STM32F4xx_HAL_Driver/Src/stm32f4xx_hal_sram.c:533:3
	cmp.w	r12, #3
	bhs	.LBB11_10
	b	.LBB11_12
.Ltmp242:
.LBB11_9:
	@DEBUG_VALUE: HAL_SRAM_Write_32b:hsram <- [DW_OP_LLVM_entry_value 1] $r0
	@DEBUG_VALUE: HAL_SRAM_Write_32b:pAddress <- $r1
	@DEBUG_VALUE: HAL_SRAM_Write_32b:pSrcBuffer <- undef
	@DEBUG_VALUE: HAL_SRAM_Write_32b:BufferSize <- $r3
	.loc	5 535 34 is_stmt 1              @ ../Libraries/STM32F4xx_HAL_Driver/Src/stm32f4xx_hal_sram.c:535:34
	ldr	r6, [r2, #8]
	.loc	5 536 15                        @ ../Libraries/STM32F4xx_HAL_Driver/Src/stm32f4xx_hal_sram.c:536:15
	add.w	lr, r2, #12
.Ltmp243:
	@DEBUG_VALUE: HAL_SRAM_Write_32b:pSrcBuffer <- $lr
	.loc	5 535 32                        @ ../Libraries/STM32F4xx_HAL_Driver/Src/stm32f4xx_hal_sram.c:535:32
	str	r6, [r1, #8]
	.loc	5 537 13                        @ ../Libraries/STM32F4xx_HAL_Driver/Src/stm32f4xx_hal_sram.c:537:13
	adds	r1, #12
.Ltmp244:
	@DEBUG_VALUE: HAL_SRAM_Write_32b:pAddress <- $r1
	.loc	5 533 37                        @ ../Libraries/STM32F4xx_HAL_Driver/Src/stm32f4xx_hal_sram.c:533:37
	subs	r3, #3
.Ltmp245:
	.loc	5 533 3 is_stmt 0               @ ../Libraries/STM32F4xx_HAL_Driver/Src/stm32f4xx_hal_sram.c:533:3
	cmp.w	r12, #3
	blo	.LBB11_12
.Ltmp246:
.LBB11_10:
	@DEBUG_VALUE: HAL_SRAM_Write_32b:hsram <- [DW_OP_LLVM_entry_value 1] $r0
	sub.w	r2, lr, #16
	subs	r1, #16
.Ltmp247:
	.p2align	2
.LBB11_11:                              @ =>This Inner Loop Header: Depth=1
	@DEBUG_VALUE: HAL_SRAM_Write_32b:hsram <- [DW_OP_LLVM_entry_value 1] $r0
	@DEBUG_VALUE: HAL_SRAM_Write_32b:pAddress <- [DW_OP_LLVM_arg 0, DW_OP_consts 18446744073709551600, DW_OP_LLVM_arg 0, DW_OP_plus, DW_OP_minus, DW_OP_consts 16, DW_OP_div, DW_OP_consts 16, DW_OP_mul, DW_OP_LLVM_arg 0, DW_OP_plus, DW_OP_stack_value] undef
	@DEBUG_VALUE: HAL_SRAM_Write_32b:pSrcBuffer <- [DW_OP_plus_uconst 16, DW_OP_stack_value] $r2
	@DEBUG_VALUE: HAL_SRAM_Write_32b:BufferSize <- $r3
	.loc	5 535 34 is_stmt 1              @ ../Libraries/STM32F4xx_HAL_Driver/Src/stm32f4xx_hal_sram.c:535:34
	ldr	r6, [r2, #16]!
.Ltmp248:
	.loc	5 533 37                        @ ../Libraries/STM32F4xx_HAL_Driver/Src/stm32f4xx_hal_sram.c:533:37
	subs	r3, #4
.Ltmp249:
	@DEBUG_VALUE: HAL_SRAM_Write_32b:BufferSize <- $r3
	.loc	5 535 32                        @ ../Libraries/STM32F4xx_HAL_Driver/Src/stm32f4xx_hal_sram.c:535:32
	str	r6, [r1, #16]!
.Ltmp250:
	@DEBUG_VALUE: HAL_SRAM_Write_32b:BufferSize <- [DW_OP_constu 1, DW_OP_minus, DW_OP_stack_value] $r3
	@DEBUG_VALUE: HAL_SRAM_Write_32b:pSrcBuffer <- [DW_OP_plus_uconst 20, DW_OP_stack_value] $r2
	@DEBUG_VALUE: HAL_SRAM_Write_32b:pAddress <- [DW_OP_LLVM_arg 0, DW_OP_consts 18446744073709551600, DW_OP_LLVM_arg 0, DW_OP_plus, DW_OP_minus, DW_OP_consts 16, DW_OP_div, DW_OP_consts 16, DW_OP_mul, DW_OP_consts 4, DW_OP_LLVM_arg 0, DW_OP_plus, DW_OP_plus, DW_OP_stack_value] undef
	.loc	5 535 34 is_stmt 0              @ ../Libraries/STM32F4xx_HAL_Driver/Src/stm32f4xx_hal_sram.c:535:34
	ldr	r6, [r2, #4]
	.loc	5 535 32                        @ ../Libraries/STM32F4xx_HAL_Driver/Src/stm32f4xx_hal_sram.c:535:32
	str	r6, [r1, #4]
.Ltmp251:
	@DEBUG_VALUE: HAL_SRAM_Write_32b:BufferSize <- [DW_OP_constu 2, DW_OP_minus, DW_OP_stack_value] $r3
	@DEBUG_VALUE: HAL_SRAM_Write_32b:pSrcBuffer <- [DW_OP_plus_uconst 24, DW_OP_stack_value] $r2
	@DEBUG_VALUE: HAL_SRAM_Write_32b:pAddress <- [DW_OP_LLVM_arg 0, DW_OP_consts 18446744073709551600, DW_OP_LLVM_arg 0, DW_OP_plus, DW_OP_minus, DW_OP_consts 16, DW_OP_div, DW_OP_consts 16, DW_OP_mul, DW_OP_consts 8, DW_OP_LLVM_arg 0, DW_OP_plus, DW_OP_plus, DW_OP_stack_value] undef
	.loc	5 535 34                        @ ../Libraries/STM32F4xx_HAL_Driver/Src/stm32f4xx_hal_sram.c:535:34
	ldr	r6, [r2, #8]
	.loc	5 535 32                        @ ../Libraries/STM32F4xx_HAL_Driver/Src/stm32f4xx_hal_sram.c:535:32
	str	r6, [r1, #8]
.Ltmp252:
	@DEBUG_VALUE: HAL_SRAM_Write_32b:BufferSize <- [DW_OP_constu 3, DW_OP_minus, DW_OP_stack_value] $r3
	@DEBUG_VALUE: HAL_SRAM_Write_32b:pSrcBuffer <- [DW_OP_plus_uconst 28, DW_OP_stack_value] $r2
	@DEBUG_VALUE: HAL_SRAM_Write_32b:pAddress <- [DW_OP_LLVM_arg 0, DW_OP_consts 18446744073709551600, DW_OP_LLVM_arg 0, DW_OP_plus, DW_OP_minus, DW_OP_consts 16, DW_OP_div, DW_OP_consts 16, DW_OP_mul, DW_OP_consts 12, DW_OP_LLVM_arg 0, DW_OP_plus, DW_OP_plus, DW_OP_stack_value] undef
	.loc	5 535 34                        @ ../Libraries/STM32F4xx_HAL_Driver/Src/stm32f4xx_hal_sram.c:535:34
	ldr	r6, [r2, #12]
	.loc	5 535 32                        @ ../Libraries/STM32F4xx_HAL_Driver/Src/stm32f4xx_hal_sram.c:535:32
	str	r6, [r1, #12]
.Ltmp253:
	@DEBUG_VALUE: HAL_SRAM_Write_32b:pSrcBuffer <- [DW_OP_plus_uconst 32, DW_OP_stack_value] $r2
	@DEBUG_VALUE: HAL_SRAM_Write_32b:pAddress <- [DW_OP_LLVM_arg 0, DW_OP_consts 18446744073709551600, DW_OP_LLVM_arg 0, DW_OP_plus, DW_OP_minus, DW_OP_consts 16, DW_OP_div, DW_OP_consts 16, DW_OP_mul, DW_OP_consts 16, DW_OP_LLVM_arg 0, DW_OP_plus, DW_OP_plus, DW_OP_stack_value] undef
	.loc	5 533 3 is_stmt 1               @ ../Libraries/STM32F4xx_HAL_Driver/Src/stm32f4xx_hal_sram.c:533:3
	bne	.LBB11_11
.Ltmp254:
.LBB11_12:
	@DEBUG_VALUE: HAL_SRAM_Write_32b:hsram <- [DW_OP_LLVM_entry_value 1] $r0
	.loc	5 0 3 is_stmt 0                 @ ../Libraries/STM32F4xx_HAL_Driver/Src/stm32f4xx_hal_sram.c:0:3
	movs	r1, #1
	mov.w	r12, #0
	.loc	5 541 16 is_stmt 1              @ ../Libraries/STM32F4xx_HAL_Driver/Src/stm32f4xx_hal_sram.c:541:16
	strb.w	r1, [r0, #73]
.Ltmp255:
	.loc	5 544 3                         @ ../Libraries/STM32F4xx_HAL_Driver/Src/stm32f4xx_hal_sram.c:544:3
	strb.w	r12, [r0, #72]
.Ltmp256:
.LBB11_13:
	@DEBUG_VALUE: HAL_SRAM_Write_32b:hsram <- [DW_OP_LLVM_entry_value 1] $r0
	.loc	5 547 1                         @ ../Libraries/STM32F4xx_HAL_Driver/Src/stm32f4xx_hal_sram.c:547:1
	mov	r0, r12
	pop	{r4, r5, r6, pc}
.Ltmp257:
.Lfunc_end11:
	.size	HAL_SRAM_Write_32b, .Lfunc_end11-HAL_SRAM_Write_32b
	.cfi_endproc
	.cantunwind
	.fnend
                                        @ -- End function
	.section	.text.HAL_SRAM_Read_DMA,"ax",%progbits
	.hidden	HAL_SRAM_Read_DMA               @ -- Begin function HAL_SRAM_Read_DMA
	.globl	HAL_SRAM_Read_DMA
	.p2align	2
	.type	HAL_SRAM_Read_DMA,%function
	.code	16                              @ @HAL_SRAM_Read_DMA
	.thumb_func
HAL_SRAM_Read_DMA:
.Lfunc_begin12:
	.loc	5 559 0                         @ ../Libraries/STM32F4xx_HAL_Driver/Src/stm32f4xx_hal_sram.c:559:0
	.fnstart
	.cfi_startproc
@ %bb.0:
	@DEBUG_VALUE: HAL_SRAM_Read_DMA:hsram <- $r0
	@DEBUG_VALUE: HAL_SRAM_Read_DMA:pAddress <- $r1
	@DEBUG_VALUE: HAL_SRAM_Read_DMA:pDstBuffer <- $r2
	@DEBUG_VALUE: HAL_SRAM_Read_DMA:BufferSize <- $r3
	.save	{r4, r5, r6, lr}
	push	{r4, r5, r6, lr}
	.cfi_def_cfa_offset 16
	.cfi_offset lr, -4
	.cfi_offset r6, -8
	.cfi_offset r5, -12
	.cfi_offset r4, -16
	mov	r4, r0
.Ltmp258:
	@DEBUG_VALUE: HAL_SRAM_Read_DMA:hsram <- $r4
	.loc	5 561 3 prologue_end            @ ../Libraries/STM32F4xx_HAL_Driver/Src/stm32f4xx_hal_sram.c:561:3
	ldrb.w	r0, [r0, #72]
.Ltmp259:
	.loc	5 561 3 is_stmt 0               @ ../Libraries/STM32F4xx_HAL_Driver/Src/stm32f4xx_hal_sram.c:561:3
	cmp	r0, #1
	mov.w	r0, #2
.Ltmp260:
	.loc	5 580 1 is_stmt 1               @ ../Libraries/STM32F4xx_HAL_Driver/Src/stm32f4xx_hal_sram.c:580:1
	it	eq
	popeq	{r4, r5, r6, pc}
.Ltmp261:
.LBB12_1:
	@DEBUG_VALUE: HAL_SRAM_Read_DMA:BufferSize <- $r3
	@DEBUG_VALUE: HAL_SRAM_Read_DMA:pDstBuffer <- $r2
	@DEBUG_VALUE: HAL_SRAM_Read_DMA:pAddress <- $r1
	.loc	5 0 1 is_stmt 0                 @ ../Libraries/STM32F4xx_HAL_Driver/Src/stm32f4xx_hal_sram.c:0:1
	movs	r6, #1
.Ltmp262:
	.loc	5 561 3 is_stmt 1               @ ../Libraries/STM32F4xx_HAL_Driver/Src/stm32f4xx_hal_sram.c:561:3
	strb.w	r6, [r4, #72]
.Ltmp263:
	.loc	5 564 16                        @ ../Libraries/STM32F4xx_HAL_Driver/Src/stm32f4xx_hal_sram.c:564:16
	strb.w	r0, [r4, #73]
	.loc	5 567 10                        @ ../Libraries/STM32F4xx_HAL_Driver/Src/stm32f4xx_hal_sram.c:567:10
	ldr	r0, [r4, #76]
	.loc	5 567 34 is_stmt 0              @ ../Libraries/STM32F4xx_HAL_Driver/Src/stm32f4xx_hal_sram.c:567:34
	movw	r5, :lower16:HAL_SRAM_DMA_XferCpltCallback
	movt	r5, :upper16:HAL_SRAM_DMA_XferCpltCallback
	str	r5, [r0, #60]
	.loc	5 568 34 is_stmt 1              @ ../Libraries/STM32F4xx_HAL_Driver/Src/stm32f4xx_hal_sram.c:568:34
	movw	r5, :lower16:HAL_SRAM_DMA_XferErrorCallback
	movt	r5, :upper16:HAL_SRAM_DMA_XferErrorCallback
	str	r5, [r0, #76]
	.loc	5 571 3                         @ ../Libraries/STM32F4xx_HAL_Driver/Src/stm32f4xx_hal_sram.c:571:3
	bl	HAL_DMA_Start_IT
.Ltmp264:
	@DEBUG_VALUE: HAL_SRAM_Read_DMA:BufferSize <- [DW_OP_LLVM_entry_value 1] $r3
	@DEBUG_VALUE: HAL_SRAM_Read_DMA:pDstBuffer <- [DW_OP_LLVM_entry_value 1] $r2
	@DEBUG_VALUE: HAL_SRAM_Read_DMA:pAddress <- [DW_OP_LLVM_entry_value 1] $r1
	.loc	5 0 3 is_stmt 0                 @ ../Libraries/STM32F4xx_HAL_Driver/Src/stm32f4xx_hal_sram.c:0:3
	movs	r0, #0
	.loc	5 574 16 is_stmt 1              @ ../Libraries/STM32F4xx_HAL_Driver/Src/stm32f4xx_hal_sram.c:574:16
	strb.w	r6, [r4, #73]
.Ltmp265:
	.loc	5 577 3                         @ ../Libraries/STM32F4xx_HAL_Driver/Src/stm32f4xx_hal_sram.c:577:3
	strb.w	r0, [r4, #72]
.Ltmp266:
	.loc	5 580 1                         @ ../Libraries/STM32F4xx_HAL_Driver/Src/stm32f4xx_hal_sram.c:580:1
	pop	{r4, r5, r6, pc}
.Ltmp267:
.Lfunc_end12:
	.size	HAL_SRAM_Read_DMA, .Lfunc_end12-HAL_SRAM_Read_DMA
	.cfi_endproc
	.cantunwind
	.fnend
                                        @ -- End function
	.section	.text.HAL_SRAM_Write_DMA,"ax",%progbits
	.hidden	HAL_SRAM_Write_DMA              @ -- Begin function HAL_SRAM_Write_DMA
	.globl	HAL_SRAM_Write_DMA
	.p2align	2
	.type	HAL_SRAM_Write_DMA,%function
	.code	16                              @ @HAL_SRAM_Write_DMA
	.thumb_func
HAL_SRAM_Write_DMA:
.Lfunc_begin13:
	.loc	5 592 0                         @ ../Libraries/STM32F4xx_HAL_Driver/Src/stm32f4xx_hal_sram.c:592:0
	.fnstart
	.cfi_startproc
@ %bb.0:
	@DEBUG_VALUE: HAL_SRAM_Write_DMA:hsram <- $r0
	@DEBUG_VALUE: HAL_SRAM_Write_DMA:pAddress <- $r1
	@DEBUG_VALUE: HAL_SRAM_Write_DMA:pSrcBuffer <- $r2
	@DEBUG_VALUE: HAL_SRAM_Write_DMA:BufferSize <- $r3
	.save	{r4, r5, r7, lr}
	push	{r4, r5, r7, lr}
	.cfi_def_cfa_offset 16
	.cfi_offset lr, -4
	.cfi_offset r7, -8
	.cfi_offset r5, -12
	.cfi_offset r4, -16
	mov	r4, r0
.Ltmp268:
	@DEBUG_VALUE: HAL_SRAM_Write_DMA:hsram <- $r4
	.loc	5 594 13 prologue_end           @ ../Libraries/STM32F4xx_HAL_Driver/Src/stm32f4xx_hal_sram.c:594:13
	ldrb.w	r0, [r0, #73]
.Ltmp269:
	.loc	5 594 6 is_stmt 0               @ ../Libraries/STM32F4xx_HAL_Driver/Src/stm32f4xx_hal_sram.c:594:6
	cmp	r0, #4
	@DEBUG_VALUE: HAL_SRAM_Write_DMA:pAddress <- $r1
	itt	eq
	moveq	r0, #1
	.loc	5 619 1 is_stmt 1               @ ../Libraries/STM32F4xx_HAL_Driver/Src/stm32f4xx_hal_sram.c:619:1
	popeq	{r4, r5, r7, pc}
.Ltmp270:
.LBB13_1:
	@DEBUG_VALUE: HAL_SRAM_Write_DMA:BufferSize <- $r3
	@DEBUG_VALUE: HAL_SRAM_Write_DMA:pSrcBuffer <- $r2
	@DEBUG_VALUE: HAL_SRAM_Write_DMA:pAddress <- $r1
	@DEBUG_VALUE: HAL_SRAM_Write_DMA:pAddress <- $r1
	.loc	5 600 3                         @ ../Libraries/STM32F4xx_HAL_Driver/Src/stm32f4xx_hal_sram.c:600:3
	ldrb.w	r0, [r4, #72]
.Ltmp271:
	.loc	5 600 3 is_stmt 0               @ ../Libraries/STM32F4xx_HAL_Driver/Src/stm32f4xx_hal_sram.c:600:3
	cmp	r0, #1
	mov.w	r0, #2
.Ltmp272:
	.loc	5 619 1 is_stmt 1               @ ../Libraries/STM32F4xx_HAL_Driver/Src/stm32f4xx_hal_sram.c:619:1
	it	eq
	popeq	{r4, r5, r7, pc}
.Ltmp273:
.LBB13_2:
	@DEBUG_VALUE: HAL_SRAM_Write_DMA:BufferSize <- $r3
	@DEBUG_VALUE: HAL_SRAM_Write_DMA:pSrcBuffer <- $r2
	@DEBUG_VALUE: HAL_SRAM_Write_DMA:pAddress <- $r1
	.loc	5 0 1 is_stmt 0                 @ ../Libraries/STM32F4xx_HAL_Driver/Src/stm32f4xx_hal_sram.c:0:1
	movs	r5, #1
.Ltmp274:
	.loc	5 600 3 is_stmt 1               @ ../Libraries/STM32F4xx_HAL_Driver/Src/stm32f4xx_hal_sram.c:600:3
	strb.w	r5, [r4, #72]
.Ltmp275:
	.loc	5 603 16                        @ ../Libraries/STM32F4xx_HAL_Driver/Src/stm32f4xx_hal_sram.c:603:16
	strb.w	r0, [r4, #73]
	mov	r12, r1
.Ltmp276:
	@DEBUG_VALUE: HAL_SRAM_Write_DMA:pAddress <- $r12
	.loc	5 606 10                        @ ../Libraries/STM32F4xx_HAL_Driver/Src/stm32f4xx_hal_sram.c:606:10
	ldr	r0, [r4, #76]
	.loc	5 606 34 is_stmt 0              @ ../Libraries/STM32F4xx_HAL_Driver/Src/stm32f4xx_hal_sram.c:606:34
	movw	r1, :lower16:HAL_SRAM_DMA_XferCpltCallback
	movt	r1, :upper16:HAL_SRAM_DMA_XferCpltCallback
	str	r1, [r0, #60]
	.loc	5 607 34 is_stmt 1              @ ../Libraries/STM32F4xx_HAL_Driver/Src/stm32f4xx_hal_sram.c:607:34
	movw	r1, :lower16:HAL_SRAM_DMA_XferErrorCallback
	movt	r1, :upper16:HAL_SRAM_DMA_XferErrorCallback
	str	r1, [r0, #76]
	.loc	5 610 3                         @ ../Libraries/STM32F4xx_HAL_Driver/Src/stm32f4xx_hal_sram.c:610:3
	mov	r1, r2
	mov	r2, r12
.Ltmp277:
	@DEBUG_VALUE: HAL_SRAM_Write_DMA:pSrcBuffer <- [DW_OP_LLVM_entry_value 1] $r2
	bl	HAL_DMA_Start_IT
.Ltmp278:
	@DEBUG_VALUE: HAL_SRAM_Write_DMA:BufferSize <- [DW_OP_LLVM_entry_value 1] $r3
	.loc	5 0 3 is_stmt 0                 @ ../Libraries/STM32F4xx_HAL_Driver/Src/stm32f4xx_hal_sram.c:0:3
	movs	r0, #0
	.loc	5 613 16 is_stmt 1              @ ../Libraries/STM32F4xx_HAL_Driver/Src/stm32f4xx_hal_sram.c:613:16
	strb.w	r5, [r4, #73]
.Ltmp279:
	.loc	5 616 3                         @ ../Libraries/STM32F4xx_HAL_Driver/Src/stm32f4xx_hal_sram.c:616:3
	strb.w	r0, [r4, #72]
.Ltmp280:
	.loc	5 619 1                         @ ../Libraries/STM32F4xx_HAL_Driver/Src/stm32f4xx_hal_sram.c:619:1
	pop	{r4, r5, r7, pc}
.Ltmp281:
.Lfunc_end13:
	.size	HAL_SRAM_Write_DMA, .Lfunc_end13-HAL_SRAM_Write_DMA
	.cfi_endproc
	.cantunwind
	.fnend
                                        @ -- End function
	.section	.text.HAL_SRAM_WriteOperation_Enable,"ax",%progbits
	.hidden	HAL_SRAM_WriteOperation_Enable  @ -- Begin function HAL_SRAM_WriteOperation_Enable
	.globl	HAL_SRAM_WriteOperation_Enable
	.p2align	2
	.type	HAL_SRAM_WriteOperation_Enable,%function
	.code	16                              @ @HAL_SRAM_WriteOperation_Enable
	.thumb_func
HAL_SRAM_WriteOperation_Enable:
.Lfunc_begin14:
	.loc	5 822 0                         @ ../Libraries/STM32F4xx_HAL_Driver/Src/stm32f4xx_hal_sram.c:822:0
	.fnstart
	.cfi_startproc
@ %bb.0:
	@DEBUG_VALUE: HAL_SRAM_WriteOperation_Enable:hsram <- $r0
	.save	{r4, r5, r7, lr}
	push	{r4, r5, r7, lr}
	.cfi_def_cfa_offset 16
	.cfi_offset lr, -4
	.cfi_offset r7, -8
	.cfi_offset r5, -12
	.cfi_offset r4, -16
	mov	r4, r0
.Ltmp282:
	@DEBUG_VALUE: HAL_SRAM_WriteOperation_Enable:hsram <- $r4
	.loc	5 824 3 prologue_end            @ ../Libraries/STM32F4xx_HAL_Driver/Src/stm32f4xx_hal_sram.c:824:3
	ldrb.w	r0, [r0, #72]
.Ltmp283:
	.loc	5 824 3 is_stmt 0               @ ../Libraries/STM32F4xx_HAL_Driver/Src/stm32f4xx_hal_sram.c:824:3
	cmp	r0, #1
	itt	eq
	moveq	r0, #2
.Ltmp284:
	.loc	5 836 1 is_stmt 1               @ ../Libraries/STM32F4xx_HAL_Driver/Src/stm32f4xx_hal_sram.c:836:1
	popeq	{r4, r5, r7, pc}
.Ltmp285:
.LBB14_1:
	.loc	5 827 44                        @ ../Libraries/STM32F4xx_HAL_Driver/Src/stm32f4xx_hal_sram.c:827:44
	ldr	r0, [r4]
	.loc	5 827 66 is_stmt 0              @ ../Libraries/STM32F4xx_HAL_Driver/Src/stm32f4xx_hal_sram.c:827:66
	ldr	r1, [r4, #8]
	movs	r5, #1
.Ltmp286:
	.loc	5 824 3 is_stmt 1               @ ../Libraries/STM32F4xx_HAL_Driver/Src/stm32f4xx_hal_sram.c:824:3
	strb.w	r5, [r4, #72]
.Ltmp287:
	.loc	5 827 3                         @ ../Libraries/STM32F4xx_HAL_Driver/Src/stm32f4xx_hal_sram.c:827:3
	bl	FSMC_NORSRAM_WriteOperation_Enable
.Ltmp288:
	.loc	5 0 3 is_stmt 0                 @ ../Libraries/STM32F4xx_HAL_Driver/Src/stm32f4xx_hal_sram.c:0:3
	movs	r0, #0
	.loc	5 830 16 is_stmt 1              @ ../Libraries/STM32F4xx_HAL_Driver/Src/stm32f4xx_hal_sram.c:830:16
	strb.w	r5, [r4, #73]
.Ltmp289:
	.loc	5 833 3                         @ ../Libraries/STM32F4xx_HAL_Driver/Src/stm32f4xx_hal_sram.c:833:3
	strb.w	r0, [r4, #72]
.Ltmp290:
	.loc	5 836 1                         @ ../Libraries/STM32F4xx_HAL_Driver/Src/stm32f4xx_hal_sram.c:836:1
	pop	{r4, r5, r7, pc}
.Ltmp291:
.Lfunc_end14:
	.size	HAL_SRAM_WriteOperation_Enable, .Lfunc_end14-HAL_SRAM_WriteOperation_Enable
	.cfi_endproc
	.cantunwind
	.fnend
                                        @ -- End function
	.section	.text.HAL_SRAM_WriteOperation_Disable,"ax",%progbits
	.hidden	HAL_SRAM_WriteOperation_Disable @ -- Begin function HAL_SRAM_WriteOperation_Disable
	.globl	HAL_SRAM_WriteOperation_Disable
	.p2align	2
	.type	HAL_SRAM_WriteOperation_Disable,%function
	.code	16                              @ @HAL_SRAM_WriteOperation_Disable
	.thumb_func
HAL_SRAM_WriteOperation_Disable:
.Lfunc_begin15:
	.loc	5 845 0                         @ ../Libraries/STM32F4xx_HAL_Driver/Src/stm32f4xx_hal_sram.c:845:0
	.fnstart
	.cfi_startproc
@ %bb.0:
	@DEBUG_VALUE: HAL_SRAM_WriteOperation_Disable:hsram <- $r0
	.save	{r4, lr}
	push	{r4, lr}
	.cfi_def_cfa_offset 8
	.cfi_offset lr, -4
	.cfi_offset r4, -8
	mov	r4, r0
.Ltmp292:
	@DEBUG_VALUE: HAL_SRAM_WriteOperation_Disable:hsram <- $r4
	.loc	5 847 3 prologue_end            @ ../Libraries/STM32F4xx_HAL_Driver/Src/stm32f4xx_hal_sram.c:847:3
	ldrb.w	r0, [r0, #72]
.Ltmp293:
	.loc	5 847 3 is_stmt 0               @ ../Libraries/STM32F4xx_HAL_Driver/Src/stm32f4xx_hal_sram.c:847:3
	cmp	r0, #1
	mov.w	r0, #2
.Ltmp294:
	.loc	5 862 1 is_stmt 1               @ ../Libraries/STM32F4xx_HAL_Driver/Src/stm32f4xx_hal_sram.c:862:1
	it	eq
	popeq	{r4, pc}
.Ltmp295:
.LBB15_1:
	.loc	5 0 1 is_stmt 0                 @ ../Libraries/STM32F4xx_HAL_Driver/Src/stm32f4xx_hal_sram.c:0:1
	movs	r1, #1
.Ltmp296:
	.loc	5 847 3 is_stmt 1               @ ../Libraries/STM32F4xx_HAL_Driver/Src/stm32f4xx_hal_sram.c:847:3
	strb.w	r1, [r4, #72]
.Ltmp297:
	.loc	5 850 16                        @ ../Libraries/STM32F4xx_HAL_Driver/Src/stm32f4xx_hal_sram.c:850:16
	strb.w	r0, [r4, #73]
	.loc	5 853 45                        @ ../Libraries/STM32F4xx_HAL_Driver/Src/stm32f4xx_hal_sram.c:853:45
	ldr	r0, [r4]
	.loc	5 853 67 is_stmt 0              @ ../Libraries/STM32F4xx_HAL_Driver/Src/stm32f4xx_hal_sram.c:853:67
	ldr	r1, [r4, #8]
	.loc	5 853 3                         @ ../Libraries/STM32F4xx_HAL_Driver/Src/stm32f4xx_hal_sram.c:853:3
	bl	FSMC_NORSRAM_WriteOperation_Disable
.Ltmp298:
	.loc	5 0 3                           @ ../Libraries/STM32F4xx_HAL_Driver/Src/stm32f4xx_hal_sram.c:0:3
	movs	r0, #4
	.loc	5 856 16 is_stmt 1              @ ../Libraries/STM32F4xx_HAL_Driver/Src/stm32f4xx_hal_sram.c:856:16
	strb.w	r0, [r4, #73]
	movs	r0, #0
.Ltmp299:
	.loc	5 859 3                         @ ../Libraries/STM32F4xx_HAL_Driver/Src/stm32f4xx_hal_sram.c:859:3
	strb.w	r0, [r4, #72]
.Ltmp300:
	.loc	5 862 1                         @ ../Libraries/STM32F4xx_HAL_Driver/Src/stm32f4xx_hal_sram.c:862:1
	pop	{r4, pc}
.Ltmp301:
.Lfunc_end15:
	.size	HAL_SRAM_WriteOperation_Disable, .Lfunc_end15-HAL_SRAM_WriteOperation_Disable
	.cfi_endproc
	.cantunwind
	.fnend
                                        @ -- End function
	.section	.text.HAL_SRAM_GetState,"ax",%progbits
	.hidden	HAL_SRAM_GetState               @ -- Begin function HAL_SRAM_GetState
	.globl	HAL_SRAM_GetState
	.p2align	2
	.type	HAL_SRAM_GetState,%function
	.code	16                              @ @HAL_SRAM_GetState
	.thumb_func
HAL_SRAM_GetState:
.Lfunc_begin16:
	.loc	5 890 0                         @ ../Libraries/STM32F4xx_HAL_Driver/Src/stm32f4xx_hal_sram.c:890:0
	.fnstart
	.cfi_startproc
@ %bb.0:
	@DEBUG_VALUE: HAL_SRAM_GetState:hsram <- $r0
	.loc	5 891 17 prologue_end           @ ../Libraries/STM32F4xx_HAL_Driver/Src/stm32f4xx_hal_sram.c:891:17
	ldrb.w	r0, [r0, #73]
.Ltmp302:
	@DEBUG_VALUE: HAL_SRAM_GetState:hsram <- [DW_OP_LLVM_entry_value 1] $r0
	.loc	5 891 3 is_stmt 0               @ ../Libraries/STM32F4xx_HAL_Driver/Src/stm32f4xx_hal_sram.c:891:3
	bx	lr
.Ltmp303:
.Lfunc_end16:
	.size	HAL_SRAM_GetState, .Lfunc_end16-HAL_SRAM_GetState
	.cfi_endproc
	.cantunwind
	.fnend
                                        @ -- End function
	.file	6 "E:\\StudyNote\\study_STM32-HAL\\STM32F4_Quick_Start_Guide_HAL\\2.code\\19.RTC-Alarms\\Project" "../Libraries/CMSIS/Device/ST/STM32F4xx/Include/stm32f407xx.h"
	.file	7 "E:\\StudyNote\\study_STM32-HAL\\STM32F4_Quick_Start_Guide_HAL\\2.code\\19.RTC-Alarms\\Project" "../Libraries/STM32F4xx_HAL_Driver/Inc/stm32f4xx_ll_fsmc.h"
	.section	".note.GNU-stack","",%progbits
	.eabi_attribute	30, 1	@ Tag_ABI_optimization_goals
	.ARM_attribute	16, 1	@ Tag_AV_eba