	.text
	.syntax unified
	.eabi_attribute	67, "2.09"	@ Tag_conformance
	.cpu	cortex-m4
	.eabi_attribute	6, 13	@ Tag_CPU_arch
	.eabi_attribute	7, 77	@ Tag_CPU_arch_profile
	.eabi_attribute	8, 0	@ Tag_ARM_ISA_use
	.eabi_attribute	9, 2	@ Tag_THUMB_ISA_use
	.fpu	fpv4-sp-d16
	.eabi_attribute	27, 1	@ Tag_ABI_HardFP_use
	.eabi_attribute	36, 1	@ Tag_FP_HP_extension
	.eabi_attribute	34, 1	@ Tag_CPU_unaligned_access
	.eabi_attribute	17, 1	@ Tag_ABI_PCS_GOT_use
	.eabi_attribute	20, 2	@ Tag_ABI_FP_denormal
	.eabi_attribute	21, 0	@ Tag_ABI_FP_exceptions
	.eabi_attribute	23, 1	@ Tag_ABI_FP_number_model
	.eabi_attribute	24, 1	@ Tag_ABI_align_needed
	.eabi_attribute	25, 1	@ Tag_ABI_align_preserved
	.eabi_attribute	28, 1	@ Tag_ABI_VFP_args
	.eabi_attribute	38, 1	@ Tag_ABI_FP_16bit_format
	.eabi_attribute	18, 2	@ Tag_ABI_PCS_wchar_t
	.eabi_attribute	26, 1	@ Tag_ABI_enum_size
	.eabi_attribute	14, 0	@ Tag_ABI_PCS_R9_use
	.file	"delay.c"
	.file	1 "E:\\dianzi\\MDKv5\\ARM\\ARMCLANG\\Bin\\..\\include" "stdint.h"
	.file	2 "E:\\StudyNote\\study_STM32-HAL\\STM32F4_Quick_Start_Guide_HAL\\2.code\\20.RNG-Key\\Project" "../User/SYSTEM/delay/delay.c"
	.file	3 "E:\\StudyNote\\study_STM32-HAL\\STM32F4_Quick_Start_Guide_HAL\\2.code\\20.RNG-Key\\Project" "../Libraries/CMSIS/Include\\core_cm4.h"
	.section	.text.delay_init,"ax",%progbits
	.hidden	delay_init                      @ -- Begin function delay_init
	.globl	delay_init
	.p2align	2
	.type	delay_init,%function
	.code	16                              @ @delay_init
	.thumb_func
delay_init:
.Lfunc_begin0:
	.loc	2 89 0                          @ ../User/SYSTEM/delay/delay.c:89:0
	.fnstart
	.cfi_sections .debug_frame
	.cfi_startproc
@ %bb.0:
	@DEBUG_VALUE: delay_init:sysclk <- $r0
	.loc	2 93 14 prologue_end            @ ../User/SYSTEM/delay/delay.c:93:14
	movw	r1, :lower16:g_fac_us
	movt	r1, :upper16:g_fac_us
	str	r0, [r1]
	.loc	2 104 1                         @ ../User/SYSTEM/delay/delay.c:104:1
	bx	lr
.Ltmp0:
.Lfunc_end0:
	.size	delay_init, .Lfunc_end0-delay_init
	.cfi_endproc
	.cantunwind
	.fnend
                                        @ -- End function
	.section	.text.delay_us,"ax",%progbits
	.hidden	delay_us                        @ -- Begin function delay_us
	.globl	delay_us
	.p2align	2
	.type	delay_us,%function
	.code	16                              @ @delay_us
	.thumb_func
delay_us:
.Lfunc_begin1:
	.loc	2 114 0                         @ ../User/SYSTEM/delay/delay.c:114:0
	.fnstart
	.cfi_startproc
@ %bb.0:
	@DEBUG_VALUE: delay_us:nus <- $r0
	.save	{r7, lr}
	push	{r7, lr}
	.cfi_def_cfa_offset 8
	.cfi_offset lr, -4
	.cfi_offset r7, -8
	movw	r1, #57368
.Ltmp1:
	.loc	2 118 19 prologue_end           @ ../User/SYSTEM/delay/delay.c:118:19
	movw	r2, :lower16:g_fac_us
	movt	r1, #57344
.Ltmp2:
	@DEBUG_VALUE: delay_us:tcnt <- 0
	movt	r2, :upper16:g_fac_us
	.loc	2 117 32                        @ ../User/SYSTEM/delay/delay.c:117:32
	ldr	r12, [r1, #-4]
.Ltmp3:
	@DEBUG_VALUE: delay_us:reload <- $r12
	.loc	2 118 19                        @ ../User/SYSTEM/delay/delay.c:118:19
	ldr	r2, [r2]
	movs	r3, #0
	.loc	2 118 17 is_stmt 0              @ ../User/SYSTEM/delay/delay.c:118:17
	mul	lr, r2, r0
.Ltmp4:
	@DEBUG_VALUE: delay_us:ticks <- $lr
	.loc	2 124 21 is_stmt 1              @ ../User/SYSTEM/delay/delay.c:124:21
	ldr	r0, [r1]
.Ltmp5:
	@DEBUG_VALUE: delay_us:nus <- [DW_OP_LLVM_entry_value 1] $r0
	@DEBUG_VALUE: delay_us:told <- $r0
	.loc	2 0 21 is_stmt 0                @ ../User/SYSTEM/delay/delay.c:0:21
	b	.LBB1_2
.Ltmp6:
.LBB1_1:                                @   in Loop: Header=BB1_2 Depth=1
	@DEBUG_VALUE: delay_us:tnow <- $r2
	@DEBUG_VALUE: delay_us:tcnt <- $r3
	@DEBUG_VALUE: delay_us:told <- $r0
	@DEBUG_VALUE: delay_us:nus <- [DW_OP_LLVM_entry_value 1] $r0
	@DEBUG_VALUE: delay_us:ticks <- $lr
	@DEBUG_VALUE: delay_us:reload <- $r12
	.loc	2 130 17 is_stmt 1              @ ../User/SYSTEM/delay/delay.c:130:17
	add	r3, r0
.Ltmp7:
	subs	r3, r3, r2
.Ltmp8:
	.loc	2 0 0 is_stmt 0                 @ ../User/SYSTEM/delay/delay.c:0:0
	cmp	r0, r2
	it	ls
	addls	r3, r12
.Ltmp9:
	@DEBUG_VALUE: delay_us:told <- $r2
	@DEBUG_VALUE: delay_us:tcnt <- $r3
	.loc	2 139 17 is_stmt 1              @ ../User/SYSTEM/delay/delay.c:139:17
	cmp	r3, lr
	mov	r0, r2
.Ltmp10:
	@DEBUG_VALUE: delay_us:told <- $r0
	.loc	2 150 1                         @ ../User/SYSTEM/delay/delay.c:150:1
	it	hs
	pophs	{r7, pc}
.Ltmp11:
	.p2align	2
.LBB1_2:                                @ =>This Inner Loop Header: Depth=1
	@DEBUG_VALUE: delay_us:told <- $r0
	@DEBUG_VALUE: delay_us:nus <- [DW_OP_LLVM_entry_value 1] $r0
	@DEBUG_VALUE: delay_us:ticks <- $lr
	@DEBUG_VALUE: delay_us:reload <- $r12
	@DEBUG_VALUE: delay_us:tcnt <- $r3
	@DEBUG_VALUE: delay_us:told <- $r0
	.loc	2 127 25                        @ ../User/SYSTEM/delay/delay.c:127:25
	ldr	r2, [r1]
.Ltmp12:
	@DEBUG_VALUE: delay_us:tnow <- $r2
	.loc	2 128 13                        @ ../User/SYSTEM/delay/delay.c:128:13
	cmp	r0, r2
	bne	.LBB1_1
.Ltmp13:
@ %bb.3:                                @   in Loop: Header=BB1_2 Depth=1
	@DEBUG_VALUE: delay_us:tnow <- $r2
	@DEBUG_VALUE: delay_us:tcnt <- $r3
	@DEBUG_VALUE: delay_us:told <- $r0
	@DEBUG_VALUE: delay_us:nus <- [DW_OP_LLVM_entry_value 1] $r0
	@DEBUG_VALUE: delay_us:ticks <- $lr
	@DEBUG_VALUE: delay_us:reload <- $r12
	@DEBUG_VALUE: delay_us:tcnt <- $r3
	@DEBUG_VALUE: delay_us:told <- $r0
	.loc	2 127 25                        @ ../User/SYSTEM/delay/delay.c:127:25
	ldr	r2, [r1]
.Ltmp14:
	@DEBUG_VALUE: delay_us:tnow <- $r2
	.loc	2 128 13                        @ ../User/SYSTEM/delay/delay.c:128:13
	cmp	r0, r2
	bne	.LBB1_1
.Ltmp15:
@ %bb.4:                                @   in Loop: Header=BB1_2 Depth=1
	@DEBUG_VALUE: delay_us:tnow <- $r2
	@DEBUG_VALUE: delay_us:tcnt <- $r3
	@DEBUG_VALUE: delay_us:told <- $r0
	@DEBUG_VALUE: delay_us:nus <- [DW_OP_LLVM_entry_value 1] $r0
	@DEBUG_VALUE: delay_us:ticks <- $lr
	@DEBUG_VALUE: delay_us:reload <- $r12
	@DEBUG_VALUE: delay_us:tcnt <- $r3
	@DEBUG_VALUE: delay_us:told <- $r0
	.loc	2 127 25                        @ ../User/SYSTEM/delay/delay.c:127:25
	ldr	r2, [r1]
.Ltmp16:
	@DEBUG_VALUE: delay_us:tnow <- $r2
	.loc	2 128 13                        @ ../User/SYSTEM/delay/delay.c:128:13
	cmp	r0, r2
	bne	.LBB1_1
.Ltmp17:
@ %bb.5:                                @   in Loop: Header=BB1_2 Depth=1
	@DEBUG_VALUE: delay_us:tnow <- $r2
	@DEBUG_VALUE: delay_us:tcnt <- $r3
	@DEBUG_VALUE: delay_us:told <- $r0
	@DEBUG_VALUE: delay_us:nus <- [DW_OP_LLVM_entry_value 1] $r0
	@DEBUG_VALUE: delay_us:ticks <- $lr
	@DEBUG_VALUE: delay_us:reload <- $r12
	@DEBUG_VALUE: delay_us:tcnt <- $r3
	@DEBUG_VALUE: delay_us:told <- $r0
	.loc	2 127 25                        @ ../User/SYSTEM/delay/delay.c:127:25
	ldr	r2, [r1]
.Ltmp18:
	@DEBUG_VALUE: delay_us:tnow <- $r2
	.loc	2 128 13                        @ ../User/SYSTEM/delay/delay.c:128:13
	cmp	r0, r2
	beq	.LBB1_2
	b	.LBB1_1
.Ltmp19:
.Lfunc_end1:
	.size	delay_us, .Lfunc_end1-delay_us
	.cfi_endproc
	.cantunwind
	.fnend
                                        @ -- End function
	.section	.text.delay_ms,"ax",%progbits
	.hidden	delay_ms                        @ -- Begin function delay_ms
	.globl	delay_ms
	.p2align	2
	.type	delay_ms,%function
	.code	16                              @ @delay_ms
	.thumb_func
delay_ms:
.Lfunc_begin2:
	.loc	2 158 0                         @ ../User/SYSTEM/delay/delay.c:158:0
	.fnstart
	.cfi_startproc
@ %bb.0:
	@DEBUG_VALUE: delay_ms:nms <- $r0
	.save	{r7, lr}
	push	{r7, lr}
	.cfi_def_cfa_offset 8
	.cfi_offset lr, -4
	.cfi_offset r7, -8
	movw	r1, #57368
.Ltmp20:
	.loc	2 118 19 prologue_end           @ ../User/SYSTEM/delay/delay.c:118:19
	movw	r2, :lower16:g_fac_us
	movt	r1, #57344
.Ltmp21:
	@DEBUG_VALUE: delay_us:tcnt <- 0
	@DEBUG_VALUE: delay_us:nus <- undef
	movt	r2, :upper16:g_fac_us
	.loc	2 117 32                        @ ../User/SYSTEM/delay/delay.c:117:32
	ldr	r12, [r1, #-4]
.Ltmp22:
	@DEBUG_VALUE: delay_us:reload <- $r12
	.loc	2 118 19                        @ ../User/SYSTEM/delay/delay.c:118:19
	ldr	r2, [r2]
	movs	r3, #0
.Ltmp23:
	.loc	2 172 29                        @ ../User/SYSTEM/delay/delay.c:172:29
	muls	r0, r2, r0
.Ltmp24:
	@DEBUG_VALUE: delay_ms:nms <- [DW_OP_LLVM_entry_value 1] $r0
	.loc	2 0 29 is_stmt 0                @ ../User/SYSTEM/delay/delay.c:0:29
	mov.w	r2, #1000
.Ltmp25:
	.loc	2 118 17 is_stmt 1              @ ../User/SYSTEM/delay/delay.c:118:17
	mul	lr, r0, r2
.Ltmp26:
	@DEBUG_VALUE: delay_us:ticks <- $lr
	@DEBUG_VALUE: delay_us:tcnt <- 0
	.loc	2 124 21                        @ ../User/SYSTEM/delay/delay.c:124:21
	ldr	r0, [r1]
.Ltmp27:
	@DEBUG_VALUE: delay_us:told <- $r0
	.loc	2 0 21 is_stmt 0                @ ../User/SYSTEM/delay/delay.c:0:21
	b	.LBB2_2
.Ltmp28:
.LBB2_1:                                @   in Loop: Header=BB2_2 Depth=1
	@DEBUG_VALUE: delay_us:tnow <- $r2
	@DEBUG_VALUE: delay_us:tcnt <- $r3
	@DEBUG_VALUE: delay_us:told <- $r0
	@DEBUG_VALUE: delay_us:ticks <- $lr
	@DEBUG_VALUE: delay_ms:nms <- [DW_OP_LLVM_entry_value 1] $r0
	@DEBUG_VALUE: delay_us:reload <- $r12
	.loc	2 130 17 is_stmt 1              @ ../User/SYSTEM/delay/delay.c:130:17
	add	r3, r0
.Ltmp29:
	subs	r3, r3, r2
.Ltmp30:
	.loc	2 0 0 is_stmt 0                 @ ../User/SYSTEM/delay/delay.c:0:0
	cmp	r0, r2
	it	ls
	addls	r3, r12
.Ltmp31:
	@DEBUG_VALUE: delay_us:told <- $r2
	@DEBUG_VALUE: delay_us:tcnt <- $r3
	.loc	2 139 17 is_stmt 1              @ ../User/SYSTEM/delay/delay.c:139:17
	cmp	r3, lr
	mov	r0, r2
.Ltmp32:
	@DEBUG_VALUE: delay_us:told <- $r0
	.loc	2 173 1                         @ ../User/SYSTEM/delay/delay.c:173:1
	it	hs
	pophs	{r7, pc}
.Ltmp33:
	.p2align	2
.LBB2_2:                                @ =>This Inner Loop Header: Depth=1
	@DEBUG_VALUE: delay_us:told <- $r0
	@DEBUG_VALUE: delay_us:ticks <- $lr
	@DEBUG_VALUE: delay_ms:nms <- [DW_OP_LLVM_entry_value 1] $r0
	@DEBUG_VALUE: delay_us:reload <- $r12
	@DEBUG_VALUE: delay_us:tcnt <- $r3
	@DEBUG_VALUE: delay_us:told <- $r0
	.loc	2 127 25                        @ ../User/SYSTEM/delay/delay.c:127:25
	ldr	r2, [r1]
.Ltmp34:
	@DEBUG_VALUE: delay_us:tnow <- $r2
	.loc	2 128 13                        @ ../User/SYSTEM/delay/delay.c:128:13
	cmp	r0, r2
	bne	.LBB2_1
.Ltmp35:
@ %bb.3:                                @   in Loop: Header=BB2_2 Depth=1
	@DEBUG_VALUE: delay_us:tnow <- $r2
	@DEBUG_VALUE: delay_us:tcnt <- $r3
	@DEBUG_VALUE: delay_us:told <- $r0
	@DEBUG_VALUE: delay_us:ticks <- $lr
	@DEBUG_VALUE: delay_ms:nms <- [DW_OP_LLVM_entry_value 1] $r0
	@DEBUG_VALUE: delay_us:reload <- $r12
	@DEBUG_VALUE: delay_us:tcnt <- $r3
	@DEBUG_VALUE: delay_us:told <- $r0
	.loc	2 127 25                        @ ../User/SYSTEM/delay/delay.c:127:25
	ldr	r2, [r1]
.Ltmp36:
	@DEBUG_VALUE: delay_us:tnow <- $r2
	.loc	2 128 13                        @ ../User/SYSTEM/delay/delay.c:128:13
	cmp	r0, r2
	bne	.LBB2_1
.Ltmp37:
@ %bb.4:                                @   in Loop: Header=BB2_2 Depth=1
	@DEBUG_VALUE: delay_us:tnow <- $r2
	@DEBUG_VALUE: delay_us:tcnt <- $r3
	@DEBUG_VALUE: delay_us:told <- $r0
	@DEBUG_VALUE: delay_us:ticks <- $lr
	@DEBUG_VALUE: delay_ms:nms <- [DW_OP_LLVM_entry_value 1] $r0
	@DEBUG_VALUE: delay_us:reload <- $r12
	@DEBUG_VALUE: delay_us:tcnt <- $r3
	@DEBUG_VALUE: delay_us:told <- $r0
	.loc	2 127 25                        @ ../User/SYSTEM/delay/delay.c:127:25
	ldr	r2, [r1]
.Ltmp38:
	@DEBUG_VALUE: delay_us:tnow <- $r2
	.loc	2 128 13                        @ ../User/SYSTEM/delay/delay.c:128:13
	cmp	r0, r2
	bne	.LBB2_1
.Ltmp39:
@ %bb.5:                                @   in Loop: Header=BB2_2 Depth=1
	@DEBUG_VALUE: delay_us:tnow <- $r2
	@DEBUG_VALUE: delay_us:tcnt <- $r3
	@DEBUG_VALUE: delay_us:told <- $r0
	@DEBUG_VALUE: delay_us:ticks <- $lr
	@DEBUG_VALUE: delay_ms:nms <- [DW_OP_LLVM_entry_value 1] $r0
	@DEBUG_VALUE: delay_us:reload <- $r12
	@DEBUG_VALUE: delay_us:tcnt <- $r3
	@DEBUG_VALUE: delay_us:told <- $r0
	.loc	2 127 25                        @ ../User/SYSTEM/delay/delay.c:127:25
	ldr	r2, [r1]
.Ltmp40:
	@DEBUG_VALUE: delay_us:tnow <- $r2
	.loc	2 128 13                        @ ../User/SYSTEM/delay/delay.c:128:13
	cmp	r0, r2
	beq	.LBB2_2
	b	.LBB2_1
.Ltmp41:
.Lfunc_end2:
	.size	delay_ms, .Lfunc_end2-delay_ms
	.cfi_endproc
	.cantunwind
	.fnend
                                        @ -- End function
	.section	.text.HAL_Delay,"ax",%progbits
	.hidden	HAL_Delay                       @ -- Begin function HAL_Delay
	.globl	HAL_Delay
	.p2align	2
	.type	HAL_Delay,%function
	.code	16                              @ @HAL_Delay
	.thumb_func
HAL_Delay:
.Lfunc_begin3:
	.loc	2 182 0                         @ ../User/SYSTEM/delay/delay.c:182:0
	.fnstart
	.cfi_startproc
@ %bb.0:
	@DEBUG_VALUE: HAL_Delay:Delay <- $r0
	.save	{r7, lr}
	push	{r7, lr}
	.cfi_def_cfa_offset 8
	.cfi_offset lr, -4
	.cfi_offset r7, -8
	movw	r1, #57368
.Ltmp42:
	.loc	2 118 19 prologue_end           @ ../User/SYSTEM/delay/delay.c:118:19
	movw	r2, :lower16:g_fac_us
	movt	r1, #57344
.Ltmp43:
	@DEBUG_VALUE: delay_ms:nms <- $r0
	movt	r2, :upper16:g_fac_us
	.loc	2 117 32                        @ ../User/SYSTEM/delay/delay.c:117:32
	ldr	r12, [r1, #-4]
.Ltmp44:
	@DEBUG_VALUE: delay_us:reload <- $r12
	.loc	2 118 19                        @ ../User/SYSTEM/delay/delay.c:118:19
	ldr	r2, [r2]
.Ltmp45:
	.loc	2 172 25                        @ ../User/SYSTEM/delay/delay.c:172:25
	uxth	r0, r0
.Ltmp46:
	@DEBUG_VALUE: HAL_Delay:Delay <- [DW_OP_LLVM_entry_value 1] $r0
	@DEBUG_VALUE: delay_us:nus <- undef
	.loc	2 172 29 is_stmt 0              @ ../User/SYSTEM/delay/delay.c:172:29
	muls	r0, r2, r0
	mov.w	r2, #1000
.Ltmp47:
	@DEBUG_VALUE: delay_us:tcnt <- 0
	.loc	2 118 17 is_stmt 1              @ ../User/SYSTEM/delay/delay.c:118:17
	mul	lr, r0, r2
.Ltmp48:
	@DEBUG_VALUE: delay_us:ticks <- $lr
	.loc	2 124 21                        @ ../User/SYSTEM/delay/delay.c:124:21
	ldr	r0, [r1]
.Ltmp49:
	@DEBUG_VALUE: delay_us:told <- $r0
	.loc	2 0 21 is_stmt 0                @ ../User/SYSTEM/delay/delay.c:0:21
	movs	r3, #0
	b	.LBB3_2
.Ltmp50:
.LBB3_1:                                @   in Loop: Header=BB3_2 Depth=1
	@DEBUG_VALUE: delay_us:tnow <- $r2
	@DEBUG_VALUE: delay_us:tcnt <- $r3
	@DEBUG_VALUE: delay_us:told <- $r0
	@DEBUG_VALUE: delay_us:ticks <- $lr
	@DEBUG_VALUE: HAL_Delay:Delay <- [DW_OP_LLVM_entry_value 1] $r0
	@DEBUG_VALUE: delay_us:reload <- $r12
	.loc	2 130 17 is_stmt 1              @ ../User/SYSTEM/delay/delay.c:130:17
	add	r3, r0
.Ltmp51:
	subs	r3, r3, r2
.Ltmp52:
	.loc	2 0 0 is_stmt 0                 @ ../User/SYSTEM/delay/delay.c:0:0
	cmp	r0, r2
	it	ls
	addls	r3, r12
.Ltmp53:
	@DEBUG_VALUE: delay_us:told <- $r2
	@DEBUG_VALUE: delay_us:tcnt <- $r3
	.loc	2 139 17 is_stmt 1              @ ../User/SYSTEM/delay/delay.c:139:17
	cmp	r3, lr
	mov	r0, r2
.Ltmp54:
	@DEBUG_VALUE: delay_us:told <- $r0
	.loc	2 184 1                         @ ../User/SYSTEM/delay/delay.c:184:1
	it	hs
	pophs	{r7, pc}
.Ltmp55:
	.p2align	2
.LBB3_2:                                @ =>This Inner Loop Header: Depth=1
	@DEBUG_VALUE: delay_us:told <- $r0
	@DEBUG_VALUE: delay_us:ticks <- $lr
	@DEBUG_VALUE: HAL_Delay:Delay <- [DW_OP_LLVM_entry_value 1] $r0
	@DEBUG_VALUE: delay_us:reload <- $r12
	@DEBUG_VALUE: delay_us:tcnt <- $r3
	@DEBUG_VALUE: delay_us:told <- $r0
	.loc	2 127 25                        @ ../User/SYSTEM/delay/delay.c:127:25
	ldr	r2, [r1]
.Ltmp56:
	@DEBUG_VALUE: delay_us:tnow <- $r2
	.loc	2 128 13                        @ ../User/SYSTEM/delay/delay.c:128:13
	cmp	r0, r2
	bne	.LBB3_1
.Ltmp57:
@ %bb.3:                                @   in Loop: Header=BB3_2 Depth=1
	@DEBUG_VALUE: delay_us:tnow <- $r2
	@DEBUG_VALUE: delay_us:tcnt <- $r3
	@DEBUG_VALUE: delay_us:told <- $r0
	@DEBUG_VALUE: delay_us:ticks <- $lr
	@DEBUG_VALUE: HAL_Delay:Delay <- [DW_OP_LLVM_entry_value 1] $r0
	@DEBUG_VALUE: delay_us:reload <- $r12
	@DEBUG_VALUE: delay_us:tcnt <- $r3
	@DEBUG_VALUE: delay_us:told <- $r0
	.loc	2 127 25                        @ ../User/SYSTEM/delay/delay.c:127:25
	ldr	r2, [r1]
.Ltmp58:
	@DEBUG_VALUE: delay_us:tnow <- $r2
	.loc	2 128 13                        @ ../User/SYSTEM/delay/delay.c:128:13
	cmp	r0, r2
	bne	.LBB3_1
.Ltmp59:
@ %bb.4:                                @   in Loop: Header=BB3_2 Depth=1
	@DEBUG_VALUE: delay_us:tnow <- $r2
	@DEBUG_VALUE: delay_us:tcnt <- $r3
	@DEBUG_VALUE: delay_us:told <- $r0
	@DEBUG_VALUE: delay_us:ticks <- $lr
	@DEBUG_VALUE: HAL_Delay:Delay <- [DW_OP_LLVM_entry_value 1] $r0
	@DEBUG_VALUE: delay_us:reload <- $r12
	@DEBUG_VALUE: delay_us:tcnt <- $r3
	@DEBUG_VALUE: delay_us:told <- $r0
	.loc	2 127 25                        @ ../User/SYSTEM/delay/delay.c:127:25
	ldr	r2, [r1]
.Ltmp60:
	@DEBUG_VALUE: delay_us:tnow <- $r2
	.loc	2 128 13                        @ ../User/SYSTEM/delay/delay.c:128:13
	cmp	r0, r2
	bne	.LBB3_1
.Ltmp61:
@ %bb.5:                                @   in Loop: Header=BB3_2 Depth=1
	@DEBUG_VALUE: delay_us:tnow <- $r2
	@DEBUG_VALUE: delay_us:tcnt <- $r3
	@DEBUG_VALUE: delay_us:told <- $r0
	@DEBUG_VALUE: delay_us:ticks <- $lr
	@DEBUG_VALUE: HAL_Delay:Delay <- [DW_OP_LLVM_entry_value 1] $r0
	@DEBUG_VALUE: delay_us:reload <- $r12
	@DEBUG_VALUE: delay_us:tcnt <- $r3
	@DEBUG_VALUE: delay_us:told <- $r0
	.loc	2 127 25                        @ ../User/SYSTEM/delay/delay.c:127:25
	ldr	r2, [r1]
.Ltmp62:
	@DEBUG_VALUE: delay_us:tnow <- $r2
	.loc	2 128 13                        @ ../User/SYSTEM/delay/delay.c:128:13
	cmp	r0, r2
	beq	.LBB3_2
	b	.LBB3_1
.Ltmp63:
.Lfunc_end3:
	.size	HAL_Delay, .Lfunc_end3-HAL_Delay
	.cfi_endproc
	.cantunwind
	.fnend
                                        @ -- End function
	.type	g_fac_us,%object                @ @g_fac_us
	.section	.bss.g_fac_us,"aw",%nobits
	.p2align	2, 0x0
g_fac_us:
	.long	0                               @ 0x0
	.size	g_fac_us, 4

	.section	".note.GNU-stack","",%progbits
	.eabi_attribute	30, 1	@ Tag_ABI_optimization_goals
	.ARM_attribute	16, 1	@ Tag_AV_eba