	.text
	.syntax unified
	.eabi_attribute	67, "2.09"	@ Tag_conformance
	.cpu	cortex-m4
	.eabi_attribute	6, 13	@ Tag_CPU_arch
	.eabi_attribute	7, 77	@ Tag_CPU_arch_profile
	.eabi_attribute	8, 0	@ Tag_ARM_ISA_use
	.eabi_attribute	9, 2	@ Tag_THUMB_ISA_use
	.fpu	fpv4-sp-d16
	.eabi_attribute	27, 1	@ Tag_ABI_HardFP_use
	.eabi_attribute	36, 1	@ Tag_FP_HP_extension
	.eabi_attribute	34, 1	@ Tag_CPU_unaligned_access
	.eabi_attribute	17, 1	@ Tag_ABI_PCS_GOT_use
	.eabi_attribute	20, 2	@ Tag_ABI_FP_denormal
	.eabi_attribute	21, 0	@ Tag_ABI_FP_exceptions
	.eabi_attribute	23, 1	@ Tag_ABI_FP_number_model
	.eabi_attribute	24, 1	@ Tag_ABI_align_needed
	.eabi_attribute	25, 1	@ Tag_ABI_align_preserved
	.eabi_attribute	28, 1	@ Tag_ABI_VFP_args
	.eabi_attribute	38, 1	@ Tag_ABI_FP_16bit_format
	.eabi_attribute	18, 2	@ Tag_ABI_PCS_wchar_t
	.eabi_attribute	26, 1	@ Tag_ABI_enum_size
	.eabi_attribute	14, 0	@ Tag_ABI_PCS_R9_use
	.file	"stm32f4xx_hal_cortex.c"
	.file	1 "E:\\StudyNote\\study_STM32-HAL\\STM32F4_Quick_Start_Guide_HAL\\2.code\\20.RNG-Key\\Project" "../Libraries/CMSIS/Device/ST/STM32F4xx/Include/stm32f407xx.h"
	.file	2 "E:\\StudyNote\\study_STM32-HAL\\STM32F4_Quick_Start_Guide_HAL\\2.code\\20.RNG-Key\\Project" "../Libraries/CMSIS/Device/ST/STM32F4xx/Include\\stm32f4xx.h"
	.file	3 "E:\\dianzi\\MDKv5\\ARM\\ARMCLANG\\Bin\\..\\include" "stdint.h"
	.file	4 "E:\\StudyNote\\study_STM32-HAL\\STM32F4_Quick_Start_Guide_HAL\\2.code\\20.RNG-Key\\Project" "../Libraries/CMSIS/Include\\core_cm4.h"
	.section	.text.HAL_NVIC_SetPriorityGrouping,"ax",%progbits
	.hidden	HAL_NVIC_SetPriorityGrouping    @ -- Begin function HAL_NVIC_SetPriorityGrouping
	.globl	HAL_NVIC_SetPriorityGrouping
	.p2align	2
	.type	HAL_NVIC_SetPriorityGrouping,%function
	.code	16                              @ @HAL_NVIC_SetPriorityGrouping
	.thumb_func
HAL_NVIC_SetPriorityGrouping:
.Lfunc_begin0:
	.file	5 "E:\\StudyNote\\study_STM32-HAL\\STM32F4_Quick_Start_Guide_HAL\\2.code\\20.RNG-Key\\Project" "../Libraries/STM32F4xx_HAL_Driver/Src/stm32f4xx_hal_cortex.c"
	.loc	5 144 0                         @ ../Libraries/STM32F4xx_HAL_Driver/Src/stm32f4xx_hal_cortex.c:144:0
	.fnstart
	.cfi_sections .debug_frame
	.cfi_startproc
@ %bb.0:
	@DEBUG_VALUE: HAL_NVIC_SetPriorityGrouping:PriorityGroup <- $r0
	movw	r1, #60684
	movt	r1, #57344
.Ltmp0:
	@DEBUG_VALUE: __NVIC_SetPriorityGrouping:PriorityGroupTmp <- [DW_OP_constu 7, DW_OP_and, DW_OP_stack_value] $r0
	@DEBUG_VALUE: __NVIC_SetPriorityGrouping:PriorityGroup <- $r0
	.loc	4 1662 22 prologue_end          @ ../Libraries/CMSIS/Include\core_cm4.h:1662:22
	ldr	r2, [r1]
.Ltmp1:
	@DEBUG_VALUE: __NVIC_SetPriorityGrouping:reg_value <- $r2
	.loc	4 0 22 is_stmt 0                @ ../Libraries/CMSIS/Include\core_cm4.h:0:22
	movw	r3, #63743
	.loc	4 1663 13 is_stmt 1             @ ../Libraries/CMSIS/Include\core_cm4.h:1663:13
	ands	r2, r3
.Ltmp2:
	@DEBUG_VALUE: __NVIC_SetPriorityGrouping:reg_value <- $r2
	.loc	4 1665 62                       @ ../Libraries/CMSIS/Include\core_cm4.h:1665:62
	bfi	r2, r0, #8, #3
.Ltmp3:
	orr	r0, r2, #67108864
.Ltmp4:
	@DEBUG_VALUE: HAL_NVIC_SetPriorityGrouping:PriorityGroup <- [DW_OP_LLVM_entry_value 1] $r0
	orr	r0, r0, #33161216
.Ltmp5:
	@DEBUG_VALUE: __NVIC_SetPriorityGrouping:reg_value <- $r0
	.loc	4 1667 14                       @ ../Libraries/CMSIS/Include\core_cm4.h:1667:14
	str	r0, [r1]
.Ltmp6:
	.loc	5 150 1                         @ ../Libraries/STM32F4xx_HAL_Driver/Src/stm32f4xx_hal_cortex.c:150:1
	bx	lr
.Ltmp7:
.Lfunc_end0:
	.size	HAL_NVIC_SetPriorityGrouping, .Lfunc_end0-HAL_NVIC_SetPriorityGrouping
	.cfi_endproc
	.cantunwind
	.fnend
                                        @ -- End function
	.section	.text.HAL_NVIC_SetPriority,"ax",%progbits
	.hidden	HAL_NVIC_SetPriority            @ -- Begin function HAL_NVIC_SetPriority
	.globl	HAL_NVIC_SetPriority
	.p2align	2
	.type	HAL_NVIC_SetPriority,%function
	.code	16                              @ @HAL_NVIC_SetPriority
	.thumb_func
HAL_NVIC_SetPriority:
.Lfunc_begin1:
	.loc	5 166 0                         @ ../Libraries/STM32F4xx_HAL_Driver/Src/stm32f4xx_hal_cortex.c:166:0
	.fnstart
	.cfi_startproc
@ %bb.0:
	@DEBUG_VALUE: HAL_NVIC_SetPriority:IRQn <- $r0
	@DEBUG_VALUE: HAL_NVIC_SetPriority:PreemptPriority <- $r1
	@DEBUG_VALUE: HAL_NVIC_SetPriority:SubPriority <- $r2
	.save	{r4, lr}
	push	{r4, lr}
	.cfi_def_cfa_offset 8
	.cfi_offset lr, -4
	.cfi_offset r4, -8
	movw	r12, #60684
	movt	r12, #57344
.Ltmp8:
	.loc	4 1678 28 prologue_end          @ ../Libraries/CMSIS/Include\core_cm4.h:1678:28
	ldr.w	r3, [r12]
.Ltmp9:
	@DEBUG_VALUE: HAL_NVIC_SetPriority:prioritygroup <- 0
	.loc	4 1678 60 is_stmt 0             @ ../Libraries/CMSIS/Include\core_cm4.h:1678:60
	ubfx	lr, r3, #8, #3
.Ltmp10:
	@DEBUG_VALUE: NVIC_EncodePriority:SubPriority <- $r2
	@DEBUG_VALUE: NVIC_EncodePriority:PreemptPriority <- $r1
	@DEBUG_VALUE: NVIC_EncodePriority:PriorityGroupTmp <- $lr
	@DEBUG_VALUE: NVIC_EncodePriority:PriorityGroup <- $lr
	@DEBUG_VALUE: HAL_NVIC_SetPriority:prioritygroup <- $lr
	.loc	4 1869 31 is_stmt 1             @ ../Libraries/CMSIS/Include\core_cm4.h:1869:31
	eor	r4, lr, #7
	.loc	4 1869 25 is_stmt 0             @ ../Libraries/CMSIS/Include\core_cm4.h:1869:25
	cmp	r4, #4
	it	hs
	movhs	r4, #4
.Ltmp11:
	@DEBUG_VALUE: NVIC_EncodePriority:PreemptPriorityBits <- $r4
	.loc	4 1870 25 is_stmt 1             @ ../Libraries/CMSIS/Include\core_cm4.h:1870:25
	subs.w	r3, lr, #3
	mov.w	lr, #-1
.Ltmp12:
	.loc	4 1873 74                       @ ../Libraries/CMSIS/Include\core_cm4.h:1873:74
	lsl.w	r4, lr, r4
.Ltmp13:
	.loc	4 1870 25                       @ ../Libraries/CMSIS/Include\core_cm4.h:1870:25
	it	lo
	movlo	r3, #0
.Ltmp14:
	@DEBUG_VALUE: NVIC_EncodePriority:SubPriorityBits <- $r3
	.loc	4 1873 30                       @ ../Libraries/CMSIS/Include\core_cm4.h:1873:30
	bics	r1, r4
.Ltmp15:
	@DEBUG_VALUE: HAL_NVIC_SetPriority:PreemptPriority <- [DW_OP_LLVM_entry_value 1] $r1
	.loc	4 1873 82 is_stmt 0             @ ../Libraries/CMSIS/Include\core_cm4.h:1873:82
	lsls	r1, r3
	.loc	4 1874 74 is_stmt 1             @ ../Libraries/CMSIS/Include\core_cm4.h:1874:74
	lsl.w	r3, lr, r3
.Ltmp16:
	.loc	4 1874 30 is_stmt 0             @ ../Libraries/CMSIS/Include\core_cm4.h:1874:30
	bics	r2, r3
.Ltmp17:
	@DEBUG_VALUE: HAL_NVIC_SetPriority:SubPriority <- [DW_OP_LLVM_entry_value 1] $r2
	.loc	4 1873 102 is_stmt 1            @ ../Libraries/CMSIS/Include\core_cm4.h:1873:102
	orrs	r1, r2
.Ltmp18:
	@DEBUG_VALUE: __NVIC_SetPriority:IRQn <- $r0
	@DEBUG_VALUE: __NVIC_SetPriority:priority <- $r1
	.loc	4 1818 7                        @ ../Libraries/CMSIS/Include\core_cm4.h:1818:7
	and	r2, r0, #15
	add.w	r3, r0, #3758096384
.Ltmp19:
	.loc	4 0 0 is_stmt 0                 @ ../Libraries/CMSIS/Include\core_cm4.h:0:0
	lsls	r1, r1, #4
.Ltmp20:
	.loc	4 1818 7                        @ ../Libraries/CMSIS/Include\core_cm4.h:1818:7
	subs	r2, #4
	add.w	r3, r3, #58368
	add	r2, r12
	cmp	r0, #0
	it	mi
	addmi.w	r3, r2, #12
.Ltmp21:
	.loc	4 0 0                           @ ../Libraries/CMSIS/Include\core_cm4.h:0:0
	strb	r1, [r3]
.Ltmp22:
	.loc	5 176 1 is_stmt 1               @ ../Libraries/STM32F4xx_HAL_Driver/Src/stm32f4xx_hal_cortex.c:176:1
	pop	{r4, pc}
.Ltmp23:
.Lfunc_end1:
	.size	HAL_NVIC_SetPriority, .Lfunc_end1-HAL_NVIC_SetPriority
	.cfi_endproc
	.cantunwind
	.fnend
                                        @ -- End function
	.section	.text.HAL_NVIC_EnableIRQ,"ax",%progbits
	.hidden	HAL_NVIC_EnableIRQ              @ -- Begin function HAL_NVIC_EnableIRQ
	.globl	HAL_NVIC_EnableIRQ
	.p2align	2
	.type	HAL_NVIC_EnableIRQ,%function
	.code	16                              @ @HAL_NVIC_EnableIRQ
	.thumb_func
HAL_NVIC_EnableIRQ:
.Lfunc_begin2:
	.loc	5 188 0                         @ ../Libraries/STM32F4xx_HAL_Driver/Src/stm32f4xx_hal_cortex.c:188:0
	.fnstart
	.cfi_startproc
@ %bb.0:
	@DEBUG_VALUE: HAL_NVIC_EnableIRQ:IRQn <- $r0
	@DEBUG_VALUE: __NVIC_EnableIRQ:IRQn <- $r0
	.loc	4 1690 7 prologue_end           @ ../Libraries/CMSIS/Include\core_cm4.h:1690:7
	cmp	r0, #0
.Ltmp24:
	.loc	5 194 1                         @ ../Libraries/STM32F4xx_HAL_Driver/Src/stm32f4xx_hal_cortex.c:194:1
	it	mi
	bxmi	lr
.Ltmp25:
.LBB2_1:
	@DEBUG_VALUE: __NVIC_EnableIRQ:IRQn <- $r0
	@DEBUG_VALUE: HAL_NVIC_EnableIRQ:IRQn <- $r0
	.loc	4 1690 7                        @ ../Libraries/CMSIS/Include\core_cm4.h:1690:7
	uxtb	r1, r0
.Ltmp26:
	.loc	4 1692 81                       @ ../Libraries/CMSIS/Include\core_cm4.h:1692:81
	and	r0, r0, #31
.Ltmp27:
	@DEBUG_VALUE: HAL_NVIC_EnableIRQ:IRQn <- [DW_OP_LLVM_entry_value 1] $r0
	.loc	4 0 81 is_stmt 0                @ ../Libraries/CMSIS/Include\core_cm4.h:0:81
	movs	r2, #1
	.loc	4 1692 60                       @ ../Libraries/CMSIS/Include\core_cm4.h:1692:60
	lsl.w	r0, r2, r0
	movw	r2, #57600
	movt	r2, #57344
	.loc	4 1692 5                        @ ../Libraries/CMSIS/Include\core_cm4.h:1692:5
	orr.w	r1, r2, r1, lsr #3
	bic	r1, r1, #3
	.loc	4 1692 43                       @ ../Libraries/CMSIS/Include\core_cm4.h:1692:43
	str	r0, [r1]
.Ltmp28:
	.loc	5 194 1 is_stmt 1               @ ../Libraries/STM32F4xx_HAL_Driver/Src/stm32f4xx_hal_cortex.c:194:1
	bx	lr
.Ltmp29:
.Lfunc_end2:
	.size	HAL_NVIC_EnableIRQ, .Lfunc_end2-HAL_NVIC_EnableIRQ
	.cfi_endproc
	.cantunwind
	.fnend
                                        @ -- End function
	.section	.text.HAL_NVIC_DisableIRQ,"ax",%progbits
	.hidden	HAL_NVIC_DisableIRQ             @ -- Begin function HAL_NVIC_DisableIRQ
	.globl	HAL_NVIC_DisableIRQ
	.p2align	2
	.type	HAL_NVIC_DisableIRQ,%function
	.code	16                              @ @HAL_NVIC_DisableIRQ
	.thumb_func
HAL_NVIC_DisableIRQ:
.Lfunc_begin3:
	.loc	5 204 0                         @ ../Libraries/STM32F4xx_HAL_Driver/Src/stm32f4xx_hal_cortex.c:204:0
	.fnstart
	.cfi_startproc
@ %bb.0:
	@DEBUG_VALUE: HAL_NVIC_DisableIRQ:IRQn <- $r0
	@DEBUG_VALUE: __NVIC_DisableIRQ:IRQn <- $r0
	.loc	4 1726 7 prologue_end           @ ../Libraries/CMSIS/Include\core_cm4.h:1726:7
	cmp	r0, #0
.Ltmp30:
	.loc	5 210 1                         @ ../Libraries/STM32F4xx_HAL_Driver/Src/stm32f4xx_hal_cortex.c:210:1
	it	mi
	bxmi	lr
.Ltmp31:
.LBB3_1:
	@DEBUG_VALUE: __NVIC_DisableIRQ:IRQn <- $r0
	@DEBUG_VALUE: HAL_NVIC_DisableIRQ:IRQn <- $r0
	.loc	4 1726 7                        @ ../Libraries/CMSIS/Include\core_cm4.h:1726:7
	uxtb	r1, r0
.Ltmp32:
	.loc	4 1728 81                       @ ../Libraries/CMSIS/Include\core_cm4.h:1728:81
	and	r0, r0, #31
.Ltmp33:
	@DEBUG_VALUE: HAL_NVIC_DisableIRQ:IRQn <- [DW_OP_LLVM_entry_value 1] $r0
	.loc	4 0 81 is_stmt 0                @ ../Libraries/CMSIS/Include\core_cm4.h:0:81
	movs	r2, #1
	.loc	4 1728 60                       @ ../Libraries/CMSIS/Include\core_cm4.h:1728:60
	lsl.w	r0, r2, r0
	movw	r2, #57728
	movt	r2, #57344
	.loc	4 1728 5                        @ ../Libraries/CMSIS/Include\core_cm4.h:1728:5
	orr.w	r1, r2, r1, lsr #3
	bic	r1, r1, #3
	.loc	4 1728 43                       @ ../Libraries/CMSIS/Include\core_cm4.h:1728:43
	str	r0, [r1]
	.loc	4 1729 5 is_stmt 1              @ ../Libraries/CMSIS/Include\core_cm4.h:1729:5
	dsb	sy
	.loc	4 1730 5                        @ ../Libraries/CMSIS/Include\core_cm4.h:1730:5
	isb	sy
.Ltmp34:
	.loc	5 210 1                         @ ../Libraries/STM32F4xx_HAL_Driver/Src/stm32f4xx_hal_cortex.c:210:1
	bx	lr
.Ltmp35:
.Lfunc_end3:
	.size	HAL_NVIC_DisableIRQ, .Lfunc_end3-HAL_NVIC_DisableIRQ
	.cfi_endproc
	.cantunwind
	.fnend
                                        @ -- End function
	.section	.text.HAL_NVIC_SystemReset,"ax",%progbits
	.hidden	HAL_NVIC_SystemReset            @ -- Begin function HAL_NVIC_SystemReset
	.globl	HAL_NVIC_SystemReset
	.p2align	2
	.type	HAL_NVIC_SystemReset,%function
	.code	16                              @ @HAL_NVIC_SystemReset
	.thumb_func
HAL_NVIC_SystemReset:
.Lfunc_begin4:
	.loc	5 217 0                         @ ../Libraries/STM32F4xx_HAL_Driver/Src/stm32f4xx_hal_cortex.c:217:0
	.fnstart
	.cfi_startproc
@ %bb.0:
	.loc	5 219 3 prologue_end            @ ../Libraries/STM32F4xx_HAL_Driver/Src/stm32f4xx_hal_cortex.c:219:3
	bl	__NVIC_SystemReset
.Ltmp36:
.Lfunc_end4:
	.size	HAL_NVIC_SystemReset, .Lfunc_end4-HAL_NVIC_SystemReset
	.cfi_endproc
	.cantunwind
	.fnend
                                        @ -- End function
	.section	.text.__NVIC_SystemReset,"ax",%progbits
	.p2align	2                               @ -- Begin function __NVIC_SystemReset
	.type	__NVIC_SystemReset,%function
	.code	16                              @ @__NVIC_SystemReset
	.thumb_func
__NVIC_SystemReset:
.Lfunc_begin5:
	.loc	4 1940 0                        @ ../Libraries/CMSIS/Include\core_cm4.h:1940:0
	.fnstart
	.cfi_startproc
@ %bb.0:
	movw	r0, #60684
.Ltmp37:
	.loc	4 1941 3 prologue_end           @ ../Libraries/CMSIS/Include\core_cm4.h:1941:3
	dsb	sy
	movt	r0, #57344
	.loc	4 1944 34                       @ ../Libraries/CMSIS/Include\core_cm4.h:1944:34
	ldr	r1, [r0]
	movs	r2, #4
	.loc	4 1944 40 is_stmt 0             @ ../Libraries/CMSIS/Include\core_cm4.h:1944:40
	and	r1, r1, #1792
	movt	r2, #1530
	.loc	4 1944 66                       @ ../Libraries/CMSIS/Include\core_cm4.h:1944:66
	orrs	r1, r2
	.loc	4 1943 15 is_stmt 1             @ ../Libraries/CMSIS/Include\core_cm4.h:1943:15
	str	r1, [r0]
	.loc	4 1946 3                        @ ../Libraries/CMSIS/Include\core_cm4.h:1946:3
	dsb	sy
	.p2align	2
.LBB5_1:                                @ =>This Inner Loop Header: Depth=1
.Ltmp38:
	.loc	4 1950 5                        @ ../Libraries/CMSIS/Include\core_cm4.h:1950:5
	nop
	nop
	nop
	nop
.Ltmp39:
	.loc	4 1948 3                        @ ../Libraries/CMSIS/Include\core_cm4.h:1948:3
	b	.LBB5_1
.Ltmp40:
.Lfunc_end5:
	.size	__NVIC_SystemReset, .Lfunc_end5-__NVIC_SystemReset
	.cfi_endproc
	.cantunwind
	.fnend
                                        @ -- End function
	.section	.text.HAL_SYSTICK_Config,"ax",%progbits
	.hidden	HAL_SYSTICK_Config              @ -- Begin function HAL_SYSTICK_Config
	.globl	HAL_SYSTICK_Config
	.p2align	2
	.type	HAL_SYSTICK_Config,%function
	.code	16                              @ @HAL_SYSTICK_Config
	.thumb_func
HAL_SYSTICK_Config:
.Lfunc_begin6:
	.loc	5 230 0                         @ ../Libraries/STM32F4xx_HAL_Driver/Src/stm32f4xx_hal_cortex.c:230:0
	.fnstart
	.cfi_startproc
@ %bb.0:
	@DEBUG_VALUE: HAL_SYSTICK_Config:TicksNumb <- $r0
	@DEBUG_VALUE: SysTick_Config:ticks <- $r0
	.loc	4 2024 14 prologue_end          @ ../Libraries/CMSIS/Include\core_cm4.h:2024:14
	subs	r1, r0, #1
	movs	r0, #0
.Ltmp41:
	@DEBUG_VALUE: HAL_SYSTICK_Config:TicksNumb <- [DW_OP_LLVM_entry_value 1] $r0
	.loc	4 2024 7 is_stmt 0              @ ../Libraries/CMSIS/Include\core_cm4.h:2024:7
	cmp.w	r0, r1, lsr #24
	itt	ne
	movne	r0, #1
.Ltmp42:
	.loc	5 231 4 is_stmt 1               @ ../Libraries/STM32F4xx_HAL_Driver/Src/stm32f4xx_hal_cortex.c:231:4
	bxne	lr
.Ltmp43:
.LBB6_1:
	@DEBUG_VALUE: HAL_SYSTICK_Config:TicksNumb <- [DW_OP_LLVM_entry_value 1] $r0
	.loc	5 0 4 is_stmt 0                 @ ../Libraries/STM32F4xx_HAL_Driver/Src/stm32f4xx_hal_cortex.c:0:4
	movw	r2, #57360
	movt	r2, #57344
.Ltmp44:
	.loc	4 2029 18 is_stmt 1             @ ../Libraries/CMSIS/Include\core_cm4.h:2029:18
	str	r1, [r2, #4]
	movw	r1, #60707
	movt	r1, #57344
	movs	r3, #240
.Ltmp45:
	@DEBUG_VALUE: __NVIC_SetPriority:priority <- 15
	@DEBUG_VALUE: __NVIC_SetPriority:IRQn <- -1
	.loc	4 0 0 is_stmt 0                 @ ../Libraries/CMSIS/Include\core_cm4.h:0:0
	strb	r3, [r1]
	movs	r1, #7
.Ltmp46:
	.loc	4 2031 18 is_stmt 1             @ ../Libraries/CMSIS/Include\core_cm4.h:2031:18
	str	r0, [r2, #8]
	.loc	4 2032 18                       @ ../Libraries/CMSIS/Include\core_cm4.h:2032:18
	str	r1, [r2]
.Ltmp47:
	.loc	5 231 4                         @ ../Libraries/STM32F4xx_HAL_Driver/Src/stm32f4xx_hal_cortex.c:231:4
	bx	lr
.Ltmp48:
.Lfunc_end6:
	.size	HAL_SYSTICK_Config, .Lfunc_end6-HAL_SYSTICK_Config
	.cfi_endproc
	.cantunwind
	.fnend
                                        @ -- End function
	.section	.text.HAL_MPU_Disable,"ax",%progbits
	.hidden	HAL_MPU_Disable                 @ -- Begin function HAL_MPU_Disable
	.globl	HAL_MPU_Disable
	.p2align	2
	.type	HAL_MPU_Disable,%function
	.code	16                              @ @HAL_MPU_Disable
	.thumb_func
HAL_MPU_Disable:
.Lfunc_begin7:
	.loc	5 259 0                         @ ../Libraries/STM32F4xx_HAL_Driver/Src/stm32f4xx_hal_cortex.c:259:0
	.fnstart
	.cfi_startproc
@ %bb.0:
	movw	r0, #60708
.Ltmp49:
	.loc	5 261 3 prologue_end            @ ../Libraries/STM32F4xx_HAL_Driver/Src/stm32f4xx_hal_cortex.c:261:3
	dmb	sy
	movt	r0, #57344
	.loc	5 264 14                        @ ../Libraries/STM32F4xx_HAL_Driver/Src/stm32f4xx_hal_cortex.c:264:14
	ldr	r1, [r0]
	bic	r1, r1, #65536
	str	r1, [r0]
	movs	r1, #0
	.loc	5 267 13                        @ ../Libraries/STM32F4xx_HAL_Driver/Src/stm32f4xx_hal_cortex.c:267:13
	str	r1, [r0, #112]
	.loc	5 268 1                         @ ../Libraries/STM32F4xx_HAL_Driver/Src/stm32f4xx_hal_cortex.c:268:1
	bx	lr
.Ltmp50:
.Lfunc_end7:
	.size	HAL_MPU_Disable, .Lfunc_end7-HAL_MPU_Disable
	.cfi_endproc
	.cantunwind
	.fnend
                                        @ -- End function
	.section	.text.HAL_MPU_Enable,"ax",%progbits
	.hidden	HAL_MPU_Enable                  @ -- Begin function HAL_MPU_Enable
	.globl	HAL_MPU_Enable
	.p2align	2
	.type	HAL_MPU_Enable,%function
	.code	16                              @ @HAL_MPU_Enable
	.thumb_func
HAL_MPU_Enable:
.Lfunc_begin8:
	.loc	5 282 0                         @ ../Libraries/STM32F4xx_HAL_Driver/Src/stm32f4xx_hal_cortex.c:282:0
	.fnstart
	.cfi_startproc
@ %bb.0:
	@DEBUG_VALUE: HAL_MPU_Enable:MPU_Control <- $r0
	movw	r1, #60708
.Ltmp51:
	.loc	5 284 27 prologue_end           @ ../Libraries/STM32F4xx_HAL_Driver/Src/stm32f4xx_hal_cortex.c:284:27
	orr	r0, r0, #1
.Ltmp52:
	@DEBUG_VALUE: HAL_MPU_Enable:MPU_Control <- [DW_OP_LLVM_entry_value 1] $r0
	.loc	5 0 27 is_stmt 0                @ ../Libraries/STM32F4xx_HAL_Driver/Src/stm32f4xx_hal_cortex.c:0:27
	movt	r1, #57344
	.loc	5 284 13                        @ ../Libraries/STM32F4xx_HAL_Driver/Src/stm32f4xx_hal_cortex.c:284:13
	str	r0, [r1, #112]
	.loc	5 287 14 is_stmt 1              @ ../Libraries/STM32F4xx_HAL_Driver/Src/stm32f4xx_hal_cortex.c:287:14
	ldr	r0, [r1]
	orr	r0, r0, #65536
	str	r0, [r1]
	.loc	5 290 3                         @ ../Libraries/STM32F4xx_HAL_Driver/Src/stm32f4xx_hal_cortex.c:290:3
	dsb	sy
	.loc	5 291 3                         @ ../Libraries/STM32F4xx_HAL_Driver/Src/stm32f4xx_hal_cortex.c:291:3
	isb	sy
	.loc	5 292 1                         @ ../Libraries/STM32F4xx_HAL_Driver/Src/stm32f4xx_hal_cortex.c:292:1
	bx	lr
.Ltmp53:
.Lfunc_end8:
	.size	HAL_MPU_Enable, .Lfunc_end8-HAL_MPU_Enable
	.cfi_endproc
	.cantunwind
	.fnend
                                        @ -- End function
	.section	.text.HAL_MPU_ConfigRegion,"ax",%progbits
	.hidden	HAL_MPU_ConfigRegion            @ -- Begin function HAL_MPU_ConfigRegion
	.globl	HAL_MPU_ConfigRegion
	.p2align	2
	.type	HAL_MPU_ConfigRegion,%function
	.code	16                              @ @HAL_MPU_ConfigRegion
	.thumb_func
HAL_MPU_ConfigRegion:
.Lfunc_begin9:
	.loc	5 301 0                         @ ../Libraries/STM32F4xx_HAL_Driver/Src/stm32f4xx_hal_cortex.c:301:0
	.fnstart
	.cfi_startproc
@ %bb.0:
	@DEBUG_VALUE: HAL_MPU_ConfigRegion:MPU_Init <- $r0
	.save	{r4, r5, r6, r7, lr}
	push	{r4, r5, r6, r7, lr}
	.cfi_def_cfa_offset 20
	.cfi_offset lr, -4
	.cfi_offset r7, -8
	.cfi_offset r6, -12
	.cfi_offset r5, -16
	.cfi_offset r4, -20
.Ltmp54:
	.loc	5 309 18 prologue_end           @ ../Libraries/STM32F4xx_HAL_Driver/Src/stm32f4xx_hal_cortex.c:309:18
	ldrb	r2, [r0]
	movw	r12, #60828
.Ltmp55:
	.loc	5 307 24                        @ ../Libraries/STM32F4xx_HAL_Driver/Src/stm32f4xx_hal_cortex.c:307:24
	ldrb	r3, [r0, #1]
	movt	r12, #57344
	.loc	5 307 12 is_stmt 0              @ ../Libraries/STM32F4xx_HAL_Driver/Src/stm32f4xx_hal_cortex.c:307:12
	str	r3, [r12, #-4]
	.loc	5 309 7 is_stmt 1               @ ../Libraries/STM32F4xx_HAL_Driver/Src/stm32f4xx_hal_cortex.c:309:7
	cbz	r2, .LBB9_2
.Ltmp56:
@ %bb.1:
	@DEBUG_VALUE: HAL_MPU_ConfigRegion:MPU_Init <- $r0
	.loc	5 321 27                        @ ../Libraries/STM32F4xx_HAL_Driver/Src/stm32f4xx_hal_cortex.c:321:27
	ldr	r3, [r0, #4]
	.loc	5 321 15 is_stmt 0              @ ../Libraries/STM32F4xx_HAL_Driver/Src/stm32f4xx_hal_cortex.c:321:15
	str.w	r3, [r12]
	.loc	5 322 18 is_stmt 1              @ ../Libraries/STM32F4xx_HAL_Driver/Src/stm32f4xx_hal_cortex.c:322:18
	ldrb	r3, [r0, #12]
	.loc	5 323 18                        @ ../Libraries/STM32F4xx_HAL_Driver/Src/stm32f4xx_hal_cortex.c:323:18
	ldrb	r1, [r0, #11]
	.loc	5 324 38                        @ ../Libraries/STM32F4xx_HAL_Driver/Src/stm32f4xx_hal_cortex.c:324:38
	ldrb.w	lr, [r0, #10]
	.loc	5 322 84                        @ ../Libraries/STM32F4xx_HAL_Driver/Src/stm32f4xx_hal_cortex.c:322:84
	orr.w	r2, r2, r3, lsl #28
	.loc	5 325 38                        @ ../Libraries/STM32F4xx_HAL_Driver/Src/stm32f4xx_hal_cortex.c:325:38
	ldrb	r4, [r0, #13]
	.loc	5 323 84                        @ ../Libraries/STM32F4xx_HAL_Driver/Src/stm32f4xx_hal_cortex.c:323:84
	orr.w	r1, r2, r1, lsl #24
	.loc	5 326 38                        @ ../Libraries/STM32F4xx_HAL_Driver/Src/stm32f4xx_hal_cortex.c:326:38
	ldrb	r5, [r0, #14]
	.loc	5 324 84                        @ ../Libraries/STM32F4xx_HAL_Driver/Src/stm32f4xx_hal_cortex.c:324:84
	orr.w	r1, r1, lr, lsl #19
	.loc	5 327 38                        @ ../Libraries/STM32F4xx_HAL_Driver/Src/stm32f4xx_hal_cortex.c:327:38
	ldrb	r6, [r0, #15]
	.loc	5 325 84                        @ ../Libraries/STM32F4xx_HAL_Driver/Src/stm32f4xx_hal_cortex.c:325:84
	orr.w	r1, r1, r4, lsl #18
	.loc	5 328 38                        @ ../Libraries/STM32F4xx_HAL_Driver/Src/stm32f4xx_hal_cortex.c:328:38
	ldrb	r7, [r0, #9]
	.loc	5 326 84                        @ ../Libraries/STM32F4xx_HAL_Driver/Src/stm32f4xx_hal_cortex.c:326:84
	orr.w	r1, r1, r5, lsl #17
	.loc	5 329 38                        @ ../Libraries/STM32F4xx_HAL_Driver/Src/stm32f4xx_hal_cortex.c:329:38
	ldrb	r0, [r0, #8]
.Ltmp57:
	@DEBUG_VALUE: HAL_MPU_ConfigRegion:MPU_Init <- [DW_OP_LLVM_entry_value 1] $r0
	.loc	5 327 84                        @ ../Libraries/STM32F4xx_HAL_Driver/Src/stm32f4xx_hal_cortex.c:327:84
	orr.w	r1, r1, r6, lsl #16
	.loc	5 328 84                        @ ../Libraries/STM32F4xx_HAL_Driver/Src/stm32f4xx_hal_cortex.c:328:84
	orr.w	r1, r1, r7, lsl #8
	.loc	5 329 84                        @ ../Libraries/STM32F4xx_HAL_Driver/Src/stm32f4xx_hal_cortex.c:329:84
	orr.w	r0, r1, r0, lsl #1
.Ltmp58:
	.loc	5 0 0 is_stmt 0                 @ ../Libraries/STM32F4xx_HAL_Driver/Src/stm32f4xx_hal_cortex.c:0:0
	str.w	r0, [r12, #4]
.Ltmp59:
	.loc	5 337 1 is_stmt 1               @ ../Libraries/STM32F4xx_HAL_Driver/Src/stm32f4xx_hal_cortex.c:337:1
	pop	{r4, r5, r6, r7, pc}
.Ltmp60:
.LBB9_2:
	@DEBUG_VALUE: HAL_MPU_ConfigRegion:MPU_Init <- $r0
	.loc	5 0 1 is_stmt 0                 @ ../Libraries/STM32F4xx_HAL_Driver/Src/stm32f4xx_hal_cortex.c:0:1
	movs	r0, #0
.Ltmp61:
	@DEBUG_VALUE: HAL_MPU_ConfigRegion:MPU_Init <- [DW_OP_LLVM_entry_value 1] $r0
	.loc	5 334 15 is_stmt 1              @ ../Libraries/STM32F4xx_HAL_Driver/Src/stm32f4xx_hal_cortex.c:334:15
	str.w	r0, [r12]
.Ltmp62:
	.loc	5 0 0 is_stmt 0                 @ ../Libraries/STM32F4xx_HAL_Driver/Src/stm32f4xx_hal_cortex.c:0:0
	str.w	r0, [r12, #4]
.Ltmp63:
	.loc	5 337 1 is_stmt 1               @ ../Libraries/STM32F4xx_HAL_Driver/Src/stm32f4xx_hal_cortex.c:337:1
	pop	{r4, r5, r6, r7, pc}
.Ltmp64:
.Lfunc_end9:
	.size	HAL_MPU_ConfigRegion, .Lfunc_end9-HAL_MPU_ConfigRegion
	.cfi_endproc
	.cantunwind
	.fnend
                                        @ -- End function
	.section	.text.HAL_NVIC_GetPriorityGrouping,"ax",%progbits
	.hidden	HAL_NVIC_GetPriorityGrouping    @ -- Begin function HAL_NVIC_GetPriorityGrouping
	.globl	HAL_NVIC_GetPriorityGrouping
	.p2align	2
	.type	HAL_NVIC_GetPriorityGrouping,%function
	.code	16                              @ @HAL_NVIC_GetPriorityGrouping
	.thumb_func
HAL_NVIC_GetPriorityGrouping:
.Lfunc_begin10:
	.loc	5 345 0                         @ ../Libraries/STM32F4xx_HAL_Driver/Src/stm32f4xx_hal_cortex.c:345:0
	.fnstart
	.cfi_startproc
@ %bb.0:
	movw	r0, #60684
	movt	r0, #57344
.Ltmp65:
	.loc	4 1678 28 prologue_end          @ ../Libraries/CMSIS/Include\core_cm4.h:1678:28
	ldr	r0, [r0]
	.loc	4 1678 60 is_stmt 0             @ ../Libraries/CMSIS/Include\core_cm4.h:1678:60
	ubfx	r0, r0, #8, #3
.Ltmp66:
	.loc	5 347 3 is_stmt 1               @ ../Libraries/STM32F4xx_HAL_Driver/Src/stm32f4xx_hal_cortex.c:347:3
	bx	lr
.Ltmp67:
.Lfunc_end10:
	.size	HAL_NVIC_GetPriorityGrouping, .Lfunc_end10-HAL_NVIC_GetPriorityGrouping
	.cfi_endproc
	.cantunwind
	.fnend
                                        @ -- End function
	.section	.text.HAL_NVIC_GetPriority,"ax",%progbits
	.hidden	HAL_NVIC_GetPriority            @ -- Begin function HAL_NVIC_GetPriority
	.globl	HAL_NVIC_GetPriority
	.p2align	2
	.type	HAL_NVIC_GetPriority,%function
	.code	16                              @ @HAL_NVIC_GetPriority
	.thumb_func
HAL_NVIC_GetPriority:
.Lfunc_begin11:
	.loc	5 372 0                         @ ../Libraries/STM32F4xx_HAL_Driver/Src/stm32f4xx_hal_cortex.c:372:0
	.fnstart
	.cfi_startproc
@ %bb.0:
	@DEBUG_VALUE: HAL_NVIC_GetPriority:IRQn <- $r0
	@DEBUG_VALUE: HAL_NVIC_GetPriority:PriorityGroup <- $r1
	@DEBUG_VALUE: HAL_NVIC_GetPriority:pPreemptPriority <- $r2
	@DEBUG_VALUE: HAL_NVIC_GetPriority:pSubPriority <- $r3
	@DEBUG_VALUE: __NVIC_GetPriority:IRQn <- $r0
	.save	{r4, lr}
	push	{r4, lr}
	.cfi_def_cfa_offset 8
	.cfi_offset lr, -4
	.cfi_offset r4, -8
.Ltmp68:
	.loc	4 1841 7 prologue_end           @ ../Libraries/CMSIS/Include\core_cm4.h:1841:7
	add.w	r12, r0, #3758096384
	movw	r4, #60692
	add.w	r12, r12, #58368
	movt	r4, #57344
.Ltmp69:
	.loc	4 1892 46                       @ ../Libraries/CMSIS/Include\core_cm4.h:1892:46
	and	r1, r1, #7
.Ltmp70:
	@DEBUG_VALUE: HAL_NVIC_GetPriority:PriorityGroup <- [DW_OP_LLVM_entry_value 1] $r1
	@DEBUG_VALUE: NVIC_DecodePriority:PriorityGroupTmp <- $r1
	.loc	4 1841 7                        @ ../Libraries/CMSIS/Include\core_cm4.h:1841:7
	and	lr, r0, #15
	cmp	r0, #0
	it	mi
	addmi.w	r12, lr, r4
.Ltmp71:
	.loc	4 1896 31                       @ ../Libraries/CMSIS/Include\core_cm4.h:1896:31
	eor	r4, r1, #7
.Ltmp72:
	.loc	4 0 0 is_stmt 0                 @ ../Libraries/CMSIS/Include\core_cm4.h:0:0
	ldrb.w	r0, [r12]
.Ltmp73:
	@DEBUG_VALUE: HAL_NVIC_GetPriority:IRQn <- [DW_OP_LLVM_entry_value 1] $r0
	.loc	4 1896 25                       @ ../Libraries/CMSIS/Include\core_cm4.h:1896:25
	cmp	r4, #4
	it	hs
	movhs	r4, #4
.Ltmp74:
	@DEBUG_VALUE: NVIC_DecodePriority:PreemptPriorityBits <- $r4
	.loc	4 1897 25 is_stmt 1             @ ../Libraries/CMSIS/Include\core_cm4.h:1897:25
	subs	r1, #3
.Ltmp75:
	.loc	4 0 0 is_stmt 0                 @ ../Libraries/CMSIS/Include\core_cm4.h:0:0
	lsr.w	r12, r0, #4
.Ltmp76:
	@DEBUG_VALUE: NVIC_DecodePriority:Priority <- $r12
	@DEBUG_VALUE: NVIC_DecodePriority:pSubPriority <- $r3
	@DEBUG_VALUE: NVIC_DecodePriority:pPreemptPriority <- $r2
	@DEBUG_VALUE: NVIC_DecodePriority:PriorityGroup <- $r1
	.loc	4 1897 25                       @ ../Libraries/CMSIS/Include\core_cm4.h:1897:25
	it	lo
	movlo	r1, #0
.Ltmp77:
	@DEBUG_VALUE: NVIC_DecodePriority:SubPriorityBits <- $r1
	.loc	4 0 25                          @ ../Libraries/CMSIS/Include\core_cm4.h:0:25
	mov.w	lr, #-1
	.loc	4 1899 33 is_stmt 1             @ ../Libraries/CMSIS/Include\core_cm4.h:1899:33
	lsr.w	r12, r12, r1
.Ltmp78:
	.loc	4 1900 97                       @ ../Libraries/CMSIS/Include\core_cm4.h:1900:97
	lsl.w	r1, lr, r1
.Ltmp79:
	.loc	4 1899 97                       @ ../Libraries/CMSIS/Include\core_cm4.h:1899:97
	lsl.w	r4, lr, r4
.Ltmp80:
	.loc	4 1900 97                       @ ../Libraries/CMSIS/Include\core_cm4.h:1900:97
	mvns	r1, r1
	.loc	4 1899 53                       @ ../Libraries/CMSIS/Include\core_cm4.h:1899:53
	bic.w	r4, r12, r4
	.loc	4 1900 53                       @ ../Libraries/CMSIS/Include\core_cm4.h:1900:53
	and.w	r0, r1, r0, lsr #4
	.loc	4 1899 21                       @ ../Libraries/CMSIS/Include\core_cm4.h:1899:21
	str	r4, [r2]
	.loc	4 1900 21                       @ ../Libraries/CMSIS/Include\core_cm4.h:1900:21
	str	r0, [r3]
.Ltmp81:
	.loc	5 377 1                         @ ../Libraries/STM32F4xx_HAL_Driver/Src/stm32f4xx_hal_cortex.c:377:1
	pop	{r4, pc}
.Ltmp82:
.Lfunc_end11:
	.size	HAL_NVIC_GetPriority, .Lfunc_end11-HAL_NVIC_GetPriority
	.cfi_endproc
	.cantunwind
	.fnend
                                        @ -- End function
	.section	.text.HAL_NVIC_SetPendingIRQ,"ax",%progbits
	.hidden	HAL_NVIC_SetPendingIRQ          @ -- Begin function HAL_NVIC_SetPendingIRQ
	.globl	HAL_NVIC_SetPendingIRQ
	.p2align	2
	.type	HAL_NVIC_SetPendingIRQ,%function
	.code	16                              @ @HAL_NVIC_SetPendingIRQ
	.thumb_func
HAL_NVIC_SetPendingIRQ:
.Lfunc_begin12:
	.loc	5 387 0                         @ ../Libraries/STM32F4xx_HAL_Driver/Src/stm32f4xx_hal_cortex.c:387:0
	.fnstart
	.cfi_startproc
@ %bb.0:
	@DEBUG_VALUE: HAL_NVIC_SetPendingIRQ:IRQn <- $r0
	@DEBUG_VALUE: __NVIC_SetPendingIRQ:IRQn <- $r0
	.loc	4 1764 7 prologue_end           @ ../Libraries/CMSIS/Include\core_cm4.h:1764:7
	cmp	r0, #0
.Ltmp83:
	.loc	5 393 1                         @ ../Libraries/STM32F4xx_HAL_Driver/Src/stm32f4xx_hal_cortex.c:393:1
	it	mi
	bxmi	lr
.Ltmp84:
.LBB12_1:
	@DEBUG_VALUE: __NVIC_SetPendingIRQ:IRQn <- $r0
	@DEBUG_VALUE: HAL_NVIC_SetPendingIRQ:IRQn <- $r0
	.loc	4 1764 7                        @ ../Libraries/CMSIS/Include\core_cm4.h:1764:7
	uxtb	r1, r0
.Ltmp85:
	.loc	4 1766 81                       @ ../Libraries/CMSIS/Include\core_cm4.h:1766:81
	and	r0, r0, #31
.Ltmp86:
	@DEBUG_VALUE: HAL_NVIC_SetPendingIRQ:IRQn <- [DW_OP_LLVM_entry_value 1] $r0
	.loc	4 0 81 is_stmt 0                @ ../Libraries/CMSIS/Include\core_cm4.h:0:81
	movs	r2, #1
	.loc	4 1766 60                       @ ../Libraries/CMSIS/Include\core_cm4.h:1766:60
	lsl.w	r0, r2, r0
	movw	r2, #57856
	movt	r2, #57344
	.loc	4 1766 5                        @ ../Libraries/CMSIS/Include\core_cm4.h:1766:5
	orr.w	r1, r2, r1, lsr #3
	bic	r1, r1, #3
	.loc	4 1766 43                       @ ../Libraries/CMSIS/Include\core_cm4.h:1766:43
	str	r0, [r1]
.Ltmp87:
	.loc	5 393 1 is_stmt 1               @ ../Libraries/STM32F4xx_HAL_Driver/Src/stm32f4xx_hal_cortex.c:393:1
	bx	lr
.Ltmp88:
.Lfunc_end12:
	.size	HAL_NVIC_SetPendingIRQ, .Lfunc_end12-HAL_NVIC_SetPendingIRQ
	.cfi_endproc
	.cantunwind
	.fnend
                                        @ -- End function
	.section	.text.HAL_NVIC_GetPendingIRQ,"ax",%progbits
	.hidden	HAL_NVIC_GetPendingIRQ          @ -- Begin function HAL_NVIC_GetPendingIRQ
	.globl	HAL_NVIC_GetPendingIRQ
	.p2align	2
	.type	HAL_NVIC_GetPendingIRQ,%function
	.code	16                              @ @HAL_NVIC_GetPendingIRQ
	.thumb_func
HAL_NVIC_GetPendingIRQ:
.Lfunc_begin13:
	.loc	5 405 0                         @ ../Libraries/STM32F4xx_HAL_Driver/Src/stm32f4xx_hal_cortex.c:405:0
	.fnstart
	.cfi_startproc
@ %bb.0:
	@DEBUG_VALUE: HAL_NVIC_GetPendingIRQ:IRQn <- $r0
	@DEBUG_VALUE: __NVIC_GetPendingIRQ:IRQn <- $r0
	.loc	4 1745 7 prologue_end           @ ../Libraries/CMSIS/Include\core_cm4.h:1745:7
	cmp	r0, #0
	itt	mi
	movmi	r0, #0
.Ltmp89:
	@DEBUG_VALUE: HAL_NVIC_GetPendingIRQ:IRQn <- [DW_OP_LLVM_entry_value 1] $r0
	.loc	5 410 3                         @ ../Libraries/STM32F4xx_HAL_Driver/Src/stm32f4xx_hal_cortex.c:410:3
	bxmi	lr
.Ltmp90:
.LBB13_1:
	@DEBUG_VALUE: HAL_NVIC_GetPendingIRQ:IRQn <- [DW_OP_LLVM_entry_value 1] $r0
	.loc	5 0 3 is_stmt 0                 @ ../Libraries/STM32F4xx_HAL_Driver/Src/stm32f4xx_hal_cortex.c:0:3
	movw	r2, #57856
.Ltmp91:
	.loc	4 1745 7 is_stmt 1              @ ../Libraries/CMSIS/Include\core_cm4.h:1745:7
	uxtb	r1, r0
	movt	r2, #57344
.Ltmp92:
	.loc	4 1747 25                       @ ../Libraries/CMSIS/Include\core_cm4.h:1747:25
	orr.w	r1, r2, r1, lsr #3
	bic	r1, r1, #3
	ldr	r1, [r1]
	.loc	4 1747 91 is_stmt 0             @ ../Libraries/CMSIS/Include\core_cm4.h:1747:91
	and	r0, r0, #31
	.loc	4 1747 23                       @ ../Libraries/CMSIS/Include\core_cm4.h:1747:23
	lsr.w	r0, r1, r0
	and	r0, r0, #1
.Ltmp93:
	.loc	5 410 3 is_stmt 1               @ ../Libraries/STM32F4xx_HAL_Driver/Src/stm32f4xx_hal_cortex.c:410:3
	bx	lr
.Ltmp94:
.Lfunc_end13:
	.size	HAL_NVIC_GetPendingIRQ, .Lfunc_end13-HAL_NVIC_GetPendingIRQ
	.cfi_endproc
	.cantunwind
	.fnend
                                        @ -- End function
	.section	.text.HAL_NVIC_ClearPendingIRQ,"ax",%progbits
	.hidden	HAL_NVIC_ClearPendingIRQ        @ -- Begin function HAL_NVIC_ClearPendingIRQ
	.globl	HAL_NVIC_ClearPendingIRQ
	.p2align	2
	.type	HAL_NVIC_ClearPendingIRQ,%function
	.code	16                              @ @HAL_NVIC_ClearPendingIRQ
	.thumb_func
HAL_NVIC_ClearPendingIRQ:
.Lfunc_begin14:
	.loc	5 421 0                         @ ../Libraries/STM32F4xx_HAL_Driver/Src/stm32f4xx_hal_cortex.c:421:0
	.fnstart
	.cfi_startproc
@ %bb.0:
	@DEBUG_VALUE: HAL_NVIC_ClearPendingIRQ:IRQn <- $r0
	@DEBUG_VALUE: __NVIC_ClearPendingIRQ:IRQn <- $r0
	.loc	4 1779 7 prologue_end           @ ../Libraries/CMSIS/Include\core_cm4.h:1779:7
	cmp	r0, #0
.Ltmp95:
	.loc	5 427 1                         @ ../Libraries/STM32F4xx_HAL_Driver/Src/stm32f4xx_hal_cortex.c:427:1
	it	mi
	bxmi	lr
.Ltmp96:
.LBB14_1:
	@DEBUG_VALUE: __NVIC_ClearPendingIRQ:IRQn <- $r0
	@DEBUG_VALUE: HAL_NVIC_ClearPendingIRQ:IRQn <- $r0
	.loc	4 1779 7                        @ ../Libraries/CMSIS/Include\core_cm4.h:1779:7
	uxtb	r1, r0
.Ltmp97:
	.loc	4 1781 81                       @ ../Libraries/CMSIS/Include\core_cm4.h:1781:81
	and	r0, r0, #31
.Ltmp98:
	@DEBUG_VALUE: HAL_NVIC_ClearPendingIRQ:IRQn <- [DW_OP_LLVM_entry_value 1] $r0
	.loc	4 0 81 is_stmt 0                @ ../Libraries/CMSIS/Include\core_cm4.h:0:81
	movs	r2, #1
	.loc	4 1781 60                       @ ../Libraries/CMSIS/Include\core_cm4.h:1781:60
	lsl.w	r0, r2, r0
	movw	r2, #57984
	movt	r2, #57344
	.loc	4 1781 5                        @ ../Libraries/CMSIS/Include\core_cm4.h:1781:5
	orr.w	r1, r2, r1, lsr #3
	bic	r1, r1, #3
	.loc	4 1781 43                       @ ../Libraries/CMSIS/Include\core_cm4.h:1781:43
	str	r0, [r1]
.Ltmp99:
	.loc	5 427 1 is_stmt 1               @ ../Libraries/STM32F4xx_HAL_Driver/Src/stm32f4xx_hal_cortex.c:427:1
	bx	lr
.Ltmp100:
.Lfunc_end14:
	.size	HAL_NVIC_ClearPendingIRQ, .Lfunc_end14-HAL_NVIC_ClearPendingIRQ
	.cfi_endproc
	.cantunwind
	.fnend
                                        @ -- End function
	.section	.text.HAL_NVIC_GetActive,"ax",%progbits
	.hidden	HAL_NVIC_GetActive              @ -- Begin function HAL_NVIC_GetActive
	.globl	HAL_NVIC_GetActive
	.p2align	2
	.type	HAL_NVIC_GetActive,%function
	.code	16                              @ @HAL_NVIC_GetActive
	.thumb_func
HAL_NVIC_GetActive:
.Lfunc_begin15:
	.loc	5 438 0                         @ ../Libraries/STM32F4xx_HAL_Driver/Src/stm32f4xx_hal_cortex.c:438:0
	.fnstart
	.cfi_startproc
@ %bb.0:
	@DEBUG_VALUE: HAL_NVIC_GetActive:IRQn <- $r0
	@DEBUG_VALUE: __NVIC_GetActive:IRQn <- $r0
	.loc	4 1796 7 prologue_end           @ ../Libraries/CMSIS/Include\core_cm4.h:1796:7
	cmp	r0, #0
	itt	mi
	movmi	r0, #0
.Ltmp101:
	@DEBUG_VALUE: HAL_NVIC_GetActive:IRQn <- [DW_OP_LLVM_entry_value 1] $r0
	.loc	5 443 3                         @ ../Libraries/STM32F4xx_HAL_Driver/Src/stm32f4xx_hal_cortex.c:443:3
	bxmi	lr
.Ltmp102:
.LBB15_1:
	@DEBUG_VALUE: HAL_NVIC_GetActive:IRQn <- [DW_OP_LLVM_entry_value 1] $r0
	.loc	5 0 3 is_stmt 0                 @ ../Libraries/STM32F4xx_HAL_Driver/Src/stm32f4xx_hal_cortex.c:0:3
	movw	r2, #58112
.Ltmp103:
	.loc	4 1796 7 is_stmt 1              @ ../Libraries/CMSIS/Include\core_cm4.h:1796:7
	uxtb	r1, r0
	movt	r2, #57344
.Ltmp104:
	.loc	4 1798 25                       @ ../Libraries/CMSIS/Include\core_cm4.h:1798:25
	orr.w	r1, r2, r1, lsr #3
	bic	r1, r1, #3
	ldr	r1, [r1]
	.loc	4 1798 91 is_stmt 0             @ ../Libraries/CMSIS/Include\core_cm4.h:1798:91
	and	r0, r0, #31
	.loc	4 1798 23                       @ ../Libraries/CMSIS/Include\core_cm4.h:1798:23
	lsr.w	r0, r1, r0
	and	r0, r0, #1
.Ltmp105:
	.loc	5 443 3 is_stmt 1               @ ../Libraries/STM32F4xx_HAL_Driver/Src/stm32f4xx_hal_cortex.c:443:3
	bx	lr
.Ltmp106:
.Lfunc_end15:
	.size	HAL_NVIC_GetActive, .Lfunc_end15-HAL_NVIC_GetActive
	.cfi_endproc
	.cantunwind
	.fnend
                                        @ -- End function
	.section	.text.HAL_SYSTICK_CLKSourceConfig,"ax",%progbits
	.hidden	HAL_SYSTICK_CLKSourceConfig     @ -- Begin function HAL_SYSTICK_CLKSourceConfig
	.globl	HAL_SYSTICK_CLKSourceConfig
	.p2align	2
	.type	HAL_SYSTICK_CLKSourceConfig,%function
	.code	16                              @ @HAL_SYSTICK_CLKSourceConfig
	.thumb_func
HAL_SYSTICK_CLKSourceConfig:
.Lfunc_begin16:
	.loc	5 455 0                         @ ../Libraries/STM32F4xx_HAL_Driver/Src/stm32f4xx_hal_cortex.c:455:0
	.fnstart
	.cfi_startproc
@ %bb.0:
	@DEBUG_VALUE: HAL_SYSTICK_CLKSourceConfig:CLKSource <- $r0
	movw	r1, #57360
	movt	r1, #57344
.Ltmp107:
	.loc	5 0 0 is_stmt 0                 @ ../Libraries/STM32F4xx_HAL_Driver/Src/stm32f4xx_hal_cortex.c:0:0
	ldr	r2, [r1]
.Ltmp108:
	.loc	5 458 7 prologue_end is_stmt 1  @ ../Libraries/STM32F4xx_HAL_Driver/Src/stm32f4xx_hal_cortex.c:458:7
	cmp	r0, #4
	bic	r2, r2, #4
	it	eq
	addeq	r2, #4
.Ltmp109:
	.loc	5 0 0 is_stmt 0                 @ ../Libraries/STM32F4xx_HAL_Driver/Src/stm32f4xx_hal_cortex.c:0:0
	str	r2, [r1]
.Ltmp110:
	.loc	5 466 1 is_stmt 1               @ ../Libraries/STM32F4xx_HAL_Driver/Src/stm32f4xx_hal_cortex.c:466:1
	bx	lr
.Ltmp111:
.Lfunc_end16:
	.size	HAL_SYSTICK_CLKSourceConfig, .Lfunc_end16-HAL_SYSTICK_CLKSourceConfig
	.cfi_endproc
	.cantunwind
	.fnend
                                        @ -- End function
	.section	.text.HAL_SYSTICK_IRQHandler,"ax",%progbits
	.hidden	HAL_SYSTICK_IRQHandler          @ -- Begin function HAL_SYSTICK_IRQHandler
	.globl	HAL_SYSTICK_IRQHandler
	.p2align	2
	.type	HAL_SYSTICK_IRQHandler,%function
	.code	16                              @ @HAL_SYSTICK_IRQHandler
	.thumb_func
HAL_SYSTICK_IRQHandler:
.Lfunc_begin17:
	.loc	5 473 0                         @ ../Libraries/STM32F4xx_HAL_Driver/Src/stm32f4xx_hal_cortex.c:473:0
	.fnstart
	.cfi_startproc
@ %bb.0:
	.loc	5 474 3 prologue_end            @ ../Libraries/STM32F4xx_HAL_Driver/Src/stm32f4xx_hal_cortex.c:474:3
	b	HAL_SYSTICK_Callback
.Ltmp112:
.Lfunc_end17:
	.size	HAL_SYSTICK_IRQHandler, .Lfunc_end17-HAL_SYSTICK_IRQHandler
	.cfi_endproc
	.cantunwind
	.fnend
                                        @ -- End function
	.section	.text.HAL_SYSTICK_Callback,"ax",%progbits
	.hidden	HAL_SYSTICK_Callback            @ -- Begin function HAL_SYSTICK_Callback
	.weak	HAL_SYSTICK_Callback
	.p2align	2
	.type	HAL_SYSTICK_Callback,%function
	.code	16                              @ @HAL_SYSTICK_Callback
	.thumb_func
HAL_SYSTICK_Callback:
.Lfunc_begin18:
	.loc	5 482 0                         @ ../Libraries/STM32F4xx_HAL_Driver/Src/stm32f4xx_hal_cortex.c:482:0
	.fnstart
	.cfi_startproc
@ %bb.0:
	.loc	5 486 1 prologue_end            @ ../Libraries/STM32F4xx_HAL_Driver/Src/stm32f4xx_hal_cortex.c:486:1
	bx	lr
.Ltmp113:
.Lfunc_end18:
	.size	HAL_SYSTICK_Callback, .Lfunc_end18-HAL_SYSTICK_Callback
	.cfi_endproc
	.cantunwind
	.fnend
                                        @ -- End function
	.file	6 "E:\\StudyNote\\study_STM32-HAL\\STM32F4_Quick_Start_Guide_HAL\\2.code\\20.RNG-Key\\Project" "../Libraries/STM32F4xx_HAL_Driver/Inc\\stm32f4xx_hal_cortex.h"
	.section	".note.GNU-stack","",%progbits
	.eabi_attribute	30, 1	@ Tag_ABI_optimization_goals
	.ARM_attribute	16, 1	@ Tag_AV_eba