	.text
	.syntax unified
	.eabi_attribute	67, "2.09"	@ Tag_conformance
	.cpu	cortex-m4
	.eabi_attribute	6, 13	@ Tag_CPU_arch
	.eabi_attribute	7, 77	@ Tag_CPU_arch_profile
	.eabi_attribute	8, 0	@ Tag_ARM_ISA_use
	.eabi_attribute	9, 2	@ Tag_THUMB_ISA_use
	.fpu	fpv4-sp-d16
	.eabi_attribute	27, 1	@ Tag_ABI_HardFP_use
	.eabi_attribute	36, 1	@ Tag_FP_HP_extension
	.eabi_attribute	34, 1	@ Tag_CPU_unaligned_access
	.eabi_attribute	17, 1	@ Tag_ABI_PCS_GOT_use
	.eabi_attribute	20, 2	@ Tag_ABI_FP_denormal
	.eabi_attribute	21, 0	@ Tag_ABI_FP_exceptions
	.eabi_attribute	23, 1	@ Tag_ABI_FP_number_model
	.eabi_attribute	24, 1	@ Tag_ABI_align_needed
	.eabi_attribute	25, 1	@ Tag_ABI_align_preserved
	.eabi_attribute	28, 1	@ Tag_ABI_VFP_args
	.eabi_attribute	38, 1	@ Tag_ABI_FP_16bit_format
	.eabi_attribute	18, 2	@ Tag_ABI_PCS_wchar_t
	.eabi_attribute	26, 1	@ Tag_ABI_enum_size
	.eabi_attribute	14, 0	@ Tag_ABI_PCS_R9_use
	.file	"stm32f4xx_hal_rtc.c"
	.file	1 "E:\\StudyNote\\study_STM32-HAL\\STM32F4_Quick_Start_Guide_HAL\\2.code\\20.RNG-Key\\Project" "../Libraries/STM32F4xx_HAL_Driver/Inc/stm32f4xx_hal_def.h"
	.file	2 "E:\\StudyNote\\study_STM32-HAL\\STM32F4_Quick_Start_Guide_HAL\\2.code\\20.RNG-Key\\Project" "../Libraries/STM32F4xx_HAL_Driver/Inc\\stm32f4xx_hal_rtc.h"
	.file	3 "E:\\StudyNote\\study_STM32-HAL\\STM32F4_Quick_Start_Guide_HAL\\2.code\\20.RNG-Key\\Project" "../Libraries/CMSIS/Device/ST/STM32F4xx/Include\\stm32f4xx.h"
	.file	4 "E:\\dianzi\\MDKv5\\ARM\\ARMCLANG\\Bin\\..\\include" "stdint.h"
	.file	5 "E:\\StudyNote\\study_STM32-HAL\\STM32F4_Quick_Start_Guide_HAL\\2.code\\20.RNG-Key\\Project" "../Libraries/CMSIS/Device/ST/STM32F4xx/Include/stm32f407xx.h"
	.section	.text.HAL_RTC_Init,"ax",%progbits
	.hidden	HAL_RTC_Init                    @ -- Begin function HAL_RTC_Init
	.globl	HAL_RTC_Init
	.p2align	2
	.type	HAL_RTC_Init,%function
	.code	16                              @ @HAL_RTC_Init
	.thumb_func
HAL_RTC_Init:
.Lfunc_begin0:
	.file	6 "E:\\StudyNote\\study_STM32-HAL\\STM32F4_Quick_Start_Guide_HAL\\2.code\\20.RNG-Key\\Project" "../Libraries/STM32F4xx_HAL_Driver/Src/stm32f4xx_hal_rtc.c"
	.loc	6 247 0                         @ ../Libraries/STM32F4xx_HAL_Driver/Src/stm32f4xx_hal_rtc.c:247:0
	.fnstart
	.cfi_sections .debug_frame
	.cfi_startproc
@ %bb.0:
	@DEBUG_VALUE: HAL_RTC_Init:hrtc <- $r0
	@DEBUG_VALUE: HAL_RTC_Init:hrtc <- $r0
	.loc	6 249 6 prologue_end            @ ../Libraries/STM32F4xx_HAL_Driver/Src/stm32f4xx_hal_rtc.c:249:6
	cmp	r0, #0
	itt	eq
	moveq	r0, #1
.Ltmp0:
	@DEBUG_VALUE: HAL_RTC_Init:hrtc <- [DW_OP_LLVM_entry_value 1] $r0
	.loc	6 354 1                         @ ../Libraries/STM32F4xx_HAL_Driver/Src/stm32f4xx_hal_rtc.c:354:1
	bxeq	lr
.Ltmp1:
.LBB0_1:
	@DEBUG_VALUE: HAL_RTC_Init:hrtc <- [DW_OP_LLVM_entry_value 1] $r0
	.save	{r4, r5, r7, lr}
	push	{r4, r5, r7, lr}
	.cfi_def_cfa_offset 16
	.cfi_offset lr, -4
	.cfi_offset r7, -8
	.cfi_offset r5, -12
	.cfi_offset r4, -16
	mov	r4, r0
.Ltmp2:
	@DEBUG_VALUE: HAL_RTC_Init:hrtc <- $r4
	.loc	6 288 12                        @ ../Libraries/STM32F4xx_HAL_Driver/Src/stm32f4xx_hal_rtc.c:288:12
	ldrb	r0, [r0, #29]
.Ltmp3:
	.loc	6 288 6 is_stmt 0               @ ../Libraries/STM32F4xx_HAL_Driver/Src/stm32f4xx_hal_rtc.c:288:6
	cbnz	r0, .LBB0_3
.Ltmp4:
@ %bb.2:
	@DEBUG_VALUE: HAL_RTC_Init:hrtc <- $r4
	.loc	6 0 6                           @ ../Libraries/STM32F4xx_HAL_Driver/Src/stm32f4xx_hal_rtc.c:0:6
	movs	r0, #0
.Ltmp5:
	.loc	6 291 16 is_stmt 1              @ ../Libraries/STM32F4xx_HAL_Driver/Src/stm32f4xx_hal_rtc.c:291:16
	strb	r0, [r4, #28]
	.loc	6 294 5                         @ ../Libraries/STM32F4xx_HAL_Driver/Src/stm32f4xx_hal_rtc.c:294:5
	mov	r0, r4
	bl	HAL_RTC_MspInit
.Ltmp6:
.LBB0_3:
	@DEBUG_VALUE: HAL_RTC_Init:hrtc <- $r4
	.loc	6 0 5 is_stmt 0                 @ ../Libraries/STM32F4xx_HAL_Driver/Src/stm32f4xx_hal_rtc.c:0:5
	movs	r0, #2
	.loc	6 299 15 is_stmt 1              @ ../Libraries/STM32F4xx_HAL_Driver/Src/stm32f4xx_hal_rtc.c:299:15
	strb	r0, [r4, #29]
.Ltmp7:
	.loc	6 302 3                         @ ../Libraries/STM32F4xx_HAL_Driver/Src/stm32f4xx_hal_rtc.c:302:3
	ldr	r1, [r4]
	movs	r0, #202
	str	r0, [r1, #36]
	movs	r0, #83
	str	r0, [r1, #36]
.Ltmp8:
	@DEBUG_VALUE: RTC_EnterInitMode:tickstart <- 0
	@DEBUG_VALUE: RTC_EnterInitMode:hrtc <- $r4
	.loc	6 1843 23                       @ ../Libraries/STM32F4xx_HAL_Driver/Src/stm32f4xx_hal_rtc.c:1843:23
	ldr	r0, [r1, #12]
.Ltmp9:
	.loc	6 1843 6 is_stmt 0              @ ../Libraries/STM32F4xx_HAL_Driver/Src/stm32f4xx_hal_rtc.c:1843:6
	lsls	r0, r0, #25
	bmi	.LBB0_7
.Ltmp10:
@ %bb.4:
	@DEBUG_VALUE: RTC_EnterInitMode:hrtc <- $r4
	@DEBUG_VALUE: RTC_EnterInitMode:tickstart <- 0
	@DEBUG_VALUE: HAL_RTC_Init:hrtc <- $r4
	.loc	6 0 6                           @ ../Libraries/STM32F4xx_HAL_Driver/Src/stm32f4xx_hal_rtc.c:0:6
	mov.w	r0, #-1
.Ltmp11:
	.loc	6 1846 25 is_stmt 1             @ ../Libraries/STM32F4xx_HAL_Driver/Src/stm32f4xx_hal_rtc.c:1846:25
	str	r0, [r1, #12]
	.loc	6 1849 17                       @ ../Libraries/STM32F4xx_HAL_Driver/Src/stm32f4xx_hal_rtc.c:1849:17
	bl	HAL_GetTick
.Ltmp12:
	mov	r5, r0
.Ltmp13:
	@DEBUG_VALUE: RTC_EnterInitMode:tickstart <- $r5
	.p2align	2
.LBB0_5:                                @ =>This Inner Loop Header: Depth=1
	@DEBUG_VALUE: RTC_EnterInitMode:tickstart <- $r5
	@DEBUG_VALUE: RTC_EnterInitMode:hrtc <- $r4
	@DEBUG_VALUE: HAL_RTC_Init:hrtc <- $r4
	.loc	6 1852 18                       @ ../Libraries/STM32F4xx_HAL_Driver/Src/stm32f4xx_hal_rtc.c:1852:18
	ldr	r1, [r4]
	.loc	6 1852 28 is_stmt 0             @ ../Libraries/STM32F4xx_HAL_Driver/Src/stm32f4xx_hal_rtc.c:1852:28
	ldr	r0, [r1, #12]
	.loc	6 1852 5                        @ ../Libraries/STM32F4xx_HAL_Driver/Src/stm32f4xx_hal_rtc.c:1852:5
	lsls	r0, r0, #25
	bmi	.LBB0_7
.Ltmp14:
@ %bb.6:                                @   in Loop: Header=BB0_5 Depth=1
	@DEBUG_VALUE: RTC_EnterInitMode:tickstart <- $r5
	@DEBUG_VALUE: RTC_EnterInitMode:hrtc <- $r4
	@DEBUG_VALUE: HAL_RTC_Init:hrtc <- $r4
	.loc	6 1854 11 is_stmt 1             @ ../Libraries/STM32F4xx_HAL_Driver/Src/stm32f4xx_hal_rtc.c:1854:11
	bl	HAL_GetTick
.Ltmp15:
	.loc	6 1854 25 is_stmt 0             @ ../Libraries/STM32F4xx_HAL_Driver/Src/stm32f4xx_hal_rtc.c:1854:25
	subs	r0, r0, r5
.Ltmp16:
	.loc	6 1854 10                       @ ../Libraries/STM32F4xx_HAL_Driver/Src/stm32f4xx_hal_rtc.c:1854:10
	cmp.w	r0, #1000
	bls	.LBB0_5
	b	.LBB0_11
.Ltmp17:
.LBB0_7:
	@DEBUG_VALUE: HAL_RTC_Init:hrtc <- $r4
	.loc	6 318 24 is_stmt 1              @ ../Libraries/STM32F4xx_HAL_Driver/Src/stm32f4xx_hal_rtc.c:318:24
	ldr	r0, [r1, #8]
	movw	r2, #65471
	movt	r2, #65423
	ands	r0, r2
	str	r0, [r1, #8]
	.loc	6 320 49                        @ ../Libraries/STM32F4xx_HAL_Driver/Src/stm32f4xx_hal_rtc.c:320:49
	ldrd	r0, r12, [r4, #4]
	.loc	6 323 50                        @ ../Libraries/STM32F4xx_HAL_Driver/Src/stm32f4xx_hal_rtc.c:323:50
	ldrd	r3, r5, [r4, #12]
	.loc	6 320 93                        @ ../Libraries/STM32F4xx_HAL_Driver/Src/stm32f4xx_hal_rtc.c:320:93
	ldr	r2, [r4, #20]
	.loc	6 320 60 is_stmt 0              @ ../Libraries/STM32F4xx_HAL_Driver/Src/stm32f4xx_hal_rtc.c:320:60
	orrs	r0, r5
	.loc	6 320 24                        @ ../Libraries/STM32F4xx_HAL_Driver/Src/stm32f4xx_hal_rtc.c:320:24
	ldr	r5, [r1, #8]
	.loc	6 320 80                        @ ../Libraries/STM32F4xx_HAL_Driver/Src/stm32f4xx_hal_rtc.c:320:80
	orrs	r0, r2
	.loc	6 320 24                        @ ../Libraries/STM32F4xx_HAL_Driver/Src/stm32f4xx_hal_rtc.c:320:24
	orrs	r0, r5
	str	r0, [r1, #8]
	.loc	6 323 26 is_stmt 1              @ ../Libraries/STM32F4xx_HAL_Driver/Src/stm32f4xx_hal_rtc.c:323:26
	str	r3, [r1, #16]
	.loc	6 324 26                        @ ../Libraries/STM32F4xx_HAL_Driver/Src/stm32f4xx_hal_rtc.c:324:26
	ldr	r0, [r1, #16]
	orr.w	r0, r0, r12, lsl #16
	str	r0, [r1, #16]
	.loc	6 327 25                        @ ../Libraries/STM32F4xx_HAL_Driver/Src/stm32f4xx_hal_rtc.c:327:25
	ldr	r0, [r1, #12]
	bic	r0, r0, #128
	str	r0, [r1, #12]
.Ltmp18:
	.loc	6 330 25                        @ ../Libraries/STM32F4xx_HAL_Driver/Src/stm32f4xx_hal_rtc.c:330:25
	ldr	r0, [r1, #8]
.Ltmp19:
	.loc	6 330 8 is_stmt 0               @ ../Libraries/STM32F4xx_HAL_Driver/Src/stm32f4xx_hal_rtc.c:330:8
	lsls	r0, r0, #26
	bmi	.LBB0_12
.Ltmp20:
@ %bb.8:
	@DEBUG_VALUE: HAL_RTC_Init:hrtc <- $r4
	@DEBUG_VALUE: HAL_RTC_WaitForSynchro:hrtc <- $r4
	@DEBUG_VALUE: HAL_RTC_WaitForSynchro:tickstart <- 0
	.loc	6 1714 23 is_stmt 1             @ ../Libraries/STM32F4xx_HAL_Driver/Src/stm32f4xx_hal_rtc.c:1714:23
	ldr	r0, [r1, #12]
	bic	r0, r0, #160
	str	r0, [r1, #12]
	.loc	6 1717 17                       @ ../Libraries/STM32F4xx_HAL_Driver/Src/stm32f4xx_hal_rtc.c:1717:17
	bl	HAL_GetTick
.Ltmp21:
	mov	r5, r0
.Ltmp22:
	@DEBUG_VALUE: HAL_RTC_WaitForSynchro:tickstart <- $r5
	.p2align	2
.LBB0_9:                                @ =>This Inner Loop Header: Depth=1
	@DEBUG_VALUE: HAL_RTC_WaitForSynchro:tickstart <- $r5
	@DEBUG_VALUE: HAL_RTC_WaitForSynchro:hrtc <- $r4
	@DEBUG_VALUE: HAL_RTC_Init:hrtc <- $r4
	.loc	6 1720 16                       @ ../Libraries/STM32F4xx_HAL_Driver/Src/stm32f4xx_hal_rtc.c:1720:16
	ldr	r1, [r4]
	.loc	6 1720 26 is_stmt 0             @ ../Libraries/STM32F4xx_HAL_Driver/Src/stm32f4xx_hal_rtc.c:1720:26
	ldr	r0, [r1, #12]
	.loc	6 1720 3                        @ ../Libraries/STM32F4xx_HAL_Driver/Src/stm32f4xx_hal_rtc.c:1720:3
	lsls	r0, r0, #26
	bmi	.LBB0_12
.Ltmp23:
@ %bb.10:                               @   in Loop: Header=BB0_9 Depth=1
	@DEBUG_VALUE: HAL_RTC_WaitForSynchro:tickstart <- $r5
	@DEBUG_VALUE: HAL_RTC_WaitForSynchro:hrtc <- $r4
	@DEBUG_VALUE: HAL_RTC_Init:hrtc <- $r4
	.loc	6 1722 9 is_stmt 1              @ ../Libraries/STM32F4xx_HAL_Driver/Src/stm32f4xx_hal_rtc.c:1722:9
	bl	HAL_GetTick
.Ltmp24:
	.loc	6 1722 23 is_stmt 0             @ ../Libraries/STM32F4xx_HAL_Driver/Src/stm32f4xx_hal_rtc.c:1722:23
	subs	r0, r0, r5
.Ltmp25:
	.loc	6 1722 8                        @ ../Libraries/STM32F4xx_HAL_Driver/Src/stm32f4xx_hal_rtc.c:1722:8
	cmp.w	r0, #1000
	bls	.LBB0_9
.Ltmp26:
.LBB0_11:
	@DEBUG_VALUE: HAL_RTC_Init:hrtc <- $r4
	.loc	6 0 0                           @ ../Libraries/STM32F4xx_HAL_Driver/Src/stm32f4xx_hal_rtc.c:0:0
	ldr	r1, [r4]
	movs	r0, #1
	movs	r2, #4
	b	.LBB0_13
.Ltmp27:
.LBB0_12:
	@DEBUG_VALUE: HAL_RTC_Init:hrtc <- $r4
	.loc	6 343 27 is_stmt 1              @ ../Libraries/STM32F4xx_HAL_Driver/Src/stm32f4xx_hal_rtc.c:343:27
	ldr	r0, [r1, #64]
	bic	r0, r0, #262144
	str	r0, [r1, #64]
	.loc	6 344 52                        @ ../Libraries/STM32F4xx_HAL_Driver/Src/stm32f4xx_hal_rtc.c:344:52
	ldr	r0, [r4, #24]
	.loc	6 344 27 is_stmt 0              @ ../Libraries/STM32F4xx_HAL_Driver/Src/stm32f4xx_hal_rtc.c:344:27
	ldr	r2, [r1, #64]
	orrs	r0, r2
	str	r0, [r1, #64]
	movs	r0, #0
	movs	r2, #1
.Ltmp28:
.LBB0_13:
	@DEBUG_VALUE: HAL_RTC_Init:hrtc <- $r4
	.loc	6 0 27                          @ ../Libraries/STM32F4xx_HAL_Driver/Src/stm32f4xx_hal_rtc.c:0:27
	movs	r3, #255
	str	r3, [r1, #36]
	strb	r2, [r4, #29]
	pop	{r4, r5, r7, pc}
.Ltmp29:
.Lfunc_end0:
	.size	HAL_RTC_Init, .Lfunc_end0-HAL_RTC_Init
	.cfi_endproc
	.cantunwind
	.fnend
                                        @ -- End function
	.section	.text.HAL_RTC_MspInit,"ax",%progbits
	.hidden	HAL_RTC_MspInit                 @ -- Begin function HAL_RTC_MspInit
	.weak	HAL_RTC_MspInit
	.p2align	2
	.type	HAL_RTC_MspInit,%function
	.code	16                              @ @HAL_RTC_MspInit
	.thumb_func
HAL_RTC_MspInit:
.Lfunc_begin1:
	.loc	6 673 0 is_stmt 1               @ ../Libraries/STM32F4xx_HAL_Driver/Src/stm32f4xx_hal_rtc.c:673:0
	.fnstart
	.cfi_startproc
@ %bb.0:
	@DEBUG_VALUE: HAL_RTC_MspInit:hrtc <- $r0
	.loc	6 679 1 prologue_end            @ ../Libraries/STM32F4xx_HAL_Driver/Src/stm32f4xx_hal_rtc.c:679:1
	bx	lr
.Ltmp30:
.Lfunc_end1:
	.size	HAL_RTC_MspInit, .Lfunc_end1-HAL_RTC_MspInit
	.cfi_endproc
	.cantunwind
	.fnend
                                        @ -- End function
	.section	.text.RTC_EnterInitMode,"ax",%progbits
	.hidden	RTC_EnterInitMode               @ -- Begin function RTC_EnterInitMode
	.globl	RTC_EnterInitMode
	.p2align	2
	.type	RTC_EnterInitMode,%function
	.code	16                              @ @RTC_EnterInitMode
	.thumb_func
RTC_EnterInitMode:
.Lfunc_begin2:
	.loc	6 1839 0                        @ ../Libraries/STM32F4xx_HAL_Driver/Src/stm32f4xx_hal_rtc.c:1839:0
	.fnstart
	.cfi_startproc
@ %bb.0:
	@DEBUG_VALUE: RTC_EnterInitMode:hrtc <- $r0
	.save	{r4, r5, r7, lr}
	push	{r4, r5, r7, lr}
	.cfi_def_cfa_offset 16
	.cfi_offset lr, -4
	.cfi_offset r7, -8
	.cfi_offset r5, -12
	.cfi_offset r4, -16
	mov	r4, r0
.Ltmp31:
	@DEBUG_VALUE: RTC_EnterInitMode:tickstart <- 0
	@DEBUG_VALUE: RTC_EnterInitMode:hrtc <- $r4
	.loc	6 1843 13 prologue_end          @ ../Libraries/STM32F4xx_HAL_Driver/Src/stm32f4xx_hal_rtc.c:1843:13
	ldr	r0, [r0]
	.loc	6 1843 23 is_stmt 0             @ ../Libraries/STM32F4xx_HAL_Driver/Src/stm32f4xx_hal_rtc.c:1843:23
	ldr	r1, [r0, #12]
.Ltmp32:
	.loc	6 1843 6                        @ ../Libraries/STM32F4xx_HAL_Driver/Src/stm32f4xx_hal_rtc.c:1843:6
	lsls	r1, r1, #25
	bmi	.LBB2_5
.Ltmp33:
@ %bb.1:
	@DEBUG_VALUE: RTC_EnterInitMode:hrtc <- $r4
	@DEBUG_VALUE: RTC_EnterInitMode:tickstart <- 0
	.loc	6 0 6                           @ ../Libraries/STM32F4xx_HAL_Driver/Src/stm32f4xx_hal_rtc.c:0:6
	mov.w	r1, #-1
.Ltmp34:
	.loc	6 1846 25 is_stmt 1             @ ../Libraries/STM32F4xx_HAL_Driver/Src/stm32f4xx_hal_rtc.c:1846:25
	str	r1, [r0, #12]
	.loc	6 1849 17                       @ ../Libraries/STM32F4xx_HAL_Driver/Src/stm32f4xx_hal_rtc.c:1849:17
	bl	HAL_GetTick
.Ltmp35:
	mov	r5, r0
.Ltmp36:
	@DEBUG_VALUE: RTC_EnterInitMode:tickstart <- $r5
	.p2align	2
.LBB2_2:                                @ =>This Inner Loop Header: Depth=1
	@DEBUG_VALUE: RTC_EnterInitMode:tickstart <- $r5
	@DEBUG_VALUE: RTC_EnterInitMode:hrtc <- $r4
	.loc	6 1852 18                       @ ../Libraries/STM32F4xx_HAL_Driver/Src/stm32f4xx_hal_rtc.c:1852:18
	ldr	r0, [r4]
	.loc	6 1852 28 is_stmt 0             @ ../Libraries/STM32F4xx_HAL_Driver/Src/stm32f4xx_hal_rtc.c:1852:28
	ldr	r0, [r0, #12]
	.loc	6 1852 5                        @ ../Libraries/STM32F4xx_HAL_Driver/Src/stm32f4xx_hal_rtc.c:1852:5
	lsls	r0, r0, #25
	bmi	.LBB2_5
.Ltmp37:
@ %bb.3:                                @   in Loop: Header=BB2_2 Depth=1
	@DEBUG_VALUE: RTC_EnterInitMode:tickstart <- $r5
	@DEBUG_VALUE: RTC_EnterInitMode:hrtc <- $r4
	.loc	6 1854 11 is_stmt 1             @ ../Libraries/STM32F4xx_HAL_Driver/Src/stm32f4xx_hal_rtc.c:1854:11
	bl	HAL_GetTick
.Ltmp38:
	.loc	6 1854 25 is_stmt 0             @ ../Libraries/STM32F4xx_HAL_Driver/Src/stm32f4xx_hal_rtc.c:1854:25
	subs	r0, r0, r5
.Ltmp39:
	.loc	6 1854 10                       @ ../Libraries/STM32F4xx_HAL_Driver/Src/stm32f4xx_hal_rtc.c:1854:10
	cmp.w	r0, #1000
	bls	.LBB2_2
.Ltmp40:
@ %bb.4:
	@DEBUG_VALUE: RTC_EnterInitMode:tickstart <- $r5
	@DEBUG_VALUE: RTC_EnterInitMode:hrtc <- $r4
	.loc	6 0 10                          @ ../Libraries/STM32F4xx_HAL_Driver/Src/stm32f4xx_hal_rtc.c:0:10
	movs	r0, #3
	.loc	6 1862 1 is_stmt 1              @ ../Libraries/STM32F4xx_HAL_Driver/Src/stm32f4xx_hal_rtc.c:1862:1
	pop	{r4, r5, r7, pc}
.Ltmp41:
.LBB2_5:
	@DEBUG_VALUE: RTC_EnterInitMode:hrtc <- $r4
	.loc	6 0 1 is_stmt 0                 @ ../Libraries/STM32F4xx_HAL_Driver/Src/stm32f4xx_hal_rtc.c:0:1
	movs	r0, #0
	.loc	6 1862 1                        @ ../Libraries/STM32F4xx_HAL_Driver/Src/stm32f4xx_hal_rtc.c:1862:1
	pop	{r4, r5, r7, pc}
.Ltmp42:
.Lfunc_end2:
	.size	RTC_EnterInitMode, .Lfunc_end2-RTC_EnterInitMode
	.cfi_endproc
	.cantunwind
	.fnend
                                        @ -- End function
	.section	.text.HAL_RTC_WaitForSynchro,"ax",%progbits
	.hidden	HAL_RTC_WaitForSynchro          @ -- Begin function HAL_RTC_WaitForSynchro
	.globl	HAL_RTC_WaitForSynchro
	.p2align	2
	.type	HAL_RTC_WaitForSynchro,%function
	.code	16                              @ @HAL_RTC_WaitForSynchro
	.thumb_func
HAL_RTC_WaitForSynchro:
.Lfunc_begin3:
	.loc	6 1710 0 is_stmt 1              @ ../Libraries/STM32F4xx_HAL_Driver/Src/stm32f4xx_hal_rtc.c:1710:0
	.fnstart
	.cfi_startproc
@ %bb.0:
	@DEBUG_VALUE: HAL_RTC_WaitForSynchro:hrtc <- $r0
	.save	{r4, r5, r7, lr}
	push	{r4, r5, r7, lr}
	.cfi_def_cfa_offset 16
	.cfi_offset lr, -4
	.cfi_offset r7, -8
	.cfi_offset r5, -12
	.cfi_offset r4, -16
	mov	r4, r0
.Ltmp43:
	@DEBUG_VALUE: HAL_RTC_WaitForSynchro:tickstart <- 0
	@DEBUG_VALUE: HAL_RTC_WaitForSynchro:hrtc <- $r4
	.loc	6 1714 9 prologue_end           @ ../Libraries/STM32F4xx_HAL_Driver/Src/stm32f4xx_hal_rtc.c:1714:9
	ldr	r0, [r0]
	.loc	6 1714 23 is_stmt 0             @ ../Libraries/STM32F4xx_HAL_Driver/Src/stm32f4xx_hal_rtc.c:1714:23
	ldr	r1, [r0, #12]
	bic	r1, r1, #160
	str	r1, [r0, #12]
	.loc	6 1717 17 is_stmt 1             @ ../Libraries/STM32F4xx_HAL_Driver/Src/stm32f4xx_hal_rtc.c:1717:17
	bl	HAL_GetTick
.Ltmp44:
	mov	r5, r0
.Ltmp45:
	@DEBUG_VALUE: HAL_RTC_WaitForSynchro:tickstart <- $r5
	.p2align	2
.LBB3_1:                                @ =>This Inner Loop Header: Depth=1
	@DEBUG_VALUE: HAL_RTC_WaitForSynchro:tickstart <- $r5
	@DEBUG_VALUE: HAL_RTC_WaitForSynchro:hrtc <- $r4
	.loc	6 1720 16                       @ ../Libraries/STM32F4xx_HAL_Driver/Src/stm32f4xx_hal_rtc.c:1720:16
	ldr	r0, [r4]
	.loc	6 1720 26 is_stmt 0             @ ../Libraries/STM32F4xx_HAL_Driver/Src/stm32f4xx_hal_rtc.c:1720:26
	ldr	r0, [r0, #12]
	.loc	6 1720 3                        @ ../Libraries/STM32F4xx_HAL_Driver/Src/stm32f4xx_hal_rtc.c:1720:3
	lsls	r0, r0, #26
	bmi	.LBB3_4
.Ltmp46:
@ %bb.2:                                @   in Loop: Header=BB3_1 Depth=1
	@DEBUG_VALUE: HAL_RTC_WaitForSynchro:tickstart <- $r5
	@DEBUG_VALUE: HAL_RTC_WaitForSynchro:hrtc <- $r4
	.loc	6 1722 9 is_stmt 1              @ ../Libraries/STM32F4xx_HAL_Driver/Src/stm32f4xx_hal_rtc.c:1722:9
	bl	HAL_GetTick
.Ltmp47:
	.loc	6 1722 23 is_stmt 0             @ ../Libraries/STM32F4xx_HAL_Driver/Src/stm32f4xx_hal_rtc.c:1722:23
	subs	r0, r0, r5
.Ltmp48:
	.loc	6 1722 8                        @ ../Libraries/STM32F4xx_HAL_Driver/Src/stm32f4xx_hal_rtc.c:1722:8
	cmp.w	r0, #1000
	bls	.LBB3_1
.Ltmp49:
@ %bb.3:
	@DEBUG_VALUE: HAL_RTC_WaitForSynchro:tickstart <- $r5
	@DEBUG_VALUE: HAL_RTC_WaitForSynchro:hrtc <- $r4
	.loc	6 0 8                           @ ../Libraries/STM32F4xx_HAL_Driver/Src/stm32f4xx_hal_rtc.c:0:8
	movs	r0, #3
	.loc	6 1729 1 is_stmt 1              @ ../Libraries/STM32F4xx_HAL_Driver/Src/stm32f4xx_hal_rtc.c:1729:1
	pop	{r4, r5, r7, pc}
.Ltmp50:
.LBB3_4:
	@DEBUG_VALUE: HAL_RTC_WaitForSynchro:tickstart <- $r5
	@DEBUG_VALUE: HAL_RTC_WaitForSynchro:hrtc <- $r4
	.loc	6 0 1 is_stmt 0                 @ ../Libraries/STM32F4xx_HAL_Driver/Src/stm32f4xx_hal_rtc.c:0:1
	movs	r0, #0
	.loc	6 1729 1                        @ ../Libraries/STM32F4xx_HAL_Driver/Src/stm32f4xx_hal_rtc.c:1729:1
	pop	{r4, r5, r7, pc}
.Ltmp51:
.Lfunc_end3:
	.size	HAL_RTC_WaitForSynchro, .Lfunc_end3-HAL_RTC_WaitForSynchro
	.cfi_endproc
	.cantunwind
	.fnend
                                        @ -- End function
	.section	.text.HAL_RTC_DeInit,"ax",%progbits
	.hidden	HAL_RTC_DeInit                  @ -- Begin function HAL_RTC_DeInit
	.globl	HAL_RTC_DeInit
	.p2align	2
	.type	HAL_RTC_DeInit,%function
	.code	16                              @ @HAL_RTC_DeInit
	.thumb_func
HAL_RTC_DeInit:
.Lfunc_begin4:
	.loc	6 364 0 is_stmt 1               @ ../Libraries/STM32F4xx_HAL_Driver/Src/stm32f4xx_hal_rtc.c:364:0
	.fnstart
	.cfi_startproc
@ %bb.0:
	@DEBUG_VALUE: HAL_RTC_DeInit:hrtc <- $r0
	.save	{r4, r5, r6, lr}
	push	{r4, r5, r6, lr}
	.cfi_def_cfa_offset 16
	.cfi_offset lr, -4
	.cfi_offset r6, -8
	.cfi_offset r5, -12
	.cfi_offset r4, -16
	mov	r4, r0
.Ltmp52:
	@DEBUG_VALUE: HAL_RTC_DeInit:hrtc <- $r4
	@DEBUG_VALUE: HAL_RTC_DeInit:tickstart <- 0
	@DEBUG_VALUE: HAL_RTC_DeInit:hrtc <- $r4
	movs	r0, #2
.Ltmp53:
	.loc	6 368 15 prologue_end           @ ../Libraries/STM32F4xx_HAL_Driver/Src/stm32f4xx_hal_rtc.c:368:15
	strb	r0, [r4, #29]
.Ltmp54:
	.loc	6 371 3                         @ ../Libraries/STM32F4xx_HAL_Driver/Src/stm32f4xx_hal_rtc.c:371:3
	ldr	r0, [r4]
	movs	r1, #202
	str	r1, [r0, #36]
	movs	r1, #83
	str	r1, [r0, #36]
.Ltmp55:
	@DEBUG_VALUE: RTC_EnterInitMode:tickstart <- 0
	@DEBUG_VALUE: RTC_EnterInitMode:hrtc <- $r4
	.loc	6 1843 23                       @ ../Libraries/STM32F4xx_HAL_Driver/Src/stm32f4xx_hal_rtc.c:1843:23
	ldr	r1, [r0, #12]
.Ltmp56:
	.loc	6 1843 6 is_stmt 0              @ ../Libraries/STM32F4xx_HAL_Driver/Src/stm32f4xx_hal_rtc.c:1843:6
	lsls	r1, r1, #25
	bmi	.LBB4_4
.Ltmp57:
@ %bb.1:
	@DEBUG_VALUE: RTC_EnterInitMode:hrtc <- $r4
	@DEBUG_VALUE: RTC_EnterInitMode:tickstart <- 0
	@DEBUG_VALUE: HAL_RTC_DeInit:tickstart <- 0
	@DEBUG_VALUE: HAL_RTC_DeInit:hrtc <- $r4
	.loc	6 0 6                           @ ../Libraries/STM32F4xx_HAL_Driver/Src/stm32f4xx_hal_rtc.c:0:6
	mov.w	r1, #-1
.Ltmp58:
	.loc	6 1846 25 is_stmt 1             @ ../Libraries/STM32F4xx_HAL_Driver/Src/stm32f4xx_hal_rtc.c:1846:25
	str	r1, [r0, #12]
	.loc	6 1849 17                       @ ../Libraries/STM32F4xx_HAL_Driver/Src/stm32f4xx_hal_rtc.c:1849:17
	bl	HAL_GetTick
.Ltmp59:
	mov	r5, r0
.Ltmp60:
	@DEBUG_VALUE: RTC_EnterInitMode:tickstart <- $r5
	.p2align	2
.LBB4_2:                                @ =>This Inner Loop Header: Depth=1
	@DEBUG_VALUE: RTC_EnterInitMode:tickstart <- $r5
	@DEBUG_VALUE: RTC_EnterInitMode:hrtc <- $r4
	@DEBUG_VALUE: HAL_RTC_DeInit:tickstart <- 0
	@DEBUG_VALUE: HAL_RTC_DeInit:hrtc <- $r4
	.loc	6 1852 18                       @ ../Libraries/STM32F4xx_HAL_Driver/Src/stm32f4xx_hal_rtc.c:1852:18
	ldr	r0, [r4]
	.loc	6 1852 28 is_stmt 0             @ ../Libraries/STM32F4xx_HAL_Driver/Src/stm32f4xx_hal_rtc.c:1852:28
	ldr	r1, [r0, #12]
	.loc	6 1852 5                        @ ../Libraries/STM32F4xx_HAL_Driver/Src/stm32f4xx_hal_rtc.c:1852:5
	lsls	r1, r1, #25
	bmi	.LBB4_4
.Ltmp61:
@ %bb.3:                                @   in Loop: Header=BB4_2 Depth=1
	@DEBUG_VALUE: RTC_EnterInitMode:tickstart <- $r5
	@DEBUG_VALUE: RTC_EnterInitMode:hrtc <- $r4
	@DEBUG_VALUE: HAL_RTC_DeInit:tickstart <- 0
	@DEBUG_VALUE: HAL_RTC_DeInit:hrtc <- $r4
	.loc	6 1854 11 is_stmt 1             @ ../Libraries/STM32F4xx_HAL_Driver/Src/stm32f4xx_hal_rtc.c:1854:11
	bl	HAL_GetTick
.Ltmp62:
	.loc	6 1854 25 is_stmt 0             @ ../Libraries/STM32F4xx_HAL_Driver/Src/stm32f4xx_hal_rtc.c:1854:25
	subs	r0, r0, r5
.Ltmp63:
	.loc	6 1854 10                       @ ../Libraries/STM32F4xx_HAL_Driver/Src/stm32f4xx_hal_rtc.c:1854:10
	cmp.w	r0, #1000
	bls	.LBB4_2
	b	.LBB4_12
.Ltmp64:
.LBB4_4:
	@DEBUG_VALUE: HAL_RTC_DeInit:tickstart <- 0
	@DEBUG_VALUE: HAL_RTC_DeInit:hrtc <- $r4
	.loc	6 0 10                          @ ../Libraries/STM32F4xx_HAL_Driver/Src/stm32f4xx_hal_rtc.c:0:10
	movs	r1, #0
.Ltmp65:
	.loc	6 387 24 is_stmt 1              @ ../Libraries/STM32F4xx_HAL_Driver/Src/stm32f4xx_hal_rtc.c:387:24
	str	r1, [r0]
	movw	r1, #8449
	.loc	6 388 24                        @ ../Libraries/STM32F4xx_HAL_Driver/Src/stm32f4xx_hal_rtc.c:388:24
	str	r1, [r0, #4]
	.loc	6 390 24                        @ ../Libraries/STM32F4xx_HAL_Driver/Src/stm32f4xx_hal_rtc.c:390:24
	ldr	r1, [r0, #8]
	and	r1, r1, #7
	str	r1, [r0, #8]
	.loc	6 393 17                        @ ../Libraries/STM32F4xx_HAL_Driver/Src/stm32f4xx_hal_rtc.c:393:17
	bl	HAL_GetTick
.Ltmp66:
	mov	r5, r0
.Ltmp67:
	@DEBUG_VALUE: HAL_RTC_DeInit:tickstart <- $r5
	.p2align	2
.LBB4_5:                                @ =>This Inner Loop Header: Depth=1
	@DEBUG_VALUE: HAL_RTC_DeInit:tickstart <- $r5
	@DEBUG_VALUE: HAL_RTC_DeInit:hrtc <- $r4
	.loc	6 396 19                        @ ../Libraries/STM32F4xx_HAL_Driver/Src/stm32f4xx_hal_rtc.c:396:19
	ldr	r0, [r4]
	.loc	6 396 29 is_stmt 0              @ ../Libraries/STM32F4xx_HAL_Driver/Src/stm32f4xx_hal_rtc.c:396:29
	ldr	r1, [r0, #12]
	.loc	6 396 5                         @ ../Libraries/STM32F4xx_HAL_Driver/Src/stm32f4xx_hal_rtc.c:396:5
	lsls	r1, r1, #29
	bmi	.LBB4_8
.Ltmp68:
@ %bb.6:                                @   in Loop: Header=BB4_5 Depth=1
	@DEBUG_VALUE: HAL_RTC_DeInit:tickstart <- $r5
	@DEBUG_VALUE: HAL_RTC_DeInit:hrtc <- $r4
	.loc	6 398 11 is_stmt 1              @ ../Libraries/STM32F4xx_HAL_Driver/Src/stm32f4xx_hal_rtc.c:398:11
	bl	HAL_GetTick
.Ltmp69:
	.loc	6 398 25 is_stmt 0              @ ../Libraries/STM32F4xx_HAL_Driver/Src/stm32f4xx_hal_rtc.c:398:25
	subs	r0, r0, r5
.Ltmp70:
	.loc	6 398 10                        @ ../Libraries/STM32F4xx_HAL_Driver/Src/stm32f4xx_hal_rtc.c:398:10
	cmp.w	r0, #1000
	bls	.LBB4_5
.Ltmp71:
@ %bb.7:
	@DEBUG_VALUE: HAL_RTC_DeInit:tickstart <- $r5
	@DEBUG_VALUE: HAL_RTC_DeInit:hrtc <- $r4
	.loc	6 401 9 is_stmt 1               @ ../Libraries/STM32F4xx_HAL_Driver/Src/stm32f4xx_hal_rtc.c:401:9
	ldr	r0, [r4]
	movs	r1, #255
	movs	r5, #3
.Ltmp72:
	str	r1, [r0, #36]
.Ltmp73:
	.loc	6 466 1                         @ ../Libraries/STM32F4xx_HAL_Driver/Src/stm32f4xx_hal_rtc.c:466:1
	mov	r0, r5
.Ltmp74:
	.loc	6 404 21                        @ ../Libraries/STM32F4xx_HAL_Driver/Src/stm32f4xx_hal_rtc.c:404:21
	strb	r5, [r4, #29]
.Ltmp75:
	.loc	6 466 1                         @ ../Libraries/STM32F4xx_HAL_Driver/Src/stm32f4xx_hal_rtc.c:466:1
	pop	{r4, r5, r6, pc}
.Ltmp76:
.LBB4_8:
	@DEBUG_VALUE: HAL_RTC_DeInit:tickstart <- $r5
	@DEBUG_VALUE: HAL_RTC_DeInit:hrtc <- $r4
	.loc	6 411 24                        @ ../Libraries/STM32F4xx_HAL_Driver/Src/stm32f4xx_hal_rtc.c:411:24
	ldr	r1, [r0, #8]
	movs	r5, #0
.Ltmp77:
	.loc	6 0 24 is_stmt 0                @ ../Libraries/STM32F4xx_HAL_Driver/Src/stm32f4xx_hal_rtc.c:0:24
	movw	r1, #65535
	.loc	6 411 24                        @ ../Libraries/STM32F4xx_HAL_Driver/Src/stm32f4xx_hal_rtc.c:411:24
	str	r5, [r0, #8]
	.loc	6 412 26 is_stmt 1              @ ../Libraries/STM32F4xx_HAL_Driver/Src/stm32f4xx_hal_rtc.c:412:26
	str	r1, [r0, #20]
	movs	r1, #255
	movt	r1, #127
	.loc	6 413 26                        @ ../Libraries/STM32F4xx_HAL_Driver/Src/stm32f4xx_hal_rtc.c:413:26
	str	r1, [r0, #16]
	.loc	6 414 28                        @ ../Libraries/STM32F4xx_HAL_Driver/Src/stm32f4xx_hal_rtc.c:414:28
	str	r5, [r0, #24]
	.loc	6 415 28                        @ ../Libraries/STM32F4xx_HAL_Driver/Src/stm32f4xx_hal_rtc.c:415:28
	str	r5, [r0, #28]
	.loc	6 416 28                        @ ../Libraries/STM32F4xx_HAL_Driver/Src/stm32f4xx_hal_rtc.c:416:28
	str	r5, [r0, #32]
	.loc	6 417 28                        @ ../Libraries/STM32F4xx_HAL_Driver/Src/stm32f4xx_hal_rtc.c:417:28
	str	r5, [r0, #44]
	.loc	6 418 26                        @ ../Libraries/STM32F4xx_HAL_Driver/Src/stm32f4xx_hal_rtc.c:418:26
	str	r5, [r0, #60]
	.loc	6 419 30                        @ ../Libraries/STM32F4xx_HAL_Driver/Src/stm32f4xx_hal_rtc.c:419:30
	str	r5, [r0, #68]
	.loc	6 420 30                        @ ../Libraries/STM32F4xx_HAL_Driver/Src/stm32f4xx_hal_rtc.c:420:30
	str	r5, [r0, #72]
	.loc	6 423 25                        @ ../Libraries/STM32F4xx_HAL_Driver/Src/stm32f4xx_hal_rtc.c:423:25
	str	r5, [r0, #12]
	.loc	6 426 27                        @ ../Libraries/STM32F4xx_HAL_Driver/Src/stm32f4xx_hal_rtc.c:426:27
	str	r5, [r0, #64]
.Ltmp78:
	.loc	6 429 25                        @ ../Libraries/STM32F4xx_HAL_Driver/Src/stm32f4xx_hal_rtc.c:429:25
	ldr	r1, [r0, #8]
.Ltmp79:
	.loc	6 429 8 is_stmt 0               @ ../Libraries/STM32F4xx_HAL_Driver/Src/stm32f4xx_hal_rtc.c:429:8
	lsls	r1, r1, #26
	bmi	.LBB4_13
.Ltmp80:
@ %bb.9:
	@DEBUG_VALUE: HAL_RTC_DeInit:hrtc <- $r4
	@DEBUG_VALUE: HAL_RTC_WaitForSynchro:hrtc <- $r4
	@DEBUG_VALUE: HAL_RTC_WaitForSynchro:tickstart <- 0
	.loc	6 1714 23 is_stmt 1             @ ../Libraries/STM32F4xx_HAL_Driver/Src/stm32f4xx_hal_rtc.c:1714:23
	ldr	r1, [r0, #12]
	bic	r1, r1, #160
	str	r1, [r0, #12]
	.loc	6 1717 17                       @ ../Libraries/STM32F4xx_HAL_Driver/Src/stm32f4xx_hal_rtc.c:1717:17
	bl	HAL_GetTick
.Ltmp81:
	mov	r6, r0
.Ltmp82:
	@DEBUG_VALUE: HAL_RTC_WaitForSynchro:tickstart <- $r6
	.p2align	2
.LBB4_10:                               @ =>This Inner Loop Header: Depth=1
	@DEBUG_VALUE: HAL_RTC_WaitForSynchro:tickstart <- $r6
	@DEBUG_VALUE: HAL_RTC_WaitForSynchro:hrtc <- $r4
	@DEBUG_VALUE: HAL_RTC_DeInit:hrtc <- $r4
	.loc	6 1720 16                       @ ../Libraries/STM32F4xx_HAL_Driver/Src/stm32f4xx_hal_rtc.c:1720:16
	ldr	r0, [r4]
	.loc	6 1720 26 is_stmt 0             @ ../Libraries/STM32F4xx_HAL_Driver/Src/stm32f4xx_hal_rtc.c:1720:26
	ldr	r1, [r0, #12]
	.loc	6 1720 3                        @ ../Libraries/STM32F4xx_HAL_Driver/Src/stm32f4xx_hal_rtc.c:1720:3
	lsls	r1, r1, #26
	bmi	.LBB4_13
.Ltmp83:
@ %bb.11:                               @   in Loop: Header=BB4_10 Depth=1
	@DEBUG_VALUE: HAL_RTC_WaitForSynchro:tickstart <- $r6
	@DEBUG_VALUE: HAL_RTC_WaitForSynchro:hrtc <- $r4
	@DEBUG_VALUE: HAL_RTC_DeInit:hrtc <- $r4
	.loc	6 1722 9 is_stmt 1              @ ../Libraries/STM32F4xx_HAL_Driver/Src/stm32f4xx_hal_rtc.c:1722:9
	bl	HAL_GetTick
.Ltmp84:
	.loc	6 1722 23 is_stmt 0             @ ../Libraries/STM32F4xx_HAL_Driver/Src/stm32f4xx_hal_rtc.c:1722:23
	subs	r0, r0, r6
.Ltmp85:
	.loc	6 1722 8                        @ ../Libraries/STM32F4xx_HAL_Driver/Src/stm32f4xx_hal_rtc.c:1722:8
	cmp.w	r0, #1000
	bls	.LBB4_10
.Ltmp86:
.LBB4_12:
	@DEBUG_VALUE: HAL_RTC_DeInit:hrtc <- $r4
	.loc	6 0 0                           @ ../Libraries/STM32F4xx_HAL_Driver/Src/stm32f4xx_hal_rtc.c:0:0
	ldr	r0, [r4]
	movs	r1, #255
	str	r1, [r0, #36]
	movs	r0, #4
	strb	r0, [r4, #29]
	movs	r0, #1
.Ltmp87:
	.loc	6 466 1 is_stmt 1               @ ../Libraries/STM32F4xx_HAL_Driver/Src/stm32f4xx_hal_rtc.c:466:1
	pop	{r4, r5, r6, pc}
.Ltmp88:
.LBB4_13:
	@DEBUG_VALUE: HAL_RTC_DeInit:hrtc <- $r4
	.loc	6 0 1 is_stmt 0                 @ ../Libraries/STM32F4xx_HAL_Driver/Src/stm32f4xx_hal_rtc.c:0:1
	movs	r1, #255
.Ltmp89:
	.loc	6 444 3 is_stmt 1               @ ../Libraries/STM32F4xx_HAL_Driver/Src/stm32f4xx_hal_rtc.c:444:3
	str	r1, [r0, #36]
.Ltmp90:
	.loc	6 457 3                         @ ../Libraries/STM32F4xx_HAL_Driver/Src/stm32f4xx_hal_rtc.c:457:3
	mov	r0, r4
	bl	HAL_RTC_MspDeInit
.Ltmp91:
	.loc	6 466 1                         @ ../Libraries/STM32F4xx_HAL_Driver/Src/stm32f4xx_hal_rtc.c:466:1
	mov	r0, r5
	.loc	6 460 15                        @ ../Libraries/STM32F4xx_HAL_Driver/Src/stm32f4xx_hal_rtc.c:460:15
	strb	r5, [r4, #29]
.Ltmp92:
	.loc	6 463 3                         @ ../Libraries/STM32F4xx_HAL_Driver/Src/stm32f4xx_hal_rtc.c:463:3
	strb	r5, [r4, #28]
.Ltmp93:
	.loc	6 466 1                         @ ../Libraries/STM32F4xx_HAL_Driver/Src/stm32f4xx_hal_rtc.c:466:1
	pop	{r4, r5, r6, pc}
.Ltmp94:
.Lfunc_end4:
	.size	HAL_RTC_DeInit, .Lfunc_end4-HAL_RTC_DeInit
	.cfi_endproc
	.cantunwind
	.fnend
                                        @ -- End function
	.section	.text.HAL_RTC_MspDeInit,"ax",%progbits
	.hidden	HAL_RTC_MspDeInit               @ -- Begin function HAL_RTC_MspDeInit
	.weak	HAL_RTC_MspDeInit
	.p2align	2
	.type	HAL_RTC_MspDeInit,%function
	.code	16                              @ @HAL_RTC_MspDeInit
	.thumb_func
HAL_RTC_MspDeInit:
.Lfunc_begin5:
	.loc	6 688 0                         @ ../Libraries/STM32F4xx_HAL_Driver/Src/stm32f4xx_hal_rtc.c:688:0
	.fnstart
	.cfi_startproc
@ %bb.0:
	@DEBUG_VALUE: HAL_RTC_MspDeInit:hrtc <- $r0
	.loc	6 694 1 prologue_end            @ ../Libraries/STM32F4xx_HAL_Driver/Src/stm32f4xx_hal_rtc.c:694:1
	bx	lr
.Ltmp95:
.Lfunc_end5:
	.size	HAL_RTC_MspDeInit, .Lfunc_end5-HAL_RTC_MspDeInit
	.cfi_endproc
	.cantunwind
	.fnend
                                        @ -- End function
	.section	.text.HAL_RTC_SetTime,"ax",%progbits
	.hidden	HAL_RTC_SetTime                 @ -- Begin function HAL_RTC_SetTime
	.globl	HAL_RTC_SetTime
	.p2align	2
	.type	HAL_RTC_SetTime,%function
	.code	16                              @ @HAL_RTC_SetTime
	.thumb_func
HAL_RTC_SetTime:
.Lfunc_begin6:
	.loc	6 726 0                         @ ../Libraries/STM32F4xx_HAL_Driver/Src/stm32f4xx_hal_rtc.c:726:0
	.fnstart
	.cfi_startproc
@ %bb.0:
	@DEBUG_VALUE: HAL_RTC_SetTime:hrtc <- $r0
	@DEBUG_VALUE: HAL_RTC_SetTime:sTime <- $r1
	@DEBUG_VALUE: HAL_RTC_SetTime:Format <- $r2
	.save	{r4, r5, r6, r7, r8, r9, r10, lr}
	push.w	{r4, r5, r6, r7, r8, r9, r10, lr}
	.cfi_def_cfa_offset 32
	.cfi_offset lr, -4
	.cfi_offset r10, -8
	.cfi_offset r9, -12
	.cfi_offset r8, -16
	.cfi_offset r7, -20
	.cfi_offset r6, -24
	.cfi_offset r5, -28
	.cfi_offset r4, -32
	mov	r4, r0
.Ltmp96:
	@DEBUG_VALUE: HAL_RTC_SetTime:tmpreg <- 0
	@DEBUG_VALUE: HAL_RTC_SetTime:hrtc <- $r4
	.loc	6 735 3 prologue_end            @ ../Libraries/STM32F4xx_HAL_Driver/Src/stm32f4xx_hal_rtc.c:735:3
	ldrb	r0, [r0, #28]
.Ltmp97:
	@DEBUG_VALUE: HAL_RTC_SetTime:sTime <- $r1
	.loc	6 735 3 is_stmt 0               @ ../Libraries/STM32F4xx_HAL_Driver/Src/stm32f4xx_hal_rtc.c:735:3
	cmp	r0, #1
	mov.w	r0, #2
.Ltmp98:
	.loc	6 836 1 is_stmt 1               @ ../Libraries/STM32F4xx_HAL_Driver/Src/stm32f4xx_hal_rtc.c:836:1
	it	eq
	popeq.w	{r4, r5, r6, r7, r8, r9, r10, pc}
.Ltmp99:
.LBB6_1:
	@DEBUG_VALUE: HAL_RTC_SetTime:tmpreg <- 0
	@DEBUG_VALUE: HAL_RTC_SetTime:Format <- $r2
	@DEBUG_VALUE: HAL_RTC_SetTime:sTime <- $r1
	.loc	6 0 1 is_stmt 0                 @ ../Libraries/STM32F4xx_HAL_Driver/Src/stm32f4xx_hal_rtc.c:0:1
	mov	r5, r1
.Ltmp100:
	@DEBUG_VALUE: HAL_RTC_SetTime:sTime <- $r5
	@DEBUG_VALUE: HAL_RTC_SetTime:sTime <- $r5
	movs	r1, #1
.Ltmp101:
	.loc	6 735 3 is_stmt 1               @ ../Libraries/STM32F4xx_HAL_Driver/Src/stm32f4xx_hal_rtc.c:735:3
	strb	r1, [r4, #28]
.Ltmp102:
	.loc	6 737 15                        @ ../Libraries/STM32F4xx_HAL_Driver/Src/stm32f4xx_hal_rtc.c:737:15
	strb	r0, [r4, #29]
.Ltmp103:
	.loc	6 0 0 is_stmt 0                 @ ../Libraries/STM32F4xx_HAL_Driver/Src/stm32f4xx_hal_rtc.c:0:0
	ldr	r1, [r4]
	ldr	r0, [r1, #8]
	and	r0, r0, #64
.Ltmp104:
	.loc	6 739 6 is_stmt 1               @ ../Libraries/STM32F4xx_HAL_Driver/Src/stm32f4xx_hal_rtc.c:739:6
	cbz	r2, .LBB6_4
.Ltmp105:
@ %bb.2:
	@DEBUG_VALUE: HAL_RTC_SetTime:sTime <- $r5
	@DEBUG_VALUE: HAL_RTC_SetTime:tmpreg <- 0
	@DEBUG_VALUE: HAL_RTC_SetTime:Format <- $r2
	.loc	6 761 8                         @ ../Libraries/STM32F4xx_HAL_Driver/Src/stm32f4xx_hal_rtc.c:761:8
	cbnz	r0, .LBB6_6
.Ltmp106:
@ %bb.3:
	@DEBUG_VALUE: HAL_RTC_SetTime:sTime <- $r5
	@DEBUG_VALUE: HAL_RTC_SetTime:tmpreg <- 0
	@DEBUG_VALUE: HAL_RTC_SetTime:Format <- $r2
	.loc	6 0 8 is_stmt 0                 @ ../Libraries/STM32F4xx_HAL_Driver/Src/stm32f4xx_hal_rtc.c:0:8
	mov.w	r8, #0
.Ltmp107:
	.loc	6 768 25 is_stmt 1              @ ../Libraries/STM32F4xx_HAL_Driver/Src/stm32f4xx_hal_rtc.c:768:25
	strb.w	r8, [r5, #3]
	b	.LBB6_7
.Ltmp108:
.LBB6_4:
	@DEBUG_VALUE: HAL_RTC_SetTime:sTime <- $r5
	@DEBUG_VALUE: HAL_RTC_SetTime:tmpreg <- 0
	@DEBUG_VALUE: HAL_RTC_SetTime:Format <- $r2
	.loc	6 741 8                         @ ../Libraries/STM32F4xx_HAL_Driver/Src/stm32f4xx_hal_rtc.c:741:8
	cbnz	r0, .LBB6_8
.Ltmp109:
@ %bb.5:
	@DEBUG_VALUE: HAL_RTC_SetTime:sTime <- $r5
	@DEBUG_VALUE: HAL_RTC_SetTime:tmpreg <- 0
	@DEBUG_VALUE: HAL_RTC_SetTime:Format <- $r2
	.loc	6 0 8 is_stmt 0                 @ ../Libraries/STM32F4xx_HAL_Driver/Src/stm32f4xx_hal_rtc.c:0:8
	mov.w	r8, #0
.Ltmp110:
	.loc	6 748 25 is_stmt 1              @ ../Libraries/STM32F4xx_HAL_Driver/Src/stm32f4xx_hal_rtc.c:748:25
	strb.w	r8, [r5, #3]
	b	.LBB6_9
.Ltmp111:
.LBB6_6:
	@DEBUG_VALUE: HAL_RTC_SetTime:sTime <- $r5
	@DEBUG_VALUE: HAL_RTC_SetTime:tmpreg <- 0
	@DEBUG_VALUE: HAL_RTC_SetTime:Format <- $r2
	.loc	6 776 34                        @ ../Libraries/STM32F4xx_HAL_Driver/Src/stm32f4xx_hal_rtc.c:776:34
	ldrb	r0, [r5, #3]
	.loc	6 761 8                         @ ../Libraries/STM32F4xx_HAL_Driver/Src/stm32f4xx_hal_rtc.c:761:8
	lsl.w	r8, r0, #16
.Ltmp112:
.LBB6_7:
	@DEBUG_VALUE: HAL_RTC_SetTime:sTime <- $r5
	@DEBUG_VALUE: HAL_RTC_SetTime:tmpreg <- 0
	@DEBUG_VALUE: HAL_RTC_SetTime:Format <- $r2
	.loc	6 774 34                        @ ../Libraries/STM32F4xx_HAL_Driver/Src/stm32f4xx_hal_rtc.c:774:34
	ldrb	r2, [r5, #1]
.Ltmp113:
	@DEBUG_VALUE: HAL_RTC_SetTime:Format <- [DW_OP_LLVM_entry_value 1] $r2
	.loc	6 773 34                        @ ../Libraries/STM32F4xx_HAL_Driver/Src/stm32f4xx_hal_rtc.c:773:34
	ldrb	r0, [r5]
	.loc	6 775 33                        @ ../Libraries/STM32F4xx_HAL_Driver/Src/stm32f4xx_hal_rtc.c:775:33
	ldrb.w	r10, [r5, #2]
	.loc	6 774 43                        @ ../Libraries/STM32F4xx_HAL_Driver/Src/stm32f4xx_hal_rtc.c:774:43
	lsls	r2, r2, #8
	.loc	6 773 49                        @ ../Libraries/STM32F4xx_HAL_Driver/Src/stm32f4xx_hal_rtc.c:773:49
	orr.w	r9, r2, r0, lsl #16
.Ltmp114:
	@DEBUG_VALUE: HAL_RTC_SetTime:tmpreg <- undef
	.loc	6 0 49 is_stmt 0                @ ../Libraries/STM32F4xx_HAL_Driver/Src/stm32f4xx_hal_rtc.c:0:49
	b	.LBB6_10
.Ltmp115:
.LBB6_8:
	@DEBUG_VALUE: HAL_RTC_SetTime:sTime <- $r5
	@DEBUG_VALUE: HAL_RTC_SetTime:tmpreg <- 0
	@DEBUG_VALUE: HAL_RTC_SetTime:Format <- $r2
	.loc	6 757 44 is_stmt 1              @ ../Libraries/STM32F4xx_HAL_Driver/Src/stm32f4xx_hal_rtc.c:757:44
	ldrb	r0, [r5, #3]
	.loc	6 741 8                         @ ../Libraries/STM32F4xx_HAL_Driver/Src/stm32f4xx_hal_rtc.c:741:8
	lsl.w	r8, r0, #16
.Ltmp116:
.LBB6_9:
	@DEBUG_VALUE: HAL_RTC_SetTime:sTime <- $r5
	@DEBUG_VALUE: HAL_RTC_SetTime:tmpreg <- 0
	@DEBUG_VALUE: HAL_RTC_SetTime:Format <- $r2
	.loc	6 754 58                        @ ../Libraries/STM32F4xx_HAL_Driver/Src/stm32f4xx_hal_rtc.c:754:58
	ldrb	r0, [r5]
	mov.w	r12, #205
.Ltmp117:
	.loc	6 1874 3                        @ ../Libraries/STM32F4xx_HAL_Driver/Src/stm32f4xx_hal_rtc.c:1874:3
	sub.w	r3, r0, #10
	uxtb	r6, r3
	mul	r6, r6, r12
	lsrs	r7, r6, #11
.Ltmp118:
	.loc	6 755 58                        @ ../Libraries/STM32F4xx_HAL_Driver/Src/stm32f4xx_hal_rtc.c:755:58
	ldrb	r2, [r5, #1]
.Ltmp119:
	@DEBUG_VALUE: HAL_RTC_SetTime:Format <- [DW_OP_LLVM_entry_value 1] $r2
	.loc	6 0 58 is_stmt 0                @ ../Libraries/STM32F4xx_HAL_Driver/Src/stm32f4xx_hal_rtc.c:0:58
	add.w	r7, r7, r7, lsl #2
	sub.w	r3, r3, r7, lsl #1
	mov.w	lr, #1
	.loc	6 756 58 is_stmt 1              @ ../Libraries/STM32F4xx_HAL_Driver/Src/stm32f4xx_hal_rtc.c:756:58
	ldrb.w	r10, [r5, #2]
.Ltmp120:
	@DEBUG_VALUE: RTC_ByteToBcd2:bcdhigh <- 0
	@DEBUG_VALUE: RTC_ByteToBcd2:Value <- $r0
	.loc	6 1874 3                        @ ../Libraries/STM32F4xx_HAL_Driver/Src/stm32f4xx_hal_rtc.c:1874:3
	add.w	r6, lr, r6, lsr #11
	.loc	6 1880 11                       @ ../Libraries/STM32F4xx_HAL_Driver/Src/stm32f4xx_hal_rtc.c:1880:11
	cmp	r0, #9
	it	hi
	orrhi.w	r0, r3, r6, lsl #4
.Ltmp121:
	.loc	6 1874 3                        @ ../Libraries/STM32F4xx_HAL_Driver/Src/stm32f4xx_hal_rtc.c:1874:3
	sub.w	r3, r2, #10
	uxtb	r6, r3
	mul	r6, r6, r12
	lsrs	r7, r6, #11
	add.w	r7, r7, r7, lsl #2
	sub.w	r3, r3, r7, lsl #1
	add.w	r6, lr, r6, lsr #11
	.loc	6 1880 11                       @ ../Libraries/STM32F4xx_HAL_Driver/Src/stm32f4xx_hal_rtc.c:1880:11
	cmp	r2, #9
	it	hi
	orrhi.w	r2, r3, r6, lsl #4
.Ltmp122:
	.loc	6 755 26                        @ ../Libraries/STM32F4xx_HAL_Driver/Src/stm32f4xx_hal_rtc.c:755:26
	uxtb	r2, r2
	.loc	6 754 26                        @ ../Libraries/STM32F4xx_HAL_Driver/Src/stm32f4xx_hal_rtc.c:754:26
	uxtb	r0, r0
	@DEBUG_VALUE: RTC_ByteToBcd2:bcdhigh <- 0
	@DEBUG_VALUE: RTC_ByteToBcd2:Value <- $r2
	.loc	6 755 67                        @ ../Libraries/STM32F4xx_HAL_Driver/Src/stm32f4xx_hal_rtc.c:755:67
	lsls	r2, r2, #8
	.loc	6 754 73                        @ ../Libraries/STM32F4xx_HAL_Driver/Src/stm32f4xx_hal_rtc.c:754:73
	orr.w	r9, r2, r0, lsl #16
.Ltmp123:
	@DEBUG_VALUE: RTC_ByteToBcd2:bcdhigh <- 0
	@DEBUG_VALUE: RTC_ByteToBcd2:Value <- $r10
	.loc	6 1874 3                        @ ../Libraries/STM32F4xx_HAL_Driver/Src/stm32f4xx_hal_rtc.c:1874:3
	sub.w	r0, r10, #10
	uxtb	r2, r0
	mul	r2, r2, r12
	lsrs	r3, r2, #11
	add.w	r3, r3, r3, lsl #2
	sub.w	r0, r0, r3, lsl #1
	add.w	r2, lr, r2, lsr #11
	.loc	6 1880 11                       @ ../Libraries/STM32F4xx_HAL_Driver/Src/stm32f4xx_hal_rtc.c:1880:11
	cmp.w	r10, #9
	it	hi
	orrhi.w	r10, r0, r2, lsl #4
.Ltmp124:
.LBB6_10:
	@DEBUG_VALUE: HAL_RTC_SetTime:Format <- [DW_OP_LLVM_entry_value 1] $r2
	@DEBUG_VALUE: HAL_RTC_SetTime:sTime <- $r5
	@DEBUG_VALUE: HAL_RTC_SetTime:tmpreg <- undef
	.loc	6 0 11 is_stmt 0                @ ../Libraries/STM32F4xx_HAL_Driver/Src/stm32f4xx_hal_rtc.c:0:11
	movs	r0, #202
.Ltmp125:
	.loc	6 780 3 is_stmt 1               @ ../Libraries/STM32F4xx_HAL_Driver/Src/stm32f4xx_hal_rtc.c:780:3
	str	r0, [r1, #36]
	movs	r0, #83
	str	r0, [r1, #36]
.Ltmp126:
	@DEBUG_VALUE: RTC_EnterInitMode:tickstart <- 0
	@DEBUG_VALUE: RTC_EnterInitMode:hrtc <- $r4
	.loc	6 1843 23                       @ ../Libraries/STM32F4xx_HAL_Driver/Src/stm32f4xx_hal_rtc.c:1843:23
	ldr	r0, [r1, #12]
.Ltmp127:
	.loc	6 1843 6 is_stmt 0              @ ../Libraries/STM32F4xx_HAL_Driver/Src/stm32f4xx_hal_rtc.c:1843:6
	lsls	r0, r0, #25
	bmi	.LBB6_14
.Ltmp128:
@ %bb.11:
	@DEBUG_VALUE: RTC_EnterInitMode:hrtc <- $r4
	@DEBUG_VALUE: RTC_EnterInitMode:tickstart <- 0
	@DEBUG_VALUE: HAL_RTC_SetTime:Format <- [DW_OP_LLVM_entry_value 1] $r2
	@DEBUG_VALUE: HAL_RTC_SetTime:sTime <- $r5
	.loc	6 0 6                           @ ../Libraries/STM32F4xx_HAL_Driver/Src/stm32f4xx_hal_rtc.c:0:6
	mov.w	r0, #-1
.Ltmp129:
	.loc	6 1846 25 is_stmt 1             @ ../Libraries/STM32F4xx_HAL_Driver/Src/stm32f4xx_hal_rtc.c:1846:25
	str	r0, [r1, #12]
	.loc	6 1849 17                       @ ../Libraries/STM32F4xx_HAL_Driver/Src/stm32f4xx_hal_rtc.c:1849:17
	bl	HAL_GetTick
.Ltmp130:
	mov	r6, r0
.Ltmp131:
	@DEBUG_VALUE: RTC_EnterInitMode:tickstart <- $r6
	.p2align	2
.LBB6_12:                               @ =>This Inner Loop Header: Depth=1
	@DEBUG_VALUE: RTC_EnterInitMode:tickstart <- $r6
	@DEBUG_VALUE: RTC_EnterInitMode:hrtc <- $r4
	@DEBUG_VALUE: HAL_RTC_SetTime:Format <- [DW_OP_LLVM_entry_value 1] $r2
	@DEBUG_VALUE: HAL_RTC_SetTime:sTime <- $r5
	.loc	6 1852 18                       @ ../Libraries/STM32F4xx_HAL_Driver/Src/stm32f4xx_hal_rtc.c:1852:18
	ldr	r1, [r4]
	.loc	6 1852 28 is_stmt 0             @ ../Libraries/STM32F4xx_HAL_Driver/Src/stm32f4xx_hal_rtc.c:1852:28
	ldr	r0, [r1, #12]
	.loc	6 1852 5                        @ ../Libraries/STM32F4xx_HAL_Driver/Src/stm32f4xx_hal_rtc.c:1852:5
	lsls	r0, r0, #25
	bmi	.LBB6_14
.Ltmp132:
@ %bb.13:                               @   in Loop: Header=BB6_12 Depth=1
	@DEBUG_VALUE: RTC_EnterInitMode:tickstart <- $r6
	@DEBUG_VALUE: RTC_EnterInitMode:hrtc <- $r4
	@DEBUG_VALUE: HAL_RTC_SetTime:Format <- [DW_OP_LLVM_entry_value 1] $r2
	@DEBUG_VALUE: HAL_RTC_SetTime:sTime <- $r5
	.loc	6 1854 11 is_stmt 1             @ ../Libraries/STM32F4xx_HAL_Driver/Src/stm32f4xx_hal_rtc.c:1854:11
	bl	HAL_GetTick
.Ltmp133:
	.loc	6 1854 25 is_stmt 0             @ ../Libraries/STM32F4xx_HAL_Driver/Src/stm32f4xx_hal_rtc.c:1854:25
	subs	r0, r0, r6
.Ltmp134:
	.loc	6 1854 10                       @ ../Libraries/STM32F4xx_HAL_Driver/Src/stm32f4xx_hal_rtc.c:1854:10
	cmp.w	r0, #1000
	bls	.LBB6_12
	b	.LBB6_18
.Ltmp135:
.LBB6_14:
	@DEBUG_VALUE: HAL_RTC_SetTime:Format <- [DW_OP_LLVM_entry_value 1] $r2
	@DEBUG_VALUE: HAL_RTC_SetTime:sTime <- $r5
	.loc	6 0 10                          @ ../Libraries/STM32F4xx_HAL_Driver/Src/stm32f4xx_hal_rtc.c:0:10
	uxtb.w	r0, r10
	orr.w	r0, r0, r9
	movw	r2, #32639
	orr.w	r0, r0, r8
.Ltmp136:
	@DEBUG_VALUE: HAL_RTC_SetTime:tmpreg <- $r0
	movt	r2, #127
.Ltmp137:
	.loc	6 799 44 is_stmt 1              @ ../Libraries/STM32F4xx_HAL_Driver/Src/stm32f4xx_hal_rtc.c:799:44
	ands	r0, r2
.Ltmp138:
	.loc	6 799 24 is_stmt 0              @ ../Libraries/STM32F4xx_HAL_Driver/Src/stm32f4xx_hal_rtc.c:799:24
	str	r0, [r1]
	.loc	6 802 24 is_stmt 1              @ ../Libraries/STM32F4xx_HAL_Driver/Src/stm32f4xx_hal_rtc.c:802:24
	ldr	r0, [r1, #8]
	bic	r0, r0, #262144
	str	r0, [r1, #8]
	.loc	6 805 45                        @ ../Libraries/STM32F4xx_HAL_Driver/Src/stm32f4xx_hal_rtc.c:805:45
	ldrd	r0, r2, [r5, #12]
	.loc	6 805 24 is_stmt 0              @ ../Libraries/STM32F4xx_HAL_Driver/Src/stm32f4xx_hal_rtc.c:805:24
	ldr	r3, [r1, #8]
	.loc	6 805 60                        @ ../Libraries/STM32F4xx_HAL_Driver/Src/stm32f4xx_hal_rtc.c:805:60
	orrs	r0, r2
	.loc	6 805 24                        @ ../Libraries/STM32F4xx_HAL_Driver/Src/stm32f4xx_hal_rtc.c:805:24
	orrs	r0, r3
	str	r0, [r1, #8]
	.loc	6 808 25 is_stmt 1              @ ../Libraries/STM32F4xx_HAL_Driver/Src/stm32f4xx_hal_rtc.c:808:25
	ldr	r0, [r1, #12]
	bic	r0, r0, #128
	str	r0, [r1, #12]
.Ltmp139:
	.loc	6 811 25                        @ ../Libraries/STM32F4xx_HAL_Driver/Src/stm32f4xx_hal_rtc.c:811:25
	ldr	r0, [r1, #8]
.Ltmp140:
	.loc	6 811 8 is_stmt 0               @ ../Libraries/STM32F4xx_HAL_Driver/Src/stm32f4xx_hal_rtc.c:811:8
	lsls	r0, r0, #26
	bmi	.LBB6_19
.Ltmp141:
@ %bb.15:
	@DEBUG_VALUE: HAL_RTC_SetTime:Format <- [DW_OP_LLVM_entry_value 1] $r2
	@DEBUG_VALUE: HAL_RTC_SetTime:sTime <- $r5
	@DEBUG_VALUE: HAL_RTC_WaitForSynchro:hrtc <- $r4
	@DEBUG_VALUE: HAL_RTC_WaitForSynchro:tickstart <- 0
	.loc	6 1714 23 is_stmt 1             @ ../Libraries/STM32F4xx_HAL_Driver/Src/stm32f4xx_hal_rtc.c:1714:23
	ldr	r0, [r1, #12]
	bic	r0, r0, #160
	str	r0, [r1, #12]
	.loc	6 1717 17                       @ ../Libraries/STM32F4xx_HAL_Driver/Src/stm32f4xx_hal_rtc.c:1717:17
	bl	HAL_GetTick
.Ltmp142:
	mov	r5, r0
.Ltmp143:
	@DEBUG_VALUE: HAL_RTC_WaitForSynchro:tickstart <- $r5
	.p2align	2
.LBB6_16:                               @ =>This Inner Loop Header: Depth=1
	@DEBUG_VALUE: HAL_RTC_WaitForSynchro:tickstart <- $r5
	@DEBUG_VALUE: HAL_RTC_WaitForSynchro:hrtc <- $r4
	@DEBUG_VALUE: HAL_RTC_SetTime:Format <- [DW_OP_LLVM_entry_value 1] $r2
	.loc	6 1720 16                       @ ../Libraries/STM32F4xx_HAL_Driver/Src/stm32f4xx_hal_rtc.c:1720:16
	ldr	r1, [r4]
	.loc	6 1720 26 is_stmt 0             @ ../Libraries/STM32F4xx_HAL_Driver/Src/stm32f4xx_hal_rtc.c:1720:26
	ldr	r0, [r1, #12]
	.loc	6 1720 3                        @ ../Libraries/STM32F4xx_HAL_Driver/Src/stm32f4xx_hal_rtc.c:1720:3
	lsls	r0, r0, #26
	bmi	.LBB6_19
.Ltmp144:
@ %bb.17:                               @   in Loop: Header=BB6_16 Depth=1
	@DEBUG_VALUE: HAL_RTC_WaitForSynchro:tickstart <- $r5
	@DEBUG_VALUE: HAL_RTC_WaitForSynchro:hrtc <- $r4
	@DEBUG_VALUE: HAL_RTC_SetTime:Format <- [DW_OP_LLVM_entry_value 1] $r2
	.loc	6 1722 9 is_stmt 1              @ ../Libraries/STM32F4xx_HAL_Driver/Src/stm32f4xx_hal_rtc.c:1722:9
	bl	HAL_GetTick
.Ltmp145:
	.loc	6 1722 23 is_stmt 0             @ ../Libraries/STM32F4xx_HAL_Driver/Src/stm32f4xx_hal_rtc.c:1722:23
	subs	r0, r0, r5
.Ltmp146:
	.loc	6 1722 8                        @ ../Libraries/STM32F4xx_HAL_Driver/Src/stm32f4xx_hal_rtc.c:1722:8
	cmp.w	r0, #1000
	bls	.LBB6_16
.Ltmp147:
.LBB6_18:
	@DEBUG_VALUE: HAL_RTC_SetTime:Format <- [DW_OP_LLVM_entry_value 1] $r2
	.loc	6 0 0                           @ ../Libraries/STM32F4xx_HAL_Driver/Src/stm32f4xx_hal_rtc.c:0:0
	ldr	r1, [r4]
	movs	r0, #1
	movs	r2, #4
	b	.LBB6_20
.Ltmp148:
.LBB6_19:
	@DEBUG_VALUE: HAL_RTC_SetTime:Format <- [DW_OP_LLVM_entry_value 1] $r2
	movs	r0, #0
	movs	r2, #1
.Ltmp149:
.LBB6_20:
	@DEBUG_VALUE: HAL_RTC_SetTime:Format <- [DW_OP_LLVM_entry_value 1] $r2
	movs	r3, #255
	str	r3, [r1, #36]
	movs	r1, #0
	strb	r2, [r4, #29]
	strb	r1, [r4, #28]
.Ltmp150:
	.loc	6 836 1 is_stmt 1               @ ../Libraries/STM32F4xx_HAL_Driver/Src/stm32f4xx_hal_rtc.c:836:1
	pop.w	{r4, r5, r6, r7, r8, r9, r10, pc}
.Ltmp151:
.Lfunc_end6:
	.size	HAL_RTC_SetTime, .Lfunc_end6-HAL_RTC_SetTime
	.cfi_endproc
	.cantunwind
	.fnend
                                        @ -- End function
	.section	.text.RTC_ByteToBcd2,"ax",%progbits
	.hidden	RTC_ByteToBcd2                  @ -- Begin function RTC_ByteToBcd2
	.globl	RTC_ByteToBcd2
	.p2align	2
	.type	RTC_ByteToBcd2,%function
	.code	16                              @ @RTC_ByteToBcd2
	.thumb_func
RTC_ByteToBcd2:
.Lfunc_begin7:
	.loc	6 1871 0                        @ ../Libraries/STM32F4xx_HAL_Driver/Src/stm32f4xx_hal_rtc.c:1871:0
	.fnstart
	.cfi_startproc
@ %bb.0:
	@DEBUG_VALUE: RTC_ByteToBcd2:Value <- $r0
	@DEBUG_VALUE: RTC_ByteToBcd2:bcdhigh <- 0
	.loc	6 1874 3 prologue_end           @ ../Libraries/STM32F4xx_HAL_Driver/Src/stm32f4xx_hal_rtc.c:1874:3
	sub.w	r1, r0, #10
	uxtb	r2, r1
	movs	r3, #205
	muls	r2, r3, r2
	lsrs	r3, r2, #11
	add.w	r3, r3, r3, lsl #2
	sub.w	r1, r1, r3, lsl #1
	movs	r3, #1
	add.w	r2, r3, r2, lsr #11
	.loc	6 1880 11                       @ ../Libraries/STM32F4xx_HAL_Driver/Src/stm32f4xx_hal_rtc.c:1880:11
	cmp	r0, #9
	it	hi
	orrhi.w	r0, r1, r2, lsl #4
.Ltmp152:
	@DEBUG_VALUE: RTC_ByteToBcd2:Value <- [DW_OP_LLVM_entry_value 1] $r0
	.loc	6 1880 3 is_stmt 0              @ ../Libraries/STM32F4xx_HAL_Driver/Src/stm32f4xx_hal_rtc.c:1880:3
	uxtb	r0, r0
	bx	lr
.Ltmp153:
.Lfunc_end7:
	.size	RTC_ByteToBcd2, .Lfunc_end7-RTC_ByteToBcd2
	.cfi_endproc
	.cantunwind
	.fnend
                                        @ -- End function
	.section	.text.HAL_RTC_GetTime,"ax",%progbits
	.hidden	HAL_RTC_GetTime                 @ -- Begin function HAL_RTC_GetTime
	.globl	HAL_RTC_GetTime
	.p2align	2
	.type	HAL_RTC_GetTime,%function
	.code	16                              @ @HAL_RTC_GetTime
	.thumb_func
HAL_RTC_GetTime:
.Lfunc_begin8:
	.loc	6 857 0 is_stmt 1               @ ../Libraries/STM32F4xx_HAL_Driver/Src/stm32f4xx_hal_rtc.c:857:0
	.fnstart
	.cfi_startproc
@ %bb.0:
	@DEBUG_VALUE: HAL_RTC_GetTime:hrtc <- $r0
	@DEBUG_VALUE: HAL_RTC_GetTime:sTime <- $r1
	@DEBUG_VALUE: HAL_RTC_GetTime:Format <- $r2
	.save	{r4, lr}
	push	{r4, lr}
	.cfi_def_cfa_offset 8
	.cfi_offset lr, -4
	.cfi_offset r4, -8
.Ltmp154:
	@DEBUG_VALUE: HAL_RTC_GetTime:tmpreg <- 0
	.loc	6 864 40 prologue_end           @ ../Libraries/STM32F4xx_HAL_Driver/Src/stm32f4xx_hal_rtc.c:864:40
	ldr	r0, [r0]
.Ltmp155:
	@DEBUG_VALUE: HAL_RTC_GetTime:hrtc <- [DW_OP_LLVM_entry_value 1] $r0
	.loc	6 0 40 is_stmt 0                @ ../Libraries/STM32F4xx_HAL_Driver/Src/stm32f4xx_hal_rtc.c:0:40
	movs	r4, #64
	.loc	6 864 50                        @ ../Libraries/STM32F4xx_HAL_Driver/Src/stm32f4xx_hal_rtc.c:864:50
	ldr	r3, [r0, #40]
	.loc	6 864 21                        @ ../Libraries/STM32F4xx_HAL_Driver/Src/stm32f4xx_hal_rtc.c:864:21
	str	r3, [r1, #4]
	.loc	6 867 54 is_stmt 1              @ ../Libraries/STM32F4xx_HAL_Driver/Src/stm32f4xx_hal_rtc.c:867:54
	ldr	r3, [r0, #16]
	.loc	6 867 59 is_stmt 0              @ ../Libraries/STM32F4xx_HAL_Driver/Src/stm32f4xx_hal_rtc.c:867:59
	bfc	r3, #15, #17
	.loc	6 867 25                        @ ../Libraries/STM32F4xx_HAL_Driver/Src/stm32f4xx_hal_rtc.c:867:25
	str	r3, [r1, #8]
	.loc	6 870 39 is_stmt 1              @ ../Libraries/STM32F4xx_HAL_Driver/Src/stm32f4xx_hal_rtc.c:870:39
	ldr	r0, [r0]
.Ltmp156:
	@DEBUG_VALUE: HAL_RTC_GetTime:tmpreg <- [DW_OP_constu 8355711, DW_OP_and, DW_OP_stack_value] $r0
	.loc	6 873 18                        @ ../Libraries/STM32F4xx_HAL_Driver/Src/stm32f4xx_hal_rtc.c:873:18
	ubfx	r3, r0, #16, #6
	.loc	6 874 20                        @ ../Libraries/STM32F4xx_HAL_Driver/Src/stm32f4xx_hal_rtc.c:874:20
	ubfx	lr, r0, #8, #7
	.loc	6 875 20                        @ ../Libraries/STM32F4xx_HAL_Driver/Src/stm32f4xx_hal_rtc.c:875:20
	and	r12, r0, #127
	.loc	6 876 23                        @ ../Libraries/STM32F4xx_HAL_Driver/Src/stm32f4xx_hal_rtc.c:876:23
	and.w	r4, r4, r0, lsr #16
	.loc	6 873 16                        @ ../Libraries/STM32F4xx_HAL_Driver/Src/stm32f4xx_hal_rtc.c:873:16
	strb	r3, [r1]
	.loc	6 874 18                        @ ../Libraries/STM32F4xx_HAL_Driver/Src/stm32f4xx_hal_rtc.c:874:18
	strb.w	lr, [r1, #1]
	.loc	6 875 18                        @ ../Libraries/STM32F4xx_HAL_Driver/Src/stm32f4xx_hal_rtc.c:875:18
	strb.w	r12, [r1, #2]
	.loc	6 876 21                        @ ../Libraries/STM32F4xx_HAL_Driver/Src/stm32f4xx_hal_rtc.c:876:21
	strb	r4, [r1, #3]
	.loc	6 879 6                         @ ../Libraries/STM32F4xx_HAL_Driver/Src/stm32f4xx_hal_rtc.c:879:6
	cbz	r2, .LBB8_2
.Ltmp157:
@ %bb.1:
	@DEBUG_VALUE: HAL_RTC_GetTime:tmpreg <- [DW_OP_constu 8355711, DW_OP_and, DW_OP_stack_value] $r0
	@DEBUG_VALUE: HAL_RTC_GetTime:hrtc <- [DW_OP_LLVM_entry_value 1] $r0
	@DEBUG_VALUE: HAL_RTC_GetTime:Format <- $r2
	@DEBUG_VALUE: HAL_RTC_GetTime:sTime <- $r1
	.loc	6 887 3                         @ ../Libraries/STM32F4xx_HAL_Driver/Src/stm32f4xx_hal_rtc.c:887:3
	movs	r0, #0
.Ltmp158:
	pop	{r4, pc}
.Ltmp159:
.LBB8_2:
	@DEBUG_VALUE: HAL_RTC_GetTime:tmpreg <- [DW_OP_constu 8355711, DW_OP_and, DW_OP_stack_value] $r0
	@DEBUG_VALUE: HAL_RTC_GetTime:hrtc <- [DW_OP_LLVM_entry_value 1] $r0
	@DEBUG_VALUE: HAL_RTC_GetTime:Format <- $r2
	@DEBUG_VALUE: HAL_RTC_GetTime:sTime <- $r1
	.loc	6 0 0 is_stmt 0                 @ ../Libraries/STM32F4xx_HAL_Driver/Src/stm32f4xx_hal_rtc.c:0:0
	lsrs	r2, r0, #16
.Ltmp160:
	@DEBUG_VALUE: HAL_RTC_GetTime:Format <- [DW_OP_LLVM_entry_value 1] $r2
	.loc	6 1891 43 is_stmt 1             @ ../Libraries/STM32F4xx_HAL_Driver/Src/stm32f4xx_hal_rtc.c:1891:43
	lsrs	r3, r3, #4
	.loc	6 1891 60 is_stmt 0             @ ../Libraries/STM32F4xx_HAL_Driver/Src/stm32f4xx_hal_rtc.c:1891:60
	orr.w	r3, r3, r3, lsl #2
.Ltmp161:
	@DEBUG_VALUE: RTC_Bcd2ToByte:tmp <- [DW_OP_LLVM_convert 8 7, DW_OP_LLVM_convert 32 7, DW_OP_stack_value] undef
	.loc	6 1892 24 is_stmt 1             @ ../Libraries/STM32F4xx_HAL_Driver/Src/stm32f4xx_hal_rtc.c:1892:24
	and	r2, r2, #15
	.loc	6 1892 15 is_stmt 0             @ ../Libraries/STM32F4xx_HAL_Driver/Src/stm32f4xx_hal_rtc.c:1892:15
	add.w	r2, r2, r3, lsl #1
.Ltmp162:
	.loc	6 0 0                           @ ../Libraries/STM32F4xx_HAL_Driver/Src/stm32f4xx_hal_rtc.c:0:0
	lsrs	r4, r0, #8
.Ltmp163:
	@DEBUG_VALUE: RTC_Bcd2ToByte:tmp <- 0
	@DEBUG_VALUE: RTC_Bcd2ToByte:Value <- $r3
	.loc	6 882 18 is_stmt 1              @ ../Libraries/STM32F4xx_HAL_Driver/Src/stm32f4xx_hal_rtc.c:882:18
	strb	r2, [r1]
.Ltmp164:
	@DEBUG_VALUE: RTC_Bcd2ToByte:tmp <- 0
	@DEBUG_VALUE: RTC_Bcd2ToByte:Value <- $lr
	.loc	6 1891 43                       @ ../Libraries/STM32F4xx_HAL_Driver/Src/stm32f4xx_hal_rtc.c:1891:43
	lsr.w	r2, lr, #4
	.loc	6 1891 60 is_stmt 0             @ ../Libraries/STM32F4xx_HAL_Driver/Src/stm32f4xx_hal_rtc.c:1891:60
	add.w	r2, r2, r2, lsl #2
.Ltmp165:
	@DEBUG_VALUE: RTC_Bcd2ToByte:tmp <- [DW_OP_LLVM_convert 8 7, DW_OP_LLVM_convert 32 7, DW_OP_stack_value] undef
	.loc	6 1892 24 is_stmt 1             @ ../Libraries/STM32F4xx_HAL_Driver/Src/stm32f4xx_hal_rtc.c:1892:24
	and	r3, r4, #15
	.loc	6 1892 15 is_stmt 0             @ ../Libraries/STM32F4xx_HAL_Driver/Src/stm32f4xx_hal_rtc.c:1892:15
	add.w	r2, r3, r2, lsl #1
.Ltmp166:
	.loc	6 883 20 is_stmt 1              @ ../Libraries/STM32F4xx_HAL_Driver/Src/stm32f4xx_hal_rtc.c:883:20
	strb	r2, [r1, #1]
.Ltmp167:
	@DEBUG_VALUE: RTC_Bcd2ToByte:tmp <- 0
	@DEBUG_VALUE: RTC_Bcd2ToByte:Value <- $r12
	.loc	6 1891 43                       @ ../Libraries/STM32F4xx_HAL_Driver/Src/stm32f4xx_hal_rtc.c:1891:43
	lsr.w	r2, r12, #4
	.loc	6 1891 60 is_stmt 0             @ ../Libraries/STM32F4xx_HAL_Driver/Src/stm32f4xx_hal_rtc.c:1891:60
	add.w	r2, r2, r2, lsl #2
.Ltmp168:
	@DEBUG_VALUE: RTC_Bcd2ToByte:tmp <- [DW_OP_LLVM_convert 8 7, DW_OP_LLVM_convert 32 7, DW_OP_stack_value] undef
	.loc	6 1892 24 is_stmt 1             @ ../Libraries/STM32F4xx_HAL_Driver/Src/stm32f4xx_hal_rtc.c:1892:24
	and	r0, r0, #15
.Ltmp169:
	.loc	6 1892 15 is_stmt 0             @ ../Libraries/STM32F4xx_HAL_Driver/Src/stm32f4xx_hal_rtc.c:1892:15
	add.w	r0, r0, r2, lsl #1
.Ltmp170:
	.loc	6 884 20 is_stmt 1              @ ../Libraries/STM32F4xx_HAL_Driver/Src/stm32f4xx_hal_rtc.c:884:20
	strb	r0, [r1, #2]
.Ltmp171:
	.loc	6 887 3                         @ ../Libraries/STM32F4xx_HAL_Driver/Src/stm32f4xx_hal_rtc.c:887:3
	movs	r0, #0
	pop	{r4, pc}
.Ltmp172:
.Lfunc_end8:
	.size	HAL_RTC_GetTime, .Lfunc_end8-HAL_RTC_GetTime
	.cfi_endproc
	.cantunwind
	.fnend
                                        @ -- End function
	.section	.text.RTC_Bcd2ToByte,"ax",%progbits
	.hidden	RTC_Bcd2ToByte                  @ -- Begin function RTC_Bcd2ToByte
	.globl	RTC_Bcd2ToByte
	.p2align	2
	.type	RTC_Bcd2ToByte,%function
	.code	16                              @ @RTC_Bcd2ToByte
	.thumb_func
RTC_Bcd2ToByte:
.Lfunc_begin9:
	.loc	6 1889 0                        @ ../Libraries/STM32F4xx_HAL_Driver/Src/stm32f4xx_hal_rtc.c:1889:0
	.fnstart
	.cfi_startproc
@ %bb.0:
	@DEBUG_VALUE: RTC_Bcd2ToByte:Value <- $r0
	@DEBUG_VALUE: RTC_Bcd2ToByte:tmp <- 0
	.loc	6 1891 43 prologue_end          @ ../Libraries/STM32F4xx_HAL_Driver/Src/stm32f4xx_hal_rtc.c:1891:43
	lsrs	r1, r0, #4
	.loc	6 1891 60 is_stmt 0             @ ../Libraries/STM32F4xx_HAL_Driver/Src/stm32f4xx_hal_rtc.c:1891:60
	add.w	r1, r1, r1, lsl #2
.Ltmp173:
	@DEBUG_VALUE: RTC_Bcd2ToByte:tmp <- [DW_OP_LLVM_convert 8 7, DW_OP_LLVM_convert 32 7, DW_OP_stack_value] undef
	.loc	6 1892 24 is_stmt 1             @ ../Libraries/STM32F4xx_HAL_Driver/Src/stm32f4xx_hal_rtc.c:1892:24
	and	r0, r0, #15
.Ltmp174:
	@DEBUG_VALUE: RTC_Bcd2ToByte:Value <- [DW_OP_LLVM_entry_value 1] $r0
	.loc	6 1892 15 is_stmt 0             @ ../Libraries/STM32F4xx_HAL_Driver/Src/stm32f4xx_hal_rtc.c:1892:15
	add.w	r0, r0, r1, lsl #1
	.loc	6 1892 3                        @ ../Libraries/STM32F4xx_HAL_Driver/Src/stm32f4xx_hal_rtc.c:1892:3
	uxtb	r0, r0
	bx	lr
.Ltmp175:
.Lfunc_end9:
	.size	RTC_Bcd2ToByte, .Lfunc_end9-RTC_Bcd2ToByte
	.cfi_endproc
	.cantunwind
	.fnend
                                        @ -- End function
	.section	.text.HAL_RTC_SetDate,"ax",%progbits
	.hidden	HAL_RTC_SetDate                 @ -- Begin function HAL_RTC_SetDate
	.globl	HAL_RTC_SetDate
	.p2align	2
	.type	HAL_RTC_SetDate,%function
	.code	16                              @ @HAL_RTC_SetDate
	.thumb_func
HAL_RTC_SetDate:
.Lfunc_begin10:
	.loc	6 902 0 is_stmt 1               @ ../Libraries/STM32F4xx_HAL_Driver/Src/stm32f4xx_hal_rtc.c:902:0
	.fnstart
	.cfi_startproc
@ %bb.0:
	@DEBUG_VALUE: HAL_RTC_SetDate:hrtc <- $r0
	@DEBUG_VALUE: HAL_RTC_SetDate:sDate <- $r1
	@DEBUG_VALUE: HAL_RTC_SetDate:Format <- $r2
	.save	{r4, r5, r6, r7, r8, lr}
	push.w	{r4, r5, r6, r7, r8, lr}
	.cfi_def_cfa_offset 24
	.cfi_offset lr, -4
	.cfi_offset r8, -8
	.cfi_offset r7, -12
	.cfi_offset r6, -16
	.cfi_offset r5, -20
	.cfi_offset r4, -24
	mov	r4, r0
.Ltmp176:
	@DEBUG_VALUE: HAL_RTC_SetDate:datetmpreg <- 0
	@DEBUG_VALUE: HAL_RTC_SetDate:hrtc <- $r4
	.loc	6 909 2 prologue_end            @ ../Libraries/STM32F4xx_HAL_Driver/Src/stm32f4xx_hal_rtc.c:909:2
	ldrb	r0, [r0, #28]
.Ltmp177:
	.loc	6 909 2 is_stmt 0               @ ../Libraries/STM32F4xx_HAL_Driver/Src/stm32f4xx_hal_rtc.c:909:2
	cmp	r0, #1
	mov.w	r0, #2
.Ltmp178:
	.loc	6 995 1 is_stmt 1               @ ../Libraries/STM32F4xx_HAL_Driver/Src/stm32f4xx_hal_rtc.c:995:1
	it	eq
	popeq.w	{r4, r5, r6, r7, r8, pc}
.Ltmp179:
.LBB10_1:
	@DEBUG_VALUE: HAL_RTC_SetDate:datetmpreg <- 0
	@DEBUG_VALUE: HAL_RTC_SetDate:Format <- $r2
	@DEBUG_VALUE: HAL_RTC_SetDate:sDate <- $r1
	.loc	6 0 1 is_stmt 0                 @ ../Libraries/STM32F4xx_HAL_Driver/Src/stm32f4xx_hal_rtc.c:0:1
	movs	r3, #1
.Ltmp180:
	.loc	6 909 2 is_stmt 1               @ ../Libraries/STM32F4xx_HAL_Driver/Src/stm32f4xx_hal_rtc.c:909:2
	strb	r3, [r4, #28]
.Ltmp181:
	.loc	6 911 15                        @ ../Libraries/STM32F4xx_HAL_Driver/Src/stm32f4xx_hal_rtc.c:911:15
	strb	r0, [r4, #29]
.Ltmp182:
	.loc	6 913 33                        @ ../Libraries/STM32F4xx_HAL_Driver/Src/stm32f4xx_hal_rtc.c:913:33
	cbz	r2, .LBB10_3
.Ltmp183:
@ %bb.2:
	@DEBUG_VALUE: HAL_RTC_SetDate:datetmpreg <- 0
	@DEBUG_VALUE: HAL_RTC_SetDate:Format <- $r2
	@DEBUG_VALUE: HAL_RTC_SetDate:sDate <- $r1
	.loc	6 938 38                        @ ../Libraries/STM32F4xx_HAL_Driver/Src/stm32f4xx_hal_rtc.c:938:38
	ldrb	r0, [r1, #1]
	.loc	6 937 38                        @ ../Libraries/STM32F4xx_HAL_Driver/Src/stm32f4xx_hal_rtc.c:937:38
	ldrb	r2, [r1, #3]
.Ltmp184:
	@DEBUG_VALUE: HAL_RTC_SetDate:Format <- [DW_OP_LLVM_entry_value 1] $r2
	.loc	6 939 37                        @ ../Libraries/STM32F4xx_HAL_Driver/Src/stm32f4xx_hal_rtc.c:939:37
	ldrb	r6, [r1, #2]
	.loc	6 938 45                        @ ../Libraries/STM32F4xx_HAL_Driver/Src/stm32f4xx_hal_rtc.c:938:45
	lsls	r0, r0, #8
	.loc	6 937 52                        @ ../Libraries/STM32F4xx_HAL_Driver/Src/stm32f4xx_hal_rtc.c:937:52
	orr.w	r8, r0, r2, lsl #16
.Ltmp185:
	@DEBUG_VALUE: HAL_RTC_SetDate:datetmpreg <- undef
	.loc	6 0 52 is_stmt 0                @ ../Libraries/STM32F4xx_HAL_Driver/Src/stm32f4xx_hal_rtc.c:0:52
	b	.LBB10_4
.Ltmp186:
.LBB10_3:
	@DEBUG_VALUE: HAL_RTC_SetDate:datetmpreg <- 0
	@DEBUG_VALUE: HAL_RTC_SetDate:Format <- $r2
	@DEBUG_VALUE: HAL_RTC_SetDate:sDate <- $r1
	.loc	6 913 45 is_stmt 1              @ ../Libraries/STM32F4xx_HAL_Driver/Src/stm32f4xx_hal_rtc.c:913:45
	ldrb	r0, [r1, #1]
	mov.w	r12, #205
.Ltmp187:
	.loc	6 913 6 is_stmt 0               @ ../Libraries/STM32F4xx_HAL_Driver/Src/stm32f4xx_hal_rtc.c:913:6
	lsls	r2, r0, #27
.Ltmp188:
	@DEBUG_VALUE: HAL_RTC_SetDate:Format <- [DW_OP_LLVM_entry_value 1] $r2
	.loc	6 915 44 is_stmt 1              @ ../Libraries/STM32F4xx_HAL_Driver/Src/stm32f4xx_hal_rtc.c:915:44
	ittt	mi
	andmi	r0, r0, #239
	.loc	6 915 65 is_stmt 0              @ ../Libraries/STM32F4xx_HAL_Driver/Src/stm32f4xx_hal_rtc.c:915:65
	addmi	r0, #10
	.loc	6 915 18                        @ ../Libraries/STM32F4xx_HAL_Driver/Src/stm32f4xx_hal_rtc.c:915:18
	strbmi	r0, [r1, #1]
.Ltmp189:
	.loc	6 926 51 is_stmt 1              @ ../Libraries/STM32F4xx_HAL_Driver/Src/stm32f4xx_hal_rtc.c:926:51
	ldrb	r2, [r1, #3]
	mov.w	lr, #1
.Ltmp190:
	.loc	6 1874 3                        @ ../Libraries/STM32F4xx_HAL_Driver/Src/stm32f4xx_hal_rtc.c:1874:3
	sub.w	r3, r2, #10
	uxtb	r7, r3
	mul	r7, r7, r12
	lsrs	r5, r7, #11
	add.w	r5, r5, r5, lsl #2
	sub.w	r3, r3, r5, lsl #1
.Ltmp191:
	.loc	6 928 51                        @ ../Libraries/STM32F4xx_HAL_Driver/Src/stm32f4xx_hal_rtc.c:928:51
	ldrb	r6, [r1, #2]
.Ltmp192:
	@DEBUG_VALUE: RTC_ByteToBcd2:bcdhigh <- 0
	@DEBUG_VALUE: RTC_ByteToBcd2:Value <- $r2
	.loc	6 1874 3                        @ ../Libraries/STM32F4xx_HAL_Driver/Src/stm32f4xx_hal_rtc.c:1874:3
	add.w	r7, lr, r7, lsr #11
	.loc	6 1880 11                       @ ../Libraries/STM32F4xx_HAL_Driver/Src/stm32f4xx_hal_rtc.c:1880:11
	cmp	r2, #9
	it	hi
	orrhi.w	r2, r3, r7, lsl #4
.Ltmp193:
	.loc	6 1874 3                        @ ../Libraries/STM32F4xx_HAL_Driver/Src/stm32f4xx_hal_rtc.c:1874:3
	sub.w	r3, r0, #10
	uxtb	r7, r3
	mul	r7, r7, r12
	lsrs	r5, r7, #11
	add.w	r5, r5, r5, lsl #2
	sub.w	r3, r3, r5, lsl #1
	add.w	r5, lr, r7, lsr #11
	.loc	6 1880 11                       @ ../Libraries/STM32F4xx_HAL_Driver/Src/stm32f4xx_hal_rtc.c:1880:11
	cmp	r0, #9
	it	hi
	orrhi.w	r0, r3, r5, lsl #4
.Ltmp194:
	.loc	6 927 19                        @ ../Libraries/STM32F4xx_HAL_Driver/Src/stm32f4xx_hal_rtc.c:927:19
	uxtb	r0, r0
	.loc	6 926 19                        @ ../Libraries/STM32F4xx_HAL_Driver/Src/stm32f4xx_hal_rtc.c:926:19
	uxtb	r2, r2
	@DEBUG_VALUE: RTC_ByteToBcd2:bcdhigh <- 0
	@DEBUG_VALUE: RTC_ByteToBcd2:Value <- $r0
	.loc	6 927 58                        @ ../Libraries/STM32F4xx_HAL_Driver/Src/stm32f4xx_hal_rtc.c:927:58
	lsls	r0, r0, #8
	.loc	6 926 65                        @ ../Libraries/STM32F4xx_HAL_Driver/Src/stm32f4xx_hal_rtc.c:926:65
	orr.w	r8, r0, r2, lsl #16
.Ltmp195:
	@DEBUG_VALUE: RTC_ByteToBcd2:bcdhigh <- 0
	@DEBUG_VALUE: RTC_ByteToBcd2:Value <- $r6
	.loc	6 1874 3                        @ ../Libraries/STM32F4xx_HAL_Driver/Src/stm32f4xx_hal_rtc.c:1874:3
	sub.w	r0, r6, #10
	uxtb	r2, r0
	mul	r2, r2, r12
	lsrs	r3, r2, #11
	add.w	r3, r3, r3, lsl #2
	sub.w	r0, r0, r3, lsl #1
	add.w	r2, lr, r2, lsr #11
	.loc	6 1880 11                       @ ../Libraries/STM32F4xx_HAL_Driver/Src/stm32f4xx_hal_rtc.c:1880:11
	cmp	r6, #9
	it	hi
	orrhi.w	r6, r0, r2, lsl #4
.Ltmp196:
	@DEBUG_VALUE: HAL_RTC_SetDate:datetmpreg <- [DW_OP_LLVM_arg 0, DW_OP_LLVM_arg 0, DW_OP_or, DW_OP_stack_value] undef
.LBB10_4:
	@DEBUG_VALUE: HAL_RTC_SetDate:Format <- [DW_OP_LLVM_entry_value 1] $r2
	@DEBUG_VALUE: HAL_RTC_SetDate:sDate <- $r1
	.loc	6 0 0 is_stmt 0                 @ ../Libraries/STM32F4xx_HAL_Driver/Src/stm32f4xx_hal_rtc.c:0:0
	ldrb	r7, [r1]
.Ltmp197:
	@DEBUG_VALUE: HAL_RTC_SetDate:datetmpreg <- [DW_OP_LLVM_arg 0, DW_OP_LLVM_arg 0, DW_OP_or, DW_OP_stack_value] undef
	.loc	6 944 3 is_stmt 1               @ ../Libraries/STM32F4xx_HAL_Driver/Src/stm32f4xx_hal_rtc.c:944:3
	ldr	r1, [r4]
.Ltmp198:
	@DEBUG_VALUE: HAL_RTC_SetDate:sDate <- [DW_OP_LLVM_entry_value 1] $r1
	.loc	6 0 3 is_stmt 0                 @ ../Libraries/STM32F4xx_HAL_Driver/Src/stm32f4xx_hal_rtc.c:0:3
	movs	r0, #202
	.loc	6 944 3                         @ ../Libraries/STM32F4xx_HAL_Driver/Src/stm32f4xx_hal_rtc.c:944:3
	str	r0, [r1, #36]
	movs	r0, #83
	str	r0, [r1, #36]
.Ltmp199:
	@DEBUG_VALUE: RTC_EnterInitMode:tickstart <- 0
	@DEBUG_VALUE: RTC_EnterInitMode:hrtc <- $r4
	.loc	6 1843 23 is_stmt 1             @ ../Libraries/STM32F4xx_HAL_Driver/Src/stm32f4xx_hal_rtc.c:1843:23
	ldr	r0, [r1, #12]
.Ltmp200:
	.loc	6 1843 6 is_stmt 0              @ ../Libraries/STM32F4xx_HAL_Driver/Src/stm32f4xx_hal_rtc.c:1843:6
	lsls	r0, r0, #25
	bmi	.LBB10_8
.Ltmp201:
@ %bb.5:
	@DEBUG_VALUE: RTC_EnterInitMode:hrtc <- $r4
	@DEBUG_VALUE: RTC_EnterInitMode:tickstart <- 0
	@DEBUG_VALUE: HAL_RTC_SetDate:sDate <- [DW_OP_LLVM_entry_value 1] $r1
	@DEBUG_VALUE: HAL_RTC_SetDate:Format <- [DW_OP_LLVM_entry_value 1] $r2
	.loc	6 0 6                           @ ../Libraries/STM32F4xx_HAL_Driver/Src/stm32f4xx_hal_rtc.c:0:6
	mov.w	r0, #-1
.Ltmp202:
	.loc	6 1846 25 is_stmt 1             @ ../Libraries/STM32F4xx_HAL_Driver/Src/stm32f4xx_hal_rtc.c:1846:25
	str	r0, [r1, #12]
	.loc	6 1849 17                       @ ../Libraries/STM32F4xx_HAL_Driver/Src/stm32f4xx_hal_rtc.c:1849:17
	bl	HAL_GetTick
.Ltmp203:
	mov	r5, r0
.Ltmp204:
	@DEBUG_VALUE: RTC_EnterInitMode:tickstart <- $r5
	.p2align	2
.LBB10_6:                               @ =>This Inner Loop Header: Depth=1
	@DEBUG_VALUE: RTC_EnterInitMode:tickstart <- $r5
	@DEBUG_VALUE: RTC_EnterInitMode:hrtc <- $r4
	@DEBUG_VALUE: HAL_RTC_SetDate:sDate <- [DW_OP_LLVM_entry_value 1] $r1
	@DEBUG_VALUE: HAL_RTC_SetDate:Format <- [DW_OP_LLVM_entry_value 1] $r2
	.loc	6 1852 18                       @ ../Libraries/STM32F4xx_HAL_Driver/Src/stm32f4xx_hal_rtc.c:1852:18
	ldr	r1, [r4]
	.loc	6 1852 28 is_stmt 0             @ ../Libraries/STM32F4xx_HAL_Driver/Src/stm32f4xx_hal_rtc.c:1852:28
	ldr	r0, [r1, #12]
	.loc	6 1852 5                        @ ../Libraries/STM32F4xx_HAL_Driver/Src/stm32f4xx_hal_rtc.c:1852:5
	lsls	r0, r0, #25
	bmi	.LBB10_8
.Ltmp205:
@ %bb.7:                                @   in Loop: Header=BB10_6 Depth=1
	@DEBUG_VALUE: RTC_EnterInitMode:tickstart <- $r5
	@DEBUG_VALUE: RTC_EnterInitMode:hrtc <- $r4
	@DEBUG_VALUE: HAL_RTC_SetDate:sDate <- [DW_OP_LLVM_entry_value 1] $r1
	@DEBUG_VALUE: HAL_RTC_SetDate:Format <- [DW_OP_LLVM_entry_value 1] $r2
	.loc	6 1854 11 is_stmt 1             @ ../Libraries/STM32F4xx_HAL_Driver/Src/stm32f4xx_hal_rtc.c:1854:11
	bl	HAL_GetTick
.Ltmp206:
	.loc	6 1854 25 is_stmt 0             @ ../Libraries/STM32F4xx_HAL_Driver/Src/stm32f4xx_hal_rtc.c:1854:25
	subs	r0, r0, r5
.Ltmp207:
	.loc	6 1854 10                       @ ../Libraries/STM32F4xx_HAL_Driver/Src/stm32f4xx_hal_rtc.c:1854:10
	cmp.w	r0, #1000
	bls	.LBB10_6
	b	.LBB10_12
.Ltmp208:
.LBB10_8:
	@DEBUG_VALUE: HAL_RTC_SetDate:sDate <- [DW_OP_LLVM_entry_value 1] $r1
	@DEBUG_VALUE: HAL_RTC_SetDate:Format <- [DW_OP_LLVM_entry_value 1] $r2
	.loc	6 0 0                           @ ../Libraries/STM32F4xx_HAL_Driver/Src/stm32f4xx_hal_rtc.c:0:0
	uxtb	r0, r6
	orr.w	r0, r0, r8
.Ltmp209:
	@DEBUG_VALUE: HAL_RTC_SetDate:datetmpreg <- [DW_OP_LLVM_arg 0, DW_OP_LLVM_arg 0, DW_OP_or, DW_OP_stack_value] undef
	lsls	r2, r7, #13
.Ltmp210:
	@DEBUG_VALUE: HAL_RTC_SetDate:datetmpreg <- [DW_OP_LLVM_arg 0, DW_OP_LLVM_arg 1, DW_OP_or, DW_OP_stack_value] $r0, $r2
	.loc	6 963 48 is_stmt 1              @ ../Libraries/STM32F4xx_HAL_Driver/Src/stm32f4xx_hal_rtc.c:963:48
	bic	r0, r0, #192
.Ltmp211:
	orrs	r0, r2
	.loc	6 963 24 is_stmt 0              @ ../Libraries/STM32F4xx_HAL_Driver/Src/stm32f4xx_hal_rtc.c:963:24
	str	r0, [r1, #4]
	.loc	6 966 25 is_stmt 1              @ ../Libraries/STM32F4xx_HAL_Driver/Src/stm32f4xx_hal_rtc.c:966:25
	ldr	r0, [r1, #12]
	bic	r0, r0, #128
	str	r0, [r1, #12]
.Ltmp212:
	.loc	6 969 25                        @ ../Libraries/STM32F4xx_HAL_Driver/Src/stm32f4xx_hal_rtc.c:969:25
	ldr	r0, [r1, #8]
.Ltmp213:
	.loc	6 969 8 is_stmt 0               @ ../Libraries/STM32F4xx_HAL_Driver/Src/stm32f4xx_hal_rtc.c:969:8
	lsls	r0, r0, #26
	bmi	.LBB10_13
.Ltmp214:
@ %bb.9:
	@DEBUG_VALUE: HAL_RTC_SetDate:sDate <- [DW_OP_LLVM_entry_value 1] $r1
	@DEBUG_VALUE: HAL_RTC_SetDate:Format <- [DW_OP_LLVM_entry_value 1] $r2
	@DEBUG_VALUE: HAL_RTC_WaitForSynchro:hrtc <- $r4
	@DEBUG_VALUE: HAL_RTC_WaitForSynchro:tickstart <- 0
	.loc	6 1714 23 is_stmt 1             @ ../Libraries/STM32F4xx_HAL_Driver/Src/stm32f4xx_hal_rtc.c:1714:23
	ldr	r0, [r1, #12]
	bic	r0, r0, #160
	str	r0, [r1, #12]
	.loc	6 1717 17                       @ ../Libraries/STM32F4xx_HAL_Driver/Src/stm32f4xx_hal_rtc.c:1717:17
	bl	HAL_GetTick
.Ltmp215:
	mov	r5, r0
.Ltmp216:
	@DEBUG_VALUE: HAL_RTC_WaitForSynchro:tickstart <- $r5
	.p2align	2
.LBB10_10:                              @ =>This Inner Loop Header: Depth=1
	@DEBUG_VALUE: HAL_RTC_WaitForSynchro:tickstart <- $r5
	@DEBUG_VALUE: HAL_RTC_WaitForSynchro:hrtc <- $r4
	@DEBUG_VALUE: HAL_RTC_SetDate:sDate <- [DW_OP_LLVM_entry_value 1] $r1
	@DEBUG_VALUE: HAL_RTC_SetDate:Format <- [DW_OP_LLVM_entry_value 1] $r2
	.loc	6 1720 16                       @ ../Libraries/STM32F4xx_HAL_Driver/Src/stm32f4xx_hal_rtc.c:1720:16
	ldr	r1, [r4]
	.loc	6 1720 26 is_stmt 0             @ ../Libraries/STM32F4xx_HAL_Driver/Src/stm32f4xx_hal_rtc.c:1720:26
	ldr	r0, [r1, #12]
	.loc	6 1720 3                        @ ../Libraries/STM32F4xx_HAL_Driver/Src/stm32f4xx_hal_rtc.c:1720:3
	lsls	r0, r0, #26
	bmi	.LBB10_13
.Ltmp217:
@ %bb.11:                               @   in Loop: Header=BB10_10 Depth=1
	@DEBUG_VALUE: HAL_RTC_WaitForSynchro:tickstart <- $r5
	@DEBUG_VALUE: HAL_RTC_WaitForSynchro:hrtc <- $r4
	@DEBUG_VALUE: HAL_RTC_SetDate:sDate <- [DW_OP_LLVM_entry_value 1] $r1
	@DEBUG_VALUE: HAL_RTC_SetDate:Format <- [DW_OP_LLVM_entry_value 1] $r2
	.loc	6 1722 9 is_stmt 1              @ ../Libraries/STM32F4xx_HAL_Driver/Src/stm32f4xx_hal_rtc.c:1722:9
	bl	HAL_GetTick
.Ltmp218:
	.loc	6 1722 23 is_stmt 0             @ ../Libraries/STM32F4xx_HAL_Driver/Src/stm32f4xx_hal_rtc.c:1722:23
	subs	r0, r0, r5
.Ltmp219:
	.loc	6 1722 8                        @ ../Libraries/STM32F4xx_HAL_Driver/Src/stm32f4xx_hal_rtc.c:1722:8
	cmp.w	r0, #1000
	bls	.LBB10_10
.Ltmp220:
.LBB10_12:
	@DEBUG_VALUE: HAL_RTC_SetDate:sDate <- [DW_OP_LLVM_entry_value 1] $r1
	@DEBUG_VALUE: HAL_RTC_SetDate:Format <- [DW_OP_LLVM_entry_value 1] $r2
	.loc	6 0 0                           @ ../Libraries/STM32F4xx_HAL_Driver/Src/stm32f4xx_hal_rtc.c:0:0
	ldr	r1, [r4]
	movs	r0, #1
	movs	r2, #4
	b	.LBB10_14
.Ltmp221:
.LBB10_13:
	@DEBUG_VALUE: HAL_RTC_SetDate:sDate <- [DW_OP_LLVM_entry_value 1] $r1
	@DEBUG_VALUE: HAL_RTC_SetDate:Format <- [DW_OP_LLVM_entry_value 1] $r2
	movs	r0, #0
	movs	r2, #1
.Ltmp222:
.LBB10_14:
	@DEBUG_VALUE: HAL_RTC_SetDate:sDate <- [DW_OP_LLVM_entry_value 1] $r1
	@DEBUG_VALUE: HAL_RTC_SetDate:Format <- [DW_OP_LLVM_entry_value 1] $r2
	movs	r3, #255
	str	r3, [r1, #36]
	movs	r1, #0
	strb	r2, [r4, #29]
	strb	r1, [r4, #28]
.Ltmp223:
	.loc	6 995 1 is_stmt 1               @ ../Libraries/STM32F4xx_HAL_Driver/Src/stm32f4xx_hal_rtc.c:995:1
	pop.w	{r4, r5, r6, r7, r8, pc}
.Ltmp224:
.Lfunc_end10:
	.size	HAL_RTC_SetDate, .Lfunc_end10-HAL_RTC_SetDate
	.cfi_endproc
	.cantunwind
	.fnend
                                        @ -- End function
	.section	.text.HAL_RTC_GetDate,"ax",%progbits
	.hidden	HAL_RTC_GetDate                 @ -- Begin function HAL_RTC_GetDate
	.globl	HAL_RTC_GetDate
	.p2align	2
	.type	HAL_RTC_GetDate,%function
	.code	16                              @ @HAL_RTC_GetDate
	.thumb_func
HAL_RTC_GetDate:
.Lfunc_begin11:
	.loc	6 1012 0                        @ ../Libraries/STM32F4xx_HAL_Driver/Src/stm32f4xx_hal_rtc.c:1012:0
	.fnstart
	.cfi_startproc
@ %bb.0:
	@DEBUG_VALUE: HAL_RTC_GetDate:hrtc <- $r0
	@DEBUG_VALUE: HAL_RTC_GetDate:sDate <- $r1
	@DEBUG_VALUE: HAL_RTC_GetDate:Format <- $r2
	.save	{r4, lr}
	push	{r4, lr}
	.cfi_def_cfa_offset 8
	.cfi_offset lr, -4
	.cfi_offset r4, -8
.Ltmp225:
	@DEBUG_VALUE: HAL_RTC_GetDate:datetmpreg <- 0
	.loc	6 1019 33 prologue_end          @ ../Libraries/STM32F4xx_HAL_Driver/Src/stm32f4xx_hal_rtc.c:1019:33
	ldr	r0, [r0]
.Ltmp226:
	@DEBUG_VALUE: HAL_RTC_GetDate:hrtc <- [DW_OP_LLVM_entry_value 1] $r0
	.loc	6 1019 43 is_stmt 0             @ ../Libraries/STM32F4xx_HAL_Driver/Src/stm32f4xx_hal_rtc.c:1019:43
	ldr	r0, [r0, #4]
.Ltmp227:
	@DEBUG_VALUE: HAL_RTC_GetDate:datetmpreg <- [DW_OP_constu 16777023, DW_OP_and, DW_OP_stack_value] $r0
	.loc	6 1022 66 is_stmt 1             @ ../Libraries/STM32F4xx_HAL_Driver/Src/stm32f4xx_hal_rtc.c:1022:66
	lsr.w	r3, r0, #16
	.loc	6 1023 18                       @ ../Libraries/STM32F4xx_HAL_Driver/Src/stm32f4xx_hal_rtc.c:1023:18
	ubfx	lr, r0, #8, #5
	.loc	6 1024 17                       @ ../Libraries/STM32F4xx_HAL_Driver/Src/stm32f4xx_hal_rtc.c:1024:17
	and	r12, r0, #63
	.loc	6 1025 20                       @ ../Libraries/STM32F4xx_HAL_Driver/Src/stm32f4xx_hal_rtc.c:1025:20
	ubfx	r4, r0, #13, #3
	.loc	6 1022 15                       @ ../Libraries/STM32F4xx_HAL_Driver/Src/stm32f4xx_hal_rtc.c:1022:15
	strb	r3, [r1, #3]
	.loc	6 1023 16                       @ ../Libraries/STM32F4xx_HAL_Driver/Src/stm32f4xx_hal_rtc.c:1023:16
	strb.w	lr, [r1, #1]
	.loc	6 1024 15                       @ ../Libraries/STM32F4xx_HAL_Driver/Src/stm32f4xx_hal_rtc.c:1024:15
	strb.w	r12, [r1, #2]
	.loc	6 1025 18                       @ ../Libraries/STM32F4xx_HAL_Driver/Src/stm32f4xx_hal_rtc.c:1025:18
	strb	r4, [r1]
	.loc	6 1028 6                        @ ../Libraries/STM32F4xx_HAL_Driver/Src/stm32f4xx_hal_rtc.c:1028:6
	cbz	r2, .LBB11_2
.Ltmp228:
@ %bb.1:
	@DEBUG_VALUE: HAL_RTC_GetDate:datetmpreg <- [DW_OP_constu 16777023, DW_OP_and, DW_OP_stack_value] $r0
	@DEBUG_VALUE: HAL_RTC_GetDate:hrtc <- [DW_OP_LLVM_entry_value 1] $r0
	@DEBUG_VALUE: HAL_RTC_GetDate:Format <- $r2
	@DEBUG_VALUE: HAL_RTC_GetDate:sDate <- $r1
	.loc	6 1035 3                        @ ../Libraries/STM32F4xx_HAL_Driver/Src/stm32f4xx_hal_rtc.c:1035:3
	movs	r0, #0
.Ltmp229:
	pop	{r4, pc}
.Ltmp230:
.LBB11_2:
	@DEBUG_VALUE: HAL_RTC_GetDate:datetmpreg <- [DW_OP_constu 16777023, DW_OP_and, DW_OP_stack_value] $r0
	@DEBUG_VALUE: HAL_RTC_GetDate:hrtc <- [DW_OP_LLVM_entry_value 1] $r0
	@DEBUG_VALUE: HAL_RTC_GetDate:Format <- $r2
	@DEBUG_VALUE: HAL_RTC_GetDate:sDate <- $r1
	.loc	6 1022 17                       @ ../Libraries/STM32F4xx_HAL_Driver/Src/stm32f4xx_hal_rtc.c:1022:17
	uxtb	r4, r3
.Ltmp231:
	@DEBUG_VALUE: RTC_Bcd2ToByte:tmp <- 0
	.loc	6 1891 43                       @ ../Libraries/STM32F4xx_HAL_Driver/Src/stm32f4xx_hal_rtc.c:1891:43
	lsrs	r4, r4, #4
	.loc	6 1891 60 is_stmt 0             @ ../Libraries/STM32F4xx_HAL_Driver/Src/stm32f4xx_hal_rtc.c:1891:60
	add.w	r4, r4, r4, lsl #2
.Ltmp232:
	@DEBUG_VALUE: RTC_Bcd2ToByte:tmp <- [DW_OP_LLVM_convert 8 7, DW_OP_LLVM_convert 32 7, DW_OP_stack_value] undef
	.loc	6 1892 24 is_stmt 1             @ ../Libraries/STM32F4xx_HAL_Driver/Src/stm32f4xx_hal_rtc.c:1892:24
	and	r3, r3, #15
	.loc	6 1892 15 is_stmt 0             @ ../Libraries/STM32F4xx_HAL_Driver/Src/stm32f4xx_hal_rtc.c:1892:15
	add.w	r3, r3, r4, lsl #1
.Ltmp233:
	.loc	6 0 0                           @ ../Libraries/STM32F4xx_HAL_Driver/Src/stm32f4xx_hal_rtc.c:0:0
	lsrs	r2, r0, #8
.Ltmp234:
	@DEBUG_VALUE: HAL_RTC_GetDate:Format <- [DW_OP_LLVM_entry_value 1] $r2
	.loc	6 1031 17 is_stmt 1             @ ../Libraries/STM32F4xx_HAL_Driver/Src/stm32f4xx_hal_rtc.c:1031:17
	strb	r3, [r1, #3]
.Ltmp235:
	@DEBUG_VALUE: RTC_Bcd2ToByte:tmp <- 0
	@DEBUG_VALUE: RTC_Bcd2ToByte:Value <- $lr
	@DEBUG_VALUE: RTC_Bcd2ToByte:Value <- [DW_OP_LLVM_convert 32 7, DW_OP_LLVM_convert 8 7, DW_OP_stack_value] undef
	.loc	6 1891 43                       @ ../Libraries/STM32F4xx_HAL_Driver/Src/stm32f4xx_hal_rtc.c:1891:43
	lsr.w	r3, lr, #4
	.loc	6 1891 60 is_stmt 0             @ ../Libraries/STM32F4xx_HAL_Driver/Src/stm32f4xx_hal_rtc.c:1891:60
	orr.w	r3, r3, r3, lsl #2
.Ltmp236:
	@DEBUG_VALUE: RTC_Bcd2ToByte:tmp <- [DW_OP_LLVM_convert 8 7, DW_OP_LLVM_convert 32 7, DW_OP_stack_value] undef
	.loc	6 1892 24 is_stmt 1             @ ../Libraries/STM32F4xx_HAL_Driver/Src/stm32f4xx_hal_rtc.c:1892:24
	and	r2, r2, #15
	.loc	6 1892 15 is_stmt 0             @ ../Libraries/STM32F4xx_HAL_Driver/Src/stm32f4xx_hal_rtc.c:1892:15
	add.w	r2, r2, r3, lsl #1
.Ltmp237:
	.loc	6 1032 18 is_stmt 1             @ ../Libraries/STM32F4xx_HAL_Driver/Src/stm32f4xx_hal_rtc.c:1032:18
	strb	r2, [r1, #1]
.Ltmp238:
	@DEBUG_VALUE: RTC_Bcd2ToByte:tmp <- 0
	@DEBUG_VALUE: RTC_Bcd2ToByte:Value <- $r12
	.loc	6 1891 43                       @ ../Libraries/STM32F4xx_HAL_Driver/Src/stm32f4xx_hal_rtc.c:1891:43
	lsr.w	r2, r12, #4
	.loc	6 1891 60 is_stmt 0             @ ../Libraries/STM32F4xx_HAL_Driver/Src/stm32f4xx_hal_rtc.c:1891:60
	orr.w	r2, r2, r2, lsl #2
.Ltmp239:
	@DEBUG_VALUE: RTC_Bcd2ToByte:tmp <- [DW_OP_LLVM_convert 8 7, DW_OP_LLVM_convert 32 7, DW_OP_stack_value] undef
	.loc	6 1892 24 is_stmt 1             @ ../Libraries/STM32F4xx_HAL_Driver/Src/stm32f4xx_hal_rtc.c:1892:24
	and	r0, r0, #15
.Ltmp240:
	.loc	6 1892 15 is_stmt 0             @ ../Libraries/STM32F4xx_HAL_Driver/Src/stm32f4xx_hal_rtc.c:1892:15
	add.w	r0, r0, r2, lsl #1
.Ltmp241:
	.loc	6 1033 17 is_stmt 1             @ ../Libraries/STM32F4xx_HAL_Driver/Src/stm32f4xx_hal_rtc.c:1033:17
	strb	r0, [r1, #2]
.Ltmp242:
	.loc	6 1035 3                        @ ../Libraries/STM32F4xx_HAL_Driver/Src/stm32f4xx_hal_rtc.c:1035:3
	movs	r0, #0
	pop	{r4, pc}
.Ltmp243:
.Lfunc_end11:
	.size	HAL_RTC_GetDate, .Lfunc_end11-HAL_RTC_GetDate
	.cfi_endproc
	.cantunwind
	.fnend
                                        @ -- End function
	.section	.text.HAL_RTC_SetAlarm,"ax",%progbits
	.hidden	HAL_RTC_SetAlarm                @ -- Begin function HAL_RTC_SetAlarm
	.globl	HAL_RTC_SetAlarm
	.p2align	2
	.type	HAL_RTC_SetAlarm,%function
	.code	16                              @ @HAL_RTC_SetAlarm
	.thumb_func
HAL_RTC_SetAlarm:
.Lfunc_begin12:
	.loc	6 1067 0                        @ ../Libraries/STM32F4xx_HAL_Driver/Src/stm32f4xx_hal_rtc.c:1067:0
	.fnstart
	.cfi_startproc
@ %bb.0:
	@DEBUG_VALUE: HAL_RTC_SetAlarm:hrtc <- $r0
	@DEBUG_VALUE: HAL_RTC_SetAlarm:sAlarm <- $r1
	@DEBUG_VALUE: HAL_RTC_SetAlarm:Format <- $r2
	.save	{r4, r5, r6, r7, r8, r9, lr}
	push.w	{r4, r5, r6, r7, r8, r9, lr}
	.cfi_def_cfa_offset 28
	.cfi_offset lr, -4
	.cfi_offset r9, -8
	.cfi_offset r8, -12
	.cfi_offset r7, -16
	.cfi_offset r6, -20
	.cfi_offset r5, -24
	.cfi_offset r4, -28
	.pad	#4
	sub	sp, #4
	.cfi_def_cfa_offset 32
	mov	r4, r0
.Ltmp244:
	@DEBUG_VALUE: HAL_RTC_SetAlarm:subsecondtmpreg <- 0
	@DEBUG_VALUE: HAL_RTC_SetAlarm:tmpreg <- 0
	@DEBUG_VALUE: HAL_RTC_SetAlarm:tickstart <- 0
	@DEBUG_VALUE: HAL_RTC_SetAlarm:hrtc <- $r4
	.loc	6 1080 3 prologue_end           @ ../Libraries/STM32F4xx_HAL_Driver/Src/stm32f4xx_hal_rtc.c:1080:3
	ldrb	r0, [r0, #28]
.Ltmp245:
	.loc	6 1080 3 is_stmt 0              @ ../Libraries/STM32F4xx_HAL_Driver/Src/stm32f4xx_hal_rtc.c:1080:3
	cmp	r0, #1
	mov.w	r0, #2
	beq.w	.LBB12_22
.Ltmp246:
@ %bb.1:
	@DEBUG_VALUE: HAL_RTC_SetAlarm:hrtc <- $r4
	@DEBUG_VALUE: HAL_RTC_SetAlarm:tickstart <- 0
	@DEBUG_VALUE: HAL_RTC_SetAlarm:tmpreg <- 0
	@DEBUG_VALUE: HAL_RTC_SetAlarm:subsecondtmpreg <- 0
	@DEBUG_VALUE: HAL_RTC_SetAlarm:Format <- $r2
	@DEBUG_VALUE: HAL_RTC_SetAlarm:sAlarm <- $r1
	.loc	6 0 3                           @ ../Libraries/STM32F4xx_HAL_Driver/Src/stm32f4xx_hal_rtc.c:0:3
	movs	r3, #1
.Ltmp247:
	.loc	6 1080 3                        @ ../Libraries/STM32F4xx_HAL_Driver/Src/stm32f4xx_hal_rtc.c:1080:3
	strb	r3, [r4, #28]
.Ltmp248:
	.loc	6 1082 15 is_stmt 1             @ ../Libraries/STM32F4xx_HAL_Driver/Src/stm32f4xx_hal_rtc.c:1082:15
	strb	r0, [r4, #29]
.Ltmp249:
	.loc	6 0 0 is_stmt 0                 @ ../Libraries/STM32F4xx_HAL_Driver/Src/stm32f4xx_hal_rtc.c:0:0
	ldr	r0, [r4]
.Ltmp250:
	.loc	6 1084 6 is_stmt 1              @ ../Libraries/STM32F4xx_HAL_Driver/Src/stm32f4xx_hal_rtc.c:1084:6
	cmp	r2, #0
.Ltmp251:
	.loc	6 0 0 is_stmt 0                 @ ../Libraries/STM32F4xx_HAL_Driver/Src/stm32f4xx_hal_rtc.c:0:0
	ldr	r3, [r0, #8]
	and	r2, r3, #64
.Ltmp252:
	@DEBUG_VALUE: HAL_RTC_SetAlarm:Format <- [DW_OP_LLVM_entry_value 1] $r2
	.loc	6 1084 6                        @ ../Libraries/STM32F4xx_HAL_Driver/Src/stm32f4xx_hal_rtc.c:1084:6
	beq	.LBB12_4
.Ltmp253:
@ %bb.2:
	@DEBUG_VALUE: HAL_RTC_SetAlarm:Format <- [DW_OP_LLVM_entry_value 1] $r2
	@DEBUG_VALUE: HAL_RTC_SetAlarm:hrtc <- $r4
	@DEBUG_VALUE: HAL_RTC_SetAlarm:tickstart <- 0
	@DEBUG_VALUE: HAL_RTC_SetAlarm:tmpreg <- 0
	@DEBUG_VALUE: HAL_RTC_SetAlarm:subsecondtmpreg <- 0
	@DEBUG_VALUE: HAL_RTC_SetAlarm:sAlarm <- $r1
	.loc	6 1118 8 is_stmt 1              @ ../Libraries/STM32F4xx_HAL_Driver/Src/stm32f4xx_hal_rtc.c:1118:8
	cbnz	r2, .LBB12_6
.Ltmp254:
@ %bb.3:
	@DEBUG_VALUE: HAL_RTC_SetAlarm:Format <- [DW_OP_LLVM_entry_value 1] $r2
	@DEBUG_VALUE: HAL_RTC_SetAlarm:hrtc <- $r4
	@DEBUG_VALUE: HAL_RTC_SetAlarm:tickstart <- 0
	@DEBUG_VALUE: HAL_RTC_SetAlarm:tmpreg <- 0
	@DEBUG_VALUE: HAL_RTC_SetAlarm:subsecondtmpreg <- 0
	@DEBUG_VALUE: HAL_RTC_SetAlarm:sAlarm <- $r1
	.loc	6 0 8 is_stmt 0                 @ ../Libraries/STM32F4xx_HAL_Driver/Src/stm32f4xx_hal_rtc.c:0:8
	movs	r2, #0
.Ltmp255:
	.loc	6 1125 36 is_stmt 1             @ ../Libraries/STM32F4xx_HAL_Driver/Src/stm32f4xx_hal_rtc.c:1125:36
	strb	r2, [r1, #3]
	b	.LBB12_7
.Ltmp256:
.LBB12_4:
	@DEBUG_VALUE: HAL_RTC_SetAlarm:Format <- [DW_OP_LLVM_entry_value 1] $r2
	@DEBUG_VALUE: HAL_RTC_SetAlarm:hrtc <- $r4
	@DEBUG_VALUE: HAL_RTC_SetAlarm:tickstart <- 0
	@DEBUG_VALUE: HAL_RTC_SetAlarm:tmpreg <- 0
	@DEBUG_VALUE: HAL_RTC_SetAlarm:subsecondtmpreg <- 0
	@DEBUG_VALUE: HAL_RTC_SetAlarm:sAlarm <- $r1
	.loc	6 1086 8                        @ ../Libraries/STM32F4xx_HAL_Driver/Src/stm32f4xx_hal_rtc.c:1086:8
	cbnz	r2, .LBB12_8
.Ltmp257:
@ %bb.5:
	@DEBUG_VALUE: HAL_RTC_SetAlarm:Format <- [DW_OP_LLVM_entry_value 1] $r2
	@DEBUG_VALUE: HAL_RTC_SetAlarm:hrtc <- $r4
	@DEBUG_VALUE: HAL_RTC_SetAlarm:tickstart <- 0
	@DEBUG_VALUE: HAL_RTC_SetAlarm:tmpreg <- 0
	@DEBUG_VALUE: HAL_RTC_SetAlarm:subsecondtmpreg <- 0
	@DEBUG_VALUE: HAL_RTC_SetAlarm:sAlarm <- $r1
	.loc	6 0 8 is_stmt 0                 @ ../Libraries/STM32F4xx_HAL_Driver/Src/stm32f4xx_hal_rtc.c:0:8
	mov.w	r12, #0
.Ltmp258:
	.loc	6 1093 36 is_stmt 1             @ ../Libraries/STM32F4xx_HAL_Driver/Src/stm32f4xx_hal_rtc.c:1093:36
	strb.w	r12, [r1, #3]
	b	.LBB12_9
.Ltmp259:
.LBB12_6:
	@DEBUG_VALUE: HAL_RTC_SetAlarm:Format <- [DW_OP_LLVM_entry_value 1] $r2
	@DEBUG_VALUE: HAL_RTC_SetAlarm:hrtc <- $r4
	@DEBUG_VALUE: HAL_RTC_SetAlarm:tickstart <- 0
	@DEBUG_VALUE: HAL_RTC_SetAlarm:tmpreg <- 0
	@DEBUG_VALUE: HAL_RTC_SetAlarm:subsecondtmpreg <- 0
	@DEBUG_VALUE: HAL_RTC_SetAlarm:sAlarm <- $r1
	.loc	6 1144 45                       @ ../Libraries/STM32F4xx_HAL_Driver/Src/stm32f4xx_hal_rtc.c:1144:45
	ldrb	r2, [r1, #3]
	.loc	6 1118 8                        @ ../Libraries/STM32F4xx_HAL_Driver/Src/stm32f4xx_hal_rtc.c:1118:8
	lsls	r2, r2, #16
.Ltmp260:
.LBB12_7:
	@DEBUG_VALUE: HAL_RTC_SetAlarm:Format <- [DW_OP_LLVM_entry_value 1] $r2
	@DEBUG_VALUE: HAL_RTC_SetAlarm:hrtc <- $r4
	@DEBUG_VALUE: HAL_RTC_SetAlarm:tickstart <- 0
	@DEBUG_VALUE: HAL_RTC_SetAlarm:tmpreg <- 0
	@DEBUG_VALUE: HAL_RTC_SetAlarm:subsecondtmpreg <- 0
	@DEBUG_VALUE: HAL_RTC_SetAlarm:sAlarm <- $r1
	.loc	6 1142 45                       @ ../Libraries/STM32F4xx_HAL_Driver/Src/stm32f4xx_hal_rtc.c:1142:45
	ldrb	r7, [r1, #1]
	.loc	6 1141 45                       @ ../Libraries/STM32F4xx_HAL_Driver/Src/stm32f4xx_hal_rtc.c:1141:45
	ldrb	r3, [r1]
	.loc	6 1143 45                       @ ../Libraries/STM32F4xx_HAL_Driver/Src/stm32f4xx_hal_rtc.c:1143:45
	ldrb	r6, [r1, #2]
	.loc	6 1142 54                       @ ../Libraries/STM32F4xx_HAL_Driver/Src/stm32f4xx_hal_rtc.c:1142:54
	lsls	r7, r7, #8
	.loc	6 1141 60                       @ ../Libraries/STM32F4xx_HAL_Driver/Src/stm32f4xx_hal_rtc.c:1141:60
	orr.w	r3, r7, r3, lsl #16
	.loc	6 1142 61                       @ ../Libraries/STM32F4xx_HAL_Driver/Src/stm32f4xx_hal_rtc.c:1142:61
	add	r3, r6
	.loc	6 1146 34                       @ ../Libraries/STM32F4xx_HAL_Driver/Src/stm32f4xx_hal_rtc.c:1146:34
	ldr	r7, [r1, #28]
	.loc	6 1143 54                       @ ../Libraries/STM32F4xx_HAL_Driver/Src/stm32f4xx_hal_rtc.c:1143:54
	orrs	r2, r3
	.loc	6 1145 16                       @ ../Libraries/STM32F4xx_HAL_Driver/Src/stm32f4xx_hal_rtc.c:1145:16
	ldrb.w	r3, [r1, #32]
	.loc	6 1147 34                       @ ../Libraries/STM32F4xx_HAL_Driver/Src/stm32f4xx_hal_rtc.c:1147:34
	ldr	r6, [r1, #20]
	.loc	6 1144 65                       @ ../Libraries/STM32F4xx_HAL_Driver/Src/stm32f4xx_hal_rtc.c:1144:65
	orrs	r2, r7
	.loc	6 1145 61                       @ ../Libraries/STM32F4xx_HAL_Driver/Src/stm32f4xx_hal_rtc.c:1145:61
	orr.w	r2, r2, r3, lsl #24
	.loc	6 1146 55                       @ ../Libraries/STM32F4xx_HAL_Driver/Src/stm32f4xx_hal_rtc.c:1146:55
	orrs	r6, r2
.Ltmp261:
	@DEBUG_VALUE: HAL_RTC_SetAlarm:tmpreg <- $r6
	.loc	6 0 55 is_stmt 0                @ ../Libraries/STM32F4xx_HAL_Driver/Src/stm32f4xx_hal_rtc.c:0:55
	b	.LBB12_10
.Ltmp262:
.LBB12_8:
	@DEBUG_VALUE: HAL_RTC_SetAlarm:Format <- [DW_OP_LLVM_entry_value 1] $r2
	@DEBUG_VALUE: HAL_RTC_SetAlarm:hrtc <- $r4
	@DEBUG_VALUE: HAL_RTC_SetAlarm:tickstart <- 0
	@DEBUG_VALUE: HAL_RTC_SetAlarm:tmpreg <- 0
	@DEBUG_VALUE: HAL_RTC_SetAlarm:subsecondtmpreg <- 0
	@DEBUG_VALUE: HAL_RTC_SetAlarm:sAlarm <- $r1
	.loc	6 1111 45 is_stmt 1             @ ../Libraries/STM32F4xx_HAL_Driver/Src/stm32f4xx_hal_rtc.c:1111:45
	ldrb	r2, [r1, #3]
	.loc	6 1086 8                        @ ../Libraries/STM32F4xx_HAL_Driver/Src/stm32f4xx_hal_rtc.c:1086:8
	lsl.w	r12, r2, #16
.Ltmp263:
.LBB12_9:
	@DEBUG_VALUE: HAL_RTC_SetAlarm:Format <- [DW_OP_LLVM_entry_value 1] $r2
	@DEBUG_VALUE: HAL_RTC_SetAlarm:hrtc <- $r4
	@DEBUG_VALUE: HAL_RTC_SetAlarm:tickstart <- 0
	@DEBUG_VALUE: HAL_RTC_SetAlarm:tmpreg <- 0
	@DEBUG_VALUE: HAL_RTC_SetAlarm:subsecondtmpreg <- 0
	@DEBUG_VALUE: HAL_RTC_SetAlarm:sAlarm <- $r1
	.loc	6 1108 59                       @ ../Libraries/STM32F4xx_HAL_Driver/Src/stm32f4xx_hal_rtc.c:1108:59
	ldrb	r5, [r1]
	mov.w	lr, #205
.Ltmp264:
	.loc	6 1874 3                        @ ../Libraries/STM32F4xx_HAL_Driver/Src/stm32f4xx_hal_rtc.c:1874:3
	sub.w	r7, r5, #10
	uxtb	r3, r7
	mul	r3, r3, lr
	lsrs	r6, r3, #11
.Ltmp265:
	.loc	6 1109 59                       @ ../Libraries/STM32F4xx_HAL_Driver/Src/stm32f4xx_hal_rtc.c:1109:59
	ldrb	r2, [r1, #1]
	add.w	r6, r6, r6, lsl #2
	mov.w	r9, #1
	.loc	6 1110 59                       @ ../Libraries/STM32F4xx_HAL_Driver/Src/stm32f4xx_hal_rtc.c:1110:59
	ldrb.w	r8, [r1, #2]
.Ltmp266:
	@DEBUG_VALUE: RTC_ByteToBcd2:bcdhigh <- 0
	@DEBUG_VALUE: RTC_ByteToBcd2:Value <- $r5
	.loc	6 0 59 is_stmt 0                @ ../Libraries/STM32F4xx_HAL_Driver/Src/stm32f4xx_hal_rtc.c:0:59
	sub.w	r6, r7, r6, lsl #1
.Ltmp267:
	.loc	6 1874 3 is_stmt 1              @ ../Libraries/STM32F4xx_HAL_Driver/Src/stm32f4xx_hal_rtc.c:1874:3
	add.w	r3, r9, r3, lsr #11
	.loc	6 1880 11                       @ ../Libraries/STM32F4xx_HAL_Driver/Src/stm32f4xx_hal_rtc.c:1880:11
	cmp	r5, #9
	it	hi
	orrhi.w	r5, r6, r3, lsl #4
.Ltmp268:
	.loc	6 1108 16                       @ ../Libraries/STM32F4xx_HAL_Driver/Src/stm32f4xx_hal_rtc.c:1108:16
	uxtb	r3, r5
.Ltmp269:
	@DEBUG_VALUE: RTC_ByteToBcd2:bcdhigh <- 0
	@DEBUG_VALUE: RTC_ByteToBcd2:Value <- $r2
	.loc	6 1874 3                        @ ../Libraries/STM32F4xx_HAL_Driver/Src/stm32f4xx_hal_rtc.c:1874:3
	sub.w	r5, r2, #10
	uxtb	r6, r5
	mul	r6, r6, lr
	lsrs	r7, r6, #11
	add.w	r7, r7, r7, lsl #2
	sub.w	r5, r5, r7, lsl #1
	add.w	r6, r9, r6, lsr #11
	.loc	6 1880 11                       @ ../Libraries/STM32F4xx_HAL_Driver/Src/stm32f4xx_hal_rtc.c:1880:11
	cmp	r2, #9
	it	hi
	orrhi.w	r2, r5, r6, lsl #4
.Ltmp270:
	.loc	6 1109 16                       @ ../Libraries/STM32F4xx_HAL_Driver/Src/stm32f4xx_hal_rtc.c:1109:16
	uxtb	r2, r2
	.loc	6 1109 68 is_stmt 0             @ ../Libraries/STM32F4xx_HAL_Driver/Src/stm32f4xx_hal_rtc.c:1109:68
	lsls	r2, r2, #8
	.loc	6 1108 74 is_stmt 1             @ ../Libraries/STM32F4xx_HAL_Driver/Src/stm32f4xx_hal_rtc.c:1108:74
	orr.w	r2, r2, r3, lsl #16
.Ltmp271:
	@DEBUG_VALUE: RTC_ByteToBcd2:bcdhigh <- 0
	@DEBUG_VALUE: RTC_ByteToBcd2:Value <- $r8
	.loc	6 1874 3                        @ ../Libraries/STM32F4xx_HAL_Driver/Src/stm32f4xx_hal_rtc.c:1874:3
	sub.w	r3, r8, #10
	uxtb	r5, r3
	mul	r5, r5, lr
	lsrs	r6, r5, #11
	add.w	r6, r6, r6, lsl #2
	sub.w	r3, r3, r6, lsl #1
	add.w	r5, r9, r5, lsr #11
	.loc	6 1880 11                       @ ../Libraries/STM32F4xx_HAL_Driver/Src/stm32f4xx_hal_rtc.c:1880:11
	cmp.w	r8, #9
	it	hi
	orrhi.w	r8, r3, r5, lsl #4
.Ltmp272:
	.loc	6 1110 16                       @ ../Libraries/STM32F4xx_HAL_Driver/Src/stm32f4xx_hal_rtc.c:1110:16
	uxtb.w	r3, r8
	.loc	6 1109 75                       @ ../Libraries/STM32F4xx_HAL_Driver/Src/stm32f4xx_hal_rtc.c:1109:75
	add	r2, r3
	.loc	6 1112 49                       @ ../Libraries/STM32F4xx_HAL_Driver/Src/stm32f4xx_hal_rtc.c:1112:49
	ldrb.w	r3, [r1, #32]
	.loc	6 1110 69                       @ ../Libraries/STM32F4xx_HAL_Driver/Src/stm32f4xx_hal_rtc.c:1110:69
	orr.w	r2, r2, r12
.Ltmp273:
	@DEBUG_VALUE: RTC_ByteToBcd2:bcdhigh <- 0
	@DEBUG_VALUE: RTC_ByteToBcd2:Value <- $r3
	.loc	6 1874 3                        @ ../Libraries/STM32F4xx_HAL_Driver/Src/stm32f4xx_hal_rtc.c:1874:3
	sub.w	r7, r3, #10
	uxtb	r6, r7
	mul	r6, r6, lr
	lsrs	r5, r6, #11
	add.w	r5, r5, r5, lsl #2
	sub.w	r7, r7, r5, lsl #1
	add.w	r6, r9, r6, lsr #11
	.loc	6 1880 11                       @ ../Libraries/STM32F4xx_HAL_Driver/Src/stm32f4xx_hal_rtc.c:1880:11
	cmp	r3, #9
	it	hi
	orrhi.w	r3, r7, r6, lsl #4
.Ltmp274:
	.loc	6 1113 34                       @ ../Libraries/STM32F4xx_HAL_Driver/Src/stm32f4xx_hal_rtc.c:1113:34
	ldr	r7, [r1, #28]
	.loc	6 1114 34                       @ ../Libraries/STM32F4xx_HAL_Driver/Src/stm32f4xx_hal_rtc.c:1114:34
	ldr	r6, [r1, #20]
	.loc	6 1111 65                       @ ../Libraries/STM32F4xx_HAL_Driver/Src/stm32f4xx_hal_rtc.c:1111:65
	orr.w	r2, r2, r3, lsl #24
	.loc	6 1112 75                       @ ../Libraries/STM32F4xx_HAL_Driver/Src/stm32f4xx_hal_rtc.c:1112:75
	orr.w	r3, r6, r7
	.loc	6 1113 55                       @ ../Libraries/STM32F4xx_HAL_Driver/Src/stm32f4xx_hal_rtc.c:1113:55
	orr.w	r6, r3, r2
.Ltmp275:
	@DEBUG_VALUE: HAL_RTC_SetAlarm:tmpreg <- $r6
.LBB12_10:
	@DEBUG_VALUE: HAL_RTC_SetAlarm:tmpreg <- $r6
	@DEBUG_VALUE: HAL_RTC_SetAlarm:Format <- [DW_OP_LLVM_entry_value 1] $r2
	@DEBUG_VALUE: HAL_RTC_SetAlarm:hrtc <- $r4
	@DEBUG_VALUE: HAL_RTC_SetAlarm:tickstart <- 0
	@DEBUG_VALUE: HAL_RTC_SetAlarm:subsecondtmpreg <- 0
	@DEBUG_VALUE: HAL_RTC_SetAlarm:sAlarm <- $r1
	@DEBUG_VALUE: HAL_RTC_SetAlarm:tmpreg <- $r6
	.loc	6 1151 61                       @ ../Libraries/STM32F4xx_HAL_Driver/Src/stm32f4xx_hal_rtc.c:1151:61
	ldr.w	r8, [r1, #4]
	.loc	6 1151 94 is_stmt 0             @ ../Libraries/STM32F4xx_HAL_Driver/Src/stm32f4xx_hal_rtc.c:1151:94
	ldr	r7, [r1, #24]
.Ltmp276:
	.loc	6 1157 14 is_stmt 1             @ ../Libraries/STM32F4xx_HAL_Driver/Src/stm32f4xx_hal_rtc.c:1157:14
	ldr	r2, [r1, #36]
.Ltmp277:
	@DEBUG_VALUE: HAL_RTC_SetAlarm:subsecondtmpreg <- undef
	.loc	6 0 14 is_stmt 0                @ ../Libraries/STM32F4xx_HAL_Driver/Src/stm32f4xx_hal_rtc.c:0:14
	movs	r1, #202
.Ltmp278:
	@DEBUG_VALUE: HAL_RTC_SetAlarm:sAlarm <- [DW_OP_LLVM_entry_value 1] $r1
	.loc	6 1154 3 is_stmt 1              @ ../Libraries/STM32F4xx_HAL_Driver/Src/stm32f4xx_hal_rtc.c:1154:3
	str	r1, [r0, #36]
	movs	r1, #83
	str	r1, [r0, #36]
.Ltmp279:
	.loc	6 0 0 is_stmt 0                 @ ../Libraries/STM32F4xx_HAL_Driver/Src/stm32f4xx_hal_rtc.c:0:0
	ldr	r1, [r0, #8]
.Ltmp280:
	.loc	6 1157 6 is_stmt 1              @ ../Libraries/STM32F4xx_HAL_Driver/Src/stm32f4xx_hal_rtc.c:1157:6
	cmp.w	r2, #256
	bne	.LBB12_14
.Ltmp281:
@ %bb.11:
	@DEBUG_VALUE: HAL_RTC_SetAlarm:sAlarm <- [DW_OP_LLVM_entry_value 1] $r1
	@DEBUG_VALUE: HAL_RTC_SetAlarm:tmpreg <- $r6
	@DEBUG_VALUE: HAL_RTC_SetAlarm:Format <- [DW_OP_LLVM_entry_value 1] $r2
	@DEBUG_VALUE: HAL_RTC_SetAlarm:hrtc <- $r4
	@DEBUG_VALUE: HAL_RTC_SetAlarm:tickstart <- 0
	.loc	6 1160 5                        @ ../Libraries/STM32F4xx_HAL_Driver/Src/stm32f4xx_hal_rtc.c:1160:5
	bic	r1, r1, #256
	str	r1, [r0, #8]
	.loc	6 1163 5                        @ ../Libraries/STM32F4xx_HAL_Driver/Src/stm32f4xx_hal_rtc.c:1163:5
	ldr	r1, [r0, #8]
	bic	r1, r1, #4096
	str	r1, [r0, #8]
	.loc	6 1166 17                       @ ../Libraries/STM32F4xx_HAL_Driver/Src/stm32f4xx_hal_rtc.c:1166:17
	bl	HAL_GetTick
.Ltmp282:
	mov	r5, r0
.Ltmp283:
	@DEBUG_VALUE: HAL_RTC_SetAlarm:tickstart <- $r5
	.p2align	2
.LBB12_12:                              @ =>This Inner Loop Header: Depth=1
	@DEBUG_VALUE: HAL_RTC_SetAlarm:tickstart <- $r5
	@DEBUG_VALUE: HAL_RTC_SetAlarm:sAlarm <- [DW_OP_LLVM_entry_value 1] $r1
	@DEBUG_VALUE: HAL_RTC_SetAlarm:tmpreg <- $r6
	@DEBUG_VALUE: HAL_RTC_SetAlarm:Format <- [DW_OP_LLVM_entry_value 1] $r2
	@DEBUG_VALUE: HAL_RTC_SetAlarm:hrtc <- $r4
	.loc	6 1169 11                       @ ../Libraries/STM32F4xx_HAL_Driver/Src/stm32f4xx_hal_rtc.c:1169:11
	ldr	r1, [r4]
	ldr	r0, [r1, #12]
	.loc	6 1169 5 is_stmt 0              @ ../Libraries/STM32F4xx_HAL_Driver/Src/stm32f4xx_hal_rtc.c:1169:5
	lsls	r0, r0, #31
	bne	.LBB12_18
.Ltmp284:
@ %bb.13:                               @   in Loop: Header=BB12_12 Depth=1
	@DEBUG_VALUE: HAL_RTC_SetAlarm:tickstart <- $r5
	@DEBUG_VALUE: HAL_RTC_SetAlarm:sAlarm <- [DW_OP_LLVM_entry_value 1] $r1
	@DEBUG_VALUE: HAL_RTC_SetAlarm:tmpreg <- $r6
	@DEBUG_VALUE: HAL_RTC_SetAlarm:Format <- [DW_OP_LLVM_entry_value 1] $r2
	@DEBUG_VALUE: HAL_RTC_SetAlarm:hrtc <- $r4
	.loc	6 1171 11 is_stmt 1             @ ../Libraries/STM32F4xx_HAL_Driver/Src/stm32f4xx_hal_rtc.c:1171:11
	bl	HAL_GetTick
.Ltmp285:
	.loc	6 1171 25 is_stmt 0             @ ../Libraries/STM32F4xx_HAL_Driver/Src/stm32f4xx_hal_rtc.c:1171:25
	subs	r0, r0, r5
.Ltmp286:
	.loc	6 1171 10                       @ ../Libraries/STM32F4xx_HAL_Driver/Src/stm32f4xx_hal_rtc.c:1171:10
	cmp.w	r0, #1000
	bls	.LBB12_12
	b	.LBB12_17
.Ltmp287:
.LBB12_14:
	@DEBUG_VALUE: HAL_RTC_SetAlarm:sAlarm <- [DW_OP_LLVM_entry_value 1] $r1
	@DEBUG_VALUE: HAL_RTC_SetAlarm:tmpreg <- $r6
	@DEBUG_VALUE: HAL_RTC_SetAlarm:Format <- [DW_OP_LLVM_entry_value 1] $r2
	@DEBUG_VALUE: HAL_RTC_SetAlarm:hrtc <- $r4
	@DEBUG_VALUE: HAL_RTC_SetAlarm:tickstart <- 0
	.loc	6 1194 5 is_stmt 1              @ ../Libraries/STM32F4xx_HAL_Driver/Src/stm32f4xx_hal_rtc.c:1194:5
	bic	r1, r1, #512
	str	r1, [r0, #8]
	.loc	6 1197 5                        @ ../Libraries/STM32F4xx_HAL_Driver/Src/stm32f4xx_hal_rtc.c:1197:5
	ldr	r1, [r0, #8]
	bic	r1, r1, #8192
	str	r1, [r0, #8]
	.loc	6 1200 17                       @ ../Libraries/STM32F4xx_HAL_Driver/Src/stm32f4xx_hal_rtc.c:1200:17
	bl	HAL_GetTick
.Ltmp288:
	mov	r5, r0
.Ltmp289:
	@DEBUG_VALUE: HAL_RTC_SetAlarm:tickstart <- $r5
	.p2align	2
.LBB12_15:                              @ =>This Inner Loop Header: Depth=1
	@DEBUG_VALUE: HAL_RTC_SetAlarm:tickstart <- $r5
	@DEBUG_VALUE: HAL_RTC_SetAlarm:sAlarm <- [DW_OP_LLVM_entry_value 1] $r1
	@DEBUG_VALUE: HAL_RTC_SetAlarm:tmpreg <- $r6
	@DEBUG_VALUE: HAL_RTC_SetAlarm:Format <- [DW_OP_LLVM_entry_value 1] $r2
	@DEBUG_VALUE: HAL_RTC_SetAlarm:hrtc <- $r4
	.loc	6 1203 11                       @ ../Libraries/STM32F4xx_HAL_Driver/Src/stm32f4xx_hal_rtc.c:1203:11
	ldr	r1, [r4]
	ldr	r0, [r1, #12]
	.loc	6 1203 5 is_stmt 0              @ ../Libraries/STM32F4xx_HAL_Driver/Src/stm32f4xx_hal_rtc.c:1203:5
	lsls	r0, r0, #30
	bmi	.LBB12_19
.Ltmp290:
@ %bb.16:                               @   in Loop: Header=BB12_15 Depth=1
	@DEBUG_VALUE: HAL_RTC_SetAlarm:tickstart <- $r5
	@DEBUG_VALUE: HAL_RTC_SetAlarm:sAlarm <- [DW_OP_LLVM_entry_value 1] $r1
	@DEBUG_VALUE: HAL_RTC_SetAlarm:tmpreg <- $r6
	@DEBUG_VALUE: HAL_RTC_SetAlarm:Format <- [DW_OP_LLVM_entry_value 1] $r2
	@DEBUG_VALUE: HAL_RTC_SetAlarm:hrtc <- $r4
	.loc	6 1205 11 is_stmt 1             @ ../Libraries/STM32F4xx_HAL_Driver/Src/stm32f4xx_hal_rtc.c:1205:11
	bl	HAL_GetTick
.Ltmp291:
	.loc	6 1205 25 is_stmt 0             @ ../Libraries/STM32F4xx_HAL_Driver/Src/stm32f4xx_hal_rtc.c:1205:25
	subs	r0, r0, r5
.Ltmp292:
	.loc	6 1205 10                       @ ../Libraries/STM32F4xx_HAL_Driver/Src/stm32f4xx_hal_rtc.c:1205:10
	cmp.w	r0, #1000
	bls	.LBB12_15
.Ltmp293:
.LBB12_17:
	@DEBUG_VALUE: HAL_RTC_SetAlarm:tickstart <- $r5
	@DEBUG_VALUE: HAL_RTC_SetAlarm:sAlarm <- [DW_OP_LLVM_entry_value 1] $r1
	@DEBUG_VALUE: HAL_RTC_SetAlarm:tmpreg <- $r6
	@DEBUG_VALUE: HAL_RTC_SetAlarm:Format <- [DW_OP_LLVM_entry_value 1] $r2
	@DEBUG_VALUE: HAL_RTC_SetAlarm:hrtc <- $r4
	.loc	6 0 0                           @ ../Libraries/STM32F4xx_HAL_Driver/Src/stm32f4xx_hal_rtc.c:0:0
	ldr	r1, [r4]
	movs	r2, #3
	movs	r0, #3
	b	.LBB12_21
.Ltmp294:
.LBB12_18:
	@DEBUG_VALUE: HAL_RTC_SetAlarm:tickstart <- $r5
	@DEBUG_VALUE: HAL_RTC_SetAlarm:sAlarm <- [DW_OP_LLVM_entry_value 1] $r1
	@DEBUG_VALUE: HAL_RTC_SetAlarm:tmpreg <- $r6
	@DEBUG_VALUE: HAL_RTC_SetAlarm:Format <- [DW_OP_LLVM_entry_value 1] $r2
	@DEBUG_VALUE: HAL_RTC_SetAlarm:hrtc <- $r4
	.loc	6 1185 28 is_stmt 1             @ ../Libraries/STM32F4xx_HAL_Driver/Src/stm32f4xx_hal_rtc.c:1185:28
	str	r6, [r1, #28]
	.loc	6 1187 21                       @ ../Libraries/STM32F4xx_HAL_Driver/Src/stm32f4xx_hal_rtc.c:1187:21
	add.w	r0, r1, #68
	mov.w	r2, #256
	b	.LBB12_20
.Ltmp295:
.LBB12_19:
	@DEBUG_VALUE: HAL_RTC_SetAlarm:tickstart <- $r5
	@DEBUG_VALUE: HAL_RTC_SetAlarm:sAlarm <- [DW_OP_LLVM_entry_value 1] $r1
	@DEBUG_VALUE: HAL_RTC_SetAlarm:tmpreg <- $r6
	@DEBUG_VALUE: HAL_RTC_SetAlarm:Format <- [DW_OP_LLVM_entry_value 1] $r2
	@DEBUG_VALUE: HAL_RTC_SetAlarm:hrtc <- $r4
	.loc	6 1221 21                       @ ../Libraries/STM32F4xx_HAL_Driver/Src/stm32f4xx_hal_rtc.c:1221:21
	add.w	r0, r1, #72
	mov.w	r2, #512
	.loc	6 1219 28                       @ ../Libraries/STM32F4xx_HAL_Driver/Src/stm32f4xx_hal_rtc.c:1219:28
	str	r6, [r1, #32]
.Ltmp296:
.LBB12_20:
	@DEBUG_VALUE: HAL_RTC_SetAlarm:tickstart <- $r5
	@DEBUG_VALUE: HAL_RTC_SetAlarm:sAlarm <- [DW_OP_LLVM_entry_value 1] $r1
	@DEBUG_VALUE: HAL_RTC_SetAlarm:tmpreg <- $r6
	@DEBUG_VALUE: HAL_RTC_SetAlarm:Format <- [DW_OP_LLVM_entry_value 1] $r2
	@DEBUG_VALUE: HAL_RTC_SetAlarm:hrtc <- $r4
	.loc	6 0 0 is_stmt 0                 @ ../Libraries/STM32F4xx_HAL_Driver/Src/stm32f4xx_hal_rtc.c:0:0
	orr.w	r3, r7, r8
.Ltmp297:
	@DEBUG_VALUE: HAL_RTC_SetAlarm:subsecondtmpreg <- $r3
	str	r3, [r0]
	ldr	r0, [r1, #8]
	orrs	r0, r2
	str	r0, [r1, #8]
	movs	r0, #0
	movs	r2, #1
.Ltmp298:
.LBB12_21:
	@DEBUG_VALUE: HAL_RTC_SetAlarm:tickstart <- $r5
	@DEBUG_VALUE: HAL_RTC_SetAlarm:sAlarm <- [DW_OP_LLVM_entry_value 1] $r1
	@DEBUG_VALUE: HAL_RTC_SetAlarm:tmpreg <- $r6
	@DEBUG_VALUE: HAL_RTC_SetAlarm:Format <- [DW_OP_LLVM_entry_value 1] $r2
	@DEBUG_VALUE: HAL_RTC_SetAlarm:hrtc <- $r4
	movs	r3, #255
	str	r3, [r1, #36]
	movs	r1, #0
	strb	r2, [r4, #29]
	strb	r1, [r4, #28]
.Ltmp299:
.LBB12_22:
	@DEBUG_VALUE: HAL_RTC_SetAlarm:hrtc <- $r4
	.loc	6 1236 1 is_stmt 1              @ ../Libraries/STM32F4xx_HAL_Driver/Src/stm32f4xx_hal_rtc.c:1236:1
	add	sp, #4
	pop.w	{r4, r5, r6, r7, r8, r9, pc}
.Ltmp300:
.Lfunc_end12:
	.size	HAL_RTC_SetAlarm, .Lfunc_end12-HAL_RTC_SetAlarm
	.cfi_endproc
	.cantunwind
	.fnend
                                        @ -- End function
	.section	.text.HAL_RTC_SetAlarm_IT,"ax",%progbits
	.hidden	HAL_RTC_SetAlarm_IT             @ -- Begin function HAL_RTC_SetAlarm_IT
	.globl	HAL_RTC_SetAlarm_IT
	.p2align	2
	.type	HAL_RTC_SetAlarm_IT,%function
	.code	16                              @ @HAL_RTC_SetAlarm_IT
	.thumb_func
HAL_RTC_SetAlarm_IT:
.Lfunc_begin13:
	.loc	6 1250 0                        @ ../Libraries/STM32F4xx_HAL_Driver/Src/stm32f4xx_hal_rtc.c:1250:0
	.fnstart
	.cfi_startproc
@ %bb.0:
	@DEBUG_VALUE: HAL_RTC_SetAlarm_IT:hrtc <- $r0
	@DEBUG_VALUE: HAL_RTC_SetAlarm_IT:sAlarm <- $r1
	@DEBUG_VALUE: HAL_RTC_SetAlarm_IT:Format <- $r2
	.save	{r4, r5, r6, r7, r8, r9, lr}
	push.w	{r4, r5, r6, r7, r8, r9, lr}
	.cfi_def_cfa_offset 28
	.cfi_offset lr, -4
	.cfi_offset r9, -8
	.cfi_offset r8, -12
	.cfi_offset r7, -16
	.cfi_offset r6, -20
	.cfi_offset r5, -24
	.cfi_offset r4, -28
	.pad	#4
	sub	sp, #4
	.cfi_def_cfa_offset 32
.Ltmp301:
	.loc	6 1252 47 prologue_end          @ ../Libraries/STM32F4xx_HAL_Driver/Src/stm32f4xx_hal_rtc.c:1252:47
	movw	r3, :lower16:SystemCoreClock
	movt	r3, :upper16:SystemCoreClock
	ldr	r3, [r3]
	movw	r4, #19923
	movt	r4, #4194
	.loc	6 1252 69 is_stmt 0             @ ../Libraries/STM32F4xx_HAL_Driver/Src/stm32f4xx_hal_rtc.c:1252:69
	umull	r3, r4, r3, r4
.Ltmp302:
	@DEBUG_VALUE: HAL_RTC_SetAlarm_IT:subsecondtmpreg <- 0
	@DEBUG_VALUE: HAL_RTC_SetAlarm_IT:tmpreg <- 0
	lsrs	r3, r4, #11
	mov.w	r4, #1000
	.loc	6 1252 44                       @ ../Libraries/STM32F4xx_HAL_Driver/Src/stm32f4xx_hal_rtc.c:1252:44
	muls	r3, r4, r3
	.loc	6 1252 17                       @ ../Libraries/STM32F4xx_HAL_Driver/Src/stm32f4xx_hal_rtc.c:1252:17
	str	r3, [sp]
.Ltmp303:
	.loc	6 1263 3 is_stmt 1              @ ../Libraries/STM32F4xx_HAL_Driver/Src/stm32f4xx_hal_rtc.c:1263:3
	ldrb	r3, [r0, #28]
.Ltmp304:
	.loc	6 1263 3 is_stmt 0              @ ../Libraries/STM32F4xx_HAL_Driver/Src/stm32f4xx_hal_rtc.c:1263:3
	cmp	r3, #1
	mov.w	r3, #2
	beq.w	.LBB13_34
.Ltmp305:
@ %bb.1:
	@DEBUG_VALUE: HAL_RTC_SetAlarm_IT:tmpreg <- 0
	@DEBUG_VALUE: HAL_RTC_SetAlarm_IT:subsecondtmpreg <- 0
	@DEBUG_VALUE: HAL_RTC_SetAlarm_IT:Format <- $r2
	@DEBUG_VALUE: HAL_RTC_SetAlarm_IT:sAlarm <- $r1
	@DEBUG_VALUE: HAL_RTC_SetAlarm_IT:hrtc <- $r0
	.loc	6 1265 15 is_stmt 1             @ ../Libraries/STM32F4xx_HAL_Driver/Src/stm32f4xx_hal_rtc.c:1265:15
	strb	r3, [r0, #29]
.Ltmp306:
	.loc	6 0 0 is_stmt 0                 @ ../Libraries/STM32F4xx_HAL_Driver/Src/stm32f4xx_hal_rtc.c:0:0
	ldr.w	r12, [r0]
.Ltmp307:
	.loc	6 1267 6 is_stmt 1              @ ../Libraries/STM32F4xx_HAL_Driver/Src/stm32f4xx_hal_rtc.c:1267:6
	cmp	r2, #0
.Ltmp308:
	.loc	6 0 0 is_stmt 0                 @ ../Libraries/STM32F4xx_HAL_Driver/Src/stm32f4xx_hal_rtc.c:0:0
	ldr.w	r3, [r12, #8]
	and	r2, r3, #64
.Ltmp309:
	@DEBUG_VALUE: HAL_RTC_SetAlarm_IT:Format <- [DW_OP_LLVM_entry_value 1] $r2
	.loc	6 1267 6                        @ ../Libraries/STM32F4xx_HAL_Driver/Src/stm32f4xx_hal_rtc.c:1267:6
	beq	.LBB13_4
.Ltmp310:
@ %bb.2:
	@DEBUG_VALUE: HAL_RTC_SetAlarm_IT:Format <- [DW_OP_LLVM_entry_value 1] $r2
	@DEBUG_VALUE: HAL_RTC_SetAlarm_IT:tmpreg <- 0
	@DEBUG_VALUE: HAL_RTC_SetAlarm_IT:subsecondtmpreg <- 0
	@DEBUG_VALUE: HAL_RTC_SetAlarm_IT:sAlarm <- $r1
	@DEBUG_VALUE: HAL_RTC_SetAlarm_IT:hrtc <- $r0
	.loc	6 1300 8 is_stmt 1              @ ../Libraries/STM32F4xx_HAL_Driver/Src/stm32f4xx_hal_rtc.c:1300:8
	cbnz	r2, .LBB13_6
.Ltmp311:
@ %bb.3:
	@DEBUG_VALUE: HAL_RTC_SetAlarm_IT:Format <- [DW_OP_LLVM_entry_value 1] $r2
	@DEBUG_VALUE: HAL_RTC_SetAlarm_IT:tmpreg <- 0
	@DEBUG_VALUE: HAL_RTC_SetAlarm_IT:subsecondtmpreg <- 0
	@DEBUG_VALUE: HAL_RTC_SetAlarm_IT:sAlarm <- $r1
	@DEBUG_VALUE: HAL_RTC_SetAlarm_IT:hrtc <- $r0
	.loc	6 0 8 is_stmt 0                 @ ../Libraries/STM32F4xx_HAL_Driver/Src/stm32f4xx_hal_rtc.c:0:8
	movs	r2, #0
.Ltmp312:
	.loc	6 1307 36 is_stmt 1             @ ../Libraries/STM32F4xx_HAL_Driver/Src/stm32f4xx_hal_rtc.c:1307:36
	strb	r2, [r1, #3]
	b	.LBB13_7
.Ltmp313:
.LBB13_4:
	@DEBUG_VALUE: HAL_RTC_SetAlarm_IT:Format <- [DW_OP_LLVM_entry_value 1] $r2
	@DEBUG_VALUE: HAL_RTC_SetAlarm_IT:tmpreg <- 0
	@DEBUG_VALUE: HAL_RTC_SetAlarm_IT:subsecondtmpreg <- 0
	@DEBUG_VALUE: HAL_RTC_SetAlarm_IT:sAlarm <- $r1
	@DEBUG_VALUE: HAL_RTC_SetAlarm_IT:hrtc <- $r0
	.loc	6 1269 8                        @ ../Libraries/STM32F4xx_HAL_Driver/Src/stm32f4xx_hal_rtc.c:1269:8
	cbnz	r2, .LBB13_8
.Ltmp314:
@ %bb.5:
	@DEBUG_VALUE: HAL_RTC_SetAlarm_IT:Format <- [DW_OP_LLVM_entry_value 1] $r2
	@DEBUG_VALUE: HAL_RTC_SetAlarm_IT:tmpreg <- 0
	@DEBUG_VALUE: HAL_RTC_SetAlarm_IT:subsecondtmpreg <- 0
	@DEBUG_VALUE: HAL_RTC_SetAlarm_IT:sAlarm <- $r1
	@DEBUG_VALUE: HAL_RTC_SetAlarm_IT:hrtc <- $r0
	.loc	6 0 8 is_stmt 0                 @ ../Libraries/STM32F4xx_HAL_Driver/Src/stm32f4xx_hal_rtc.c:0:8
	mov.w	lr, #0
.Ltmp315:
	.loc	6 1276 36 is_stmt 1             @ ../Libraries/STM32F4xx_HAL_Driver/Src/stm32f4xx_hal_rtc.c:1276:36
	strb.w	lr, [r1, #3]
	b	.LBB13_9
.Ltmp316:
.LBB13_6:
	@DEBUG_VALUE: HAL_RTC_SetAlarm_IT:Format <- [DW_OP_LLVM_entry_value 1] $r2
	@DEBUG_VALUE: HAL_RTC_SetAlarm_IT:tmpreg <- 0
	@DEBUG_VALUE: HAL_RTC_SetAlarm_IT:subsecondtmpreg <- 0
	@DEBUG_VALUE: HAL_RTC_SetAlarm_IT:sAlarm <- $r1
	@DEBUG_VALUE: HAL_RTC_SetAlarm_IT:hrtc <- $r0
	.loc	6 1325 45                       @ ../Libraries/STM32F4xx_HAL_Driver/Src/stm32f4xx_hal_rtc.c:1325:45
	ldrb	r2, [r1, #3]
	.loc	6 1300 8                        @ ../Libraries/STM32F4xx_HAL_Driver/Src/stm32f4xx_hal_rtc.c:1300:8
	lsls	r2, r2, #16
.Ltmp317:
.LBB13_7:
	@DEBUG_VALUE: HAL_RTC_SetAlarm_IT:Format <- [DW_OP_LLVM_entry_value 1] $r2
	@DEBUG_VALUE: HAL_RTC_SetAlarm_IT:tmpreg <- 0
	@DEBUG_VALUE: HAL_RTC_SetAlarm_IT:subsecondtmpreg <- 0
	@DEBUG_VALUE: HAL_RTC_SetAlarm_IT:sAlarm <- $r1
	@DEBUG_VALUE: HAL_RTC_SetAlarm_IT:hrtc <- $r0
	.loc	6 1323 45                       @ ../Libraries/STM32F4xx_HAL_Driver/Src/stm32f4xx_hal_rtc.c:1323:45
	ldrb	r7, [r1, #1]
	.loc	6 1322 45                       @ ../Libraries/STM32F4xx_HAL_Driver/Src/stm32f4xx_hal_rtc.c:1322:45
	ldrb	r3, [r1]
	.loc	6 1324 45                       @ ../Libraries/STM32F4xx_HAL_Driver/Src/stm32f4xx_hal_rtc.c:1324:45
	ldrb	r6, [r1, #2]
	.loc	6 1323 54                       @ ../Libraries/STM32F4xx_HAL_Driver/Src/stm32f4xx_hal_rtc.c:1323:54
	lsls	r7, r7, #8
	.loc	6 1322 60                       @ ../Libraries/STM32F4xx_HAL_Driver/Src/stm32f4xx_hal_rtc.c:1322:60
	orr.w	r3, r7, r3, lsl #16
	.loc	6 1323 61                       @ ../Libraries/STM32F4xx_HAL_Driver/Src/stm32f4xx_hal_rtc.c:1323:61
	add	r3, r6
	.loc	6 1327 34                       @ ../Libraries/STM32F4xx_HAL_Driver/Src/stm32f4xx_hal_rtc.c:1327:34
	ldr	r7, [r1, #28]
	.loc	6 1324 54                       @ ../Libraries/STM32F4xx_HAL_Driver/Src/stm32f4xx_hal_rtc.c:1324:54
	orrs	r2, r3
	.loc	6 1326 16                       @ ../Libraries/STM32F4xx_HAL_Driver/Src/stm32f4xx_hal_rtc.c:1326:16
	ldrb.w	r3, [r1, #32]
	.loc	6 1328 34                       @ ../Libraries/STM32F4xx_HAL_Driver/Src/stm32f4xx_hal_rtc.c:1328:34
	ldr	r6, [r1, #20]
	.loc	6 1325 65                       @ ../Libraries/STM32F4xx_HAL_Driver/Src/stm32f4xx_hal_rtc.c:1325:65
	orrs	r2, r7
	.loc	6 1326 61                       @ ../Libraries/STM32F4xx_HAL_Driver/Src/stm32f4xx_hal_rtc.c:1326:61
	orr.w	r2, r2, r3, lsl #24
	.loc	6 1327 55                       @ ../Libraries/STM32F4xx_HAL_Driver/Src/stm32f4xx_hal_rtc.c:1327:55
	orrs	r2, r6
.Ltmp318:
	@DEBUG_VALUE: HAL_RTC_SetAlarm_IT:tmpreg <- $r2
	.loc	6 0 55 is_stmt 0                @ ../Libraries/STM32F4xx_HAL_Driver/Src/stm32f4xx_hal_rtc.c:0:55
	b	.LBB13_10
.Ltmp319:
.LBB13_8:
	@DEBUG_VALUE: HAL_RTC_SetAlarm_IT:Format <- [DW_OP_LLVM_entry_value 1] $r2
	@DEBUG_VALUE: HAL_RTC_SetAlarm_IT:tmpreg <- 0
	@DEBUG_VALUE: HAL_RTC_SetAlarm_IT:subsecondtmpreg <- 0
	@DEBUG_VALUE: HAL_RTC_SetAlarm_IT:sAlarm <- $r1
	@DEBUG_VALUE: HAL_RTC_SetAlarm_IT:hrtc <- $r0
	.loc	6 1293 45 is_stmt 1             @ ../Libraries/STM32F4xx_HAL_Driver/Src/stm32f4xx_hal_rtc.c:1293:45
	ldrb	r2, [r1, #3]
	.loc	6 1269 8                        @ ../Libraries/STM32F4xx_HAL_Driver/Src/stm32f4xx_hal_rtc.c:1269:8
	lsl.w	lr, r2, #16
.Ltmp320:
.LBB13_9:
	@DEBUG_VALUE: HAL_RTC_SetAlarm_IT:Format <- [DW_OP_LLVM_entry_value 1] $r2
	@DEBUG_VALUE: HAL_RTC_SetAlarm_IT:tmpreg <- 0
	@DEBUG_VALUE: HAL_RTC_SetAlarm_IT:subsecondtmpreg <- 0
	@DEBUG_VALUE: HAL_RTC_SetAlarm_IT:sAlarm <- $r1
	@DEBUG_VALUE: HAL_RTC_SetAlarm_IT:hrtc <- $r0
	.loc	6 1290 59                       @ ../Libraries/STM32F4xx_HAL_Driver/Src/stm32f4xx_hal_rtc.c:1290:59
	ldrb	r5, [r1]
	mov.w	r8, #205
.Ltmp321:
	.loc	6 1874 3                        @ ../Libraries/STM32F4xx_HAL_Driver/Src/stm32f4xx_hal_rtc.c:1874:3
	sub.w	r2, r5, #10
	uxtb	r7, r2
	mul	r7, r7, r8
	lsrs	r3, r7, #11
.Ltmp322:
	.loc	6 1291 59                       @ ../Libraries/STM32F4xx_HAL_Driver/Src/stm32f4xx_hal_rtc.c:1291:59
	ldrb	r6, [r1, #1]
	add.w	r3, r3, r3, lsl #2
	mov.w	r9, #1
	.loc	6 1292 59                       @ ../Libraries/STM32F4xx_HAL_Driver/Src/stm32f4xx_hal_rtc.c:1292:59
	ldrb	r4, [r1, #2]
.Ltmp323:
	@DEBUG_VALUE: RTC_ByteToBcd2:bcdhigh <- 0
	@DEBUG_VALUE: RTC_ByteToBcd2:Value <- $r5
	.loc	6 0 59 is_stmt 0                @ ../Libraries/STM32F4xx_HAL_Driver/Src/stm32f4xx_hal_rtc.c:0:59
	sub.w	r3, r2, r3, lsl #1
.Ltmp324:
	.loc	6 1874 3 is_stmt 1              @ ../Libraries/STM32F4xx_HAL_Driver/Src/stm32f4xx_hal_rtc.c:1874:3
	add.w	r7, r9, r7, lsr #11
	.loc	6 1880 11                       @ ../Libraries/STM32F4xx_HAL_Driver/Src/stm32f4xx_hal_rtc.c:1880:11
	cmp	r5, #9
	it	hi
	orrhi.w	r5, r3, r7, lsl #4
.Ltmp325:
	.loc	6 1290 16                       @ ../Libraries/STM32F4xx_HAL_Driver/Src/stm32f4xx_hal_rtc.c:1290:16
	uxtb	r3, r5
.Ltmp326:
	@DEBUG_VALUE: RTC_ByteToBcd2:bcdhigh <- 0
	@DEBUG_VALUE: RTC_ByteToBcd2:Value <- $r6
	.loc	6 1874 3                        @ ../Libraries/STM32F4xx_HAL_Driver/Src/stm32f4xx_hal_rtc.c:1874:3
	sub.w	r5, r6, #10
	uxtb	r7, r5
	mul	r7, r7, r8
	lsrs	r2, r7, #11
	add.w	r2, r2, r2, lsl #2
	sub.w	r2, r5, r2, lsl #1
	add.w	r5, r9, r7, lsr #11
	.loc	6 1880 11                       @ ../Libraries/STM32F4xx_HAL_Driver/Src/stm32f4xx_hal_rtc.c:1880:11
	cmp	r6, #9
	it	hi
	orrhi.w	r6, r2, r5, lsl #4
.Ltmp327:
	.loc	6 1291 16                       @ ../Libraries/STM32F4xx_HAL_Driver/Src/stm32f4xx_hal_rtc.c:1291:16
	uxtb	r2, r6
	.loc	6 1291 68 is_stmt 0             @ ../Libraries/STM32F4xx_HAL_Driver/Src/stm32f4xx_hal_rtc.c:1291:68
	lsls	r2, r2, #8
	.loc	6 1290 74 is_stmt 1             @ ../Libraries/STM32F4xx_HAL_Driver/Src/stm32f4xx_hal_rtc.c:1290:74
	orr.w	r2, r2, r3, lsl #16
.Ltmp328:
	@DEBUG_VALUE: RTC_ByteToBcd2:bcdhigh <- 0
	@DEBUG_VALUE: RTC_ByteToBcd2:Value <- $r4
	.loc	6 1874 3                        @ ../Libraries/STM32F4xx_HAL_Driver/Src/stm32f4xx_hal_rtc.c:1874:3
	sub.w	r3, r4, #10
	uxtb	r5, r3
	mul	r5, r5, r8
	lsrs	r6, r5, #11
	add.w	r6, r6, r6, lsl #2
	sub.w	r3, r3, r6, lsl #1
	add.w	r5, r9, r5, lsr #11
	.loc	6 1880 11                       @ ../Libraries/STM32F4xx_HAL_Driver/Src/stm32f4xx_hal_rtc.c:1880:11
	cmp	r4, #9
	it	hi
	orrhi.w	r4, r3, r5, lsl #4
.Ltmp329:
	.loc	6 1292 16                       @ ../Libraries/STM32F4xx_HAL_Driver/Src/stm32f4xx_hal_rtc.c:1292:16
	uxtb	r3, r4
	.loc	6 1291 75                       @ ../Libraries/STM32F4xx_HAL_Driver/Src/stm32f4xx_hal_rtc.c:1291:75
	add	r2, r3
	.loc	6 1294 49                       @ ../Libraries/STM32F4xx_HAL_Driver/Src/stm32f4xx_hal_rtc.c:1294:49
	ldrb.w	r3, [r1, #32]
	.loc	6 1292 69                       @ ../Libraries/STM32F4xx_HAL_Driver/Src/stm32f4xx_hal_rtc.c:1292:69
	orr.w	r2, r2, lr
.Ltmp330:
	@DEBUG_VALUE: RTC_ByteToBcd2:bcdhigh <- 0
	@DEBUG_VALUE: RTC_ByteToBcd2:Value <- $r3
	.loc	6 1874 3                        @ ../Libraries/STM32F4xx_HAL_Driver/Src/stm32f4xx_hal_rtc.c:1874:3
	sub.w	r7, r3, #10
	uxtb	r6, r7
	mul	r6, r6, r8
	lsrs	r5, r6, #11
	add.w	r5, r5, r5, lsl #2
	sub.w	r7, r7, r5, lsl #1
	add.w	r6, r9, r6, lsr #11
	.loc	6 1880 11                       @ ../Libraries/STM32F4xx_HAL_Driver/Src/stm32f4xx_hal_rtc.c:1880:11
	cmp	r3, #9
	it	hi
	orrhi.w	r3, r7, r6, lsl #4
.Ltmp331:
	.loc	6 1295 34                       @ ../Libraries/STM32F4xx_HAL_Driver/Src/stm32f4xx_hal_rtc.c:1295:34
	ldr	r7, [r1, #28]
	.loc	6 1296 34                       @ ../Libraries/STM32F4xx_HAL_Driver/Src/stm32f4xx_hal_rtc.c:1296:34
	ldr	r6, [r1, #20]
	.loc	6 1293 65                       @ ../Libraries/STM32F4xx_HAL_Driver/Src/stm32f4xx_hal_rtc.c:1293:65
	orr.w	r2, r2, r3, lsl #24
	.loc	6 1294 75                       @ ../Libraries/STM32F4xx_HAL_Driver/Src/stm32f4xx_hal_rtc.c:1294:75
	orr.w	r3, r6, r7
	.loc	6 1295 55                       @ ../Libraries/STM32F4xx_HAL_Driver/Src/stm32f4xx_hal_rtc.c:1295:55
	orrs	r2, r3
.Ltmp332:
	@DEBUG_VALUE: HAL_RTC_SetAlarm_IT:tmpreg <- $r2
.LBB13_10:
	@DEBUG_VALUE: HAL_RTC_SetAlarm_IT:tmpreg <- $r2
	@DEBUG_VALUE: HAL_RTC_SetAlarm_IT:Format <- [DW_OP_LLVM_entry_value 1] $r2
	@DEBUG_VALUE: HAL_RTC_SetAlarm_IT:subsecondtmpreg <- 0
	@DEBUG_VALUE: HAL_RTC_SetAlarm_IT:sAlarm <- $r1
	@DEBUG_VALUE: HAL_RTC_SetAlarm_IT:hrtc <- $r0
	@DEBUG_VALUE: HAL_RTC_SetAlarm_IT:tmpreg <- $r2
	.loc	6 1331 61                       @ ../Libraries/STM32F4xx_HAL_Driver/Src/stm32f4xx_hal_rtc.c:1331:61
	ldr.w	lr, [r1, #4]
	.loc	6 1331 94 is_stmt 0             @ ../Libraries/STM32F4xx_HAL_Driver/Src/stm32f4xx_hal_rtc.c:1331:94
	ldr	r3, [r1, #24]
.Ltmp333:
	.loc	6 1337 14 is_stmt 1             @ ../Libraries/STM32F4xx_HAL_Driver/Src/stm32f4xx_hal_rtc.c:1337:14
	ldr	r4, [r1, #36]
.Ltmp334:
	@DEBUG_VALUE: HAL_RTC_SetAlarm_IT:subsecondtmpreg <- undef
	.loc	6 0 14 is_stmt 0                @ ../Libraries/STM32F4xx_HAL_Driver/Src/stm32f4xx_hal_rtc.c:0:14
	movs	r1, #202
.Ltmp335:
	@DEBUG_VALUE: HAL_RTC_SetAlarm_IT:sAlarm <- [DW_OP_LLVM_entry_value 1] $r1
	.loc	6 1334 3 is_stmt 1              @ ../Libraries/STM32F4xx_HAL_Driver/Src/stm32f4xx_hal_rtc.c:1334:3
	str.w	r1, [r12, #36]
	movs	r1, #83
	str.w	r1, [r12, #36]
.Ltmp336:
	.loc	6 0 0 is_stmt 0                 @ ../Libraries/STM32F4xx_HAL_Driver/Src/stm32f4xx_hal_rtc.c:0:0
	ldr.w	r1, [r12, #8]
.Ltmp337:
	.loc	6 1337 6 is_stmt 1              @ ../Libraries/STM32F4xx_HAL_Driver/Src/stm32f4xx_hal_rtc.c:1337:6
	cmp.w	r4, #256
	bne	.LBB13_21
.Ltmp338:
@ %bb.11:
	@DEBUG_VALUE: HAL_RTC_SetAlarm_IT:sAlarm <- [DW_OP_LLVM_entry_value 1] $r1
	@DEBUG_VALUE: HAL_RTC_SetAlarm_IT:tmpreg <- $r2
	@DEBUG_VALUE: HAL_RTC_SetAlarm_IT:Format <- [DW_OP_LLVM_entry_value 1] $r2
	@DEBUG_VALUE: HAL_RTC_SetAlarm_IT:hrtc <- $r0
	.loc	6 1340 5                        @ ../Libraries/STM32F4xx_HAL_Driver/Src/stm32f4xx_hal_rtc.c:1340:5
	bic	r1, r1, #256
	str.w	r1, [r12, #8]
	.loc	6 1343 5                        @ ../Libraries/STM32F4xx_HAL_Driver/Src/stm32f4xx_hal_rtc.c:1343:5
	ldr.w	r1, [r12, #12]
	orn	r1, r1, #384
	bic	r1, r1, #256
	str.w	r1, [r12, #12]
.Ltmp339:
.LBB13_12:                              @ =>This Inner Loop Header: Depth=1
	@DEBUG_VALUE: HAL_RTC_SetAlarm_IT:sAlarm <- [DW_OP_LLVM_entry_value 1] $r1
	@DEBUG_VALUE: HAL_RTC_SetAlarm_IT:tmpreg <- $r2
	@DEBUG_VALUE: HAL_RTC_SetAlarm_IT:Format <- [DW_OP_LLVM_entry_value 1] $r2
	@DEBUG_VALUE: HAL_RTC_SetAlarm_IT:hrtc <- $r0
	.loc	6 1348 16                       @ ../Libraries/STM32F4xx_HAL_Driver/Src/stm32f4xx_hal_rtc.c:1348:16
	ldr	r1, [sp]
	subs	r4, r1, #1
.Ltmp340:
	.loc	6 1348 11 is_stmt 0             @ ../Libraries/STM32F4xx_HAL_Driver/Src/stm32f4xx_hal_rtc.c:1348:11
	cmp	r1, #0
.Ltmp341:
	.loc	6 1348 16                       @ ../Libraries/STM32F4xx_HAL_Driver/Src/stm32f4xx_hal_rtc.c:1348:16
	str	r4, [sp]
.Ltmp342:
	.loc	6 1348 11                       @ ../Libraries/STM32F4xx_HAL_Driver/Src/stm32f4xx_hal_rtc.c:1348:11
	beq	.LBB13_32
.Ltmp343:
@ %bb.13:                               @   in Loop: Header=BB13_12 Depth=1
	@DEBUG_VALUE: HAL_RTC_SetAlarm_IT:sAlarm <- [DW_OP_LLVM_entry_value 1] $r1
	@DEBUG_VALUE: HAL_RTC_SetAlarm_IT:tmpreg <- $r2
	@DEBUG_VALUE: HAL_RTC_SetAlarm_IT:Format <- [DW_OP_LLVM_entry_value 1] $r2
	@DEBUG_VALUE: HAL_RTC_SetAlarm_IT:hrtc <- $r0
	.loc	6 1361 12 is_stmt 1             @ ../Libraries/STM32F4xx_HAL_Driver/Src/stm32f4xx_hal_rtc.c:1361:12
	ldr.w	r1, [r12, #12]
.Ltmp344:
	.loc	6 1360 5                        @ ../Libraries/STM32F4xx_HAL_Driver/Src/stm32f4xx_hal_rtc.c:1360:5
	lsls	r1, r1, #31
	bne	.LBB13_20
.Ltmp345:
@ %bb.14:                               @   in Loop: Header=BB13_12 Depth=1
	@DEBUG_VALUE: HAL_RTC_SetAlarm_IT:sAlarm <- [DW_OP_LLVM_entry_value 1] $r1
	@DEBUG_VALUE: HAL_RTC_SetAlarm_IT:tmpreg <- $r2
	@DEBUG_VALUE: HAL_RTC_SetAlarm_IT:Format <- [DW_OP_LLVM_entry_value 1] $r2
	@DEBUG_VALUE: HAL_RTC_SetAlarm_IT:hrtc <- $r0
	.loc	6 1348 16                       @ ../Libraries/STM32F4xx_HAL_Driver/Src/stm32f4xx_hal_rtc.c:1348:16
	ldr	r1, [sp]
	subs	r4, r1, #1
.Ltmp346:
	.loc	6 1348 11 is_stmt 0             @ ../Libraries/STM32F4xx_HAL_Driver/Src/stm32f4xx_hal_rtc.c:1348:11
	cmp	r1, #0
.Ltmp347:
	.loc	6 1348 16                       @ ../Libraries/STM32F4xx_HAL_Driver/Src/stm32f4xx_hal_rtc.c:1348:16
	str	r4, [sp]
.Ltmp348:
	.loc	6 1348 11                       @ ../Libraries/STM32F4xx_HAL_Driver/Src/stm32f4xx_hal_rtc.c:1348:11
	beq	.LBB13_32
.Ltmp349:
@ %bb.15:                               @   in Loop: Header=BB13_12 Depth=1
	@DEBUG_VALUE: HAL_RTC_SetAlarm_IT:sAlarm <- [DW_OP_LLVM_entry_value 1] $r1
	@DEBUG_VALUE: HAL_RTC_SetAlarm_IT:tmpreg <- $r2
	@DEBUG_VALUE: HAL_RTC_SetAlarm_IT:Format <- [DW_OP_LLVM_entry_value 1] $r2
	@DEBUG_VALUE: HAL_RTC_SetAlarm_IT:hrtc <- $r0
	.loc	6 1361 12 is_stmt 1             @ ../Libraries/STM32F4xx_HAL_Driver/Src/stm32f4xx_hal_rtc.c:1361:12
	ldr.w	r1, [r12, #12]
.Ltmp350:
	.loc	6 1360 5                        @ ../Libraries/STM32F4xx_HAL_Driver/Src/stm32f4xx_hal_rtc.c:1360:5
	lsls	r1, r1, #31
	bne	.LBB13_20
.Ltmp351:
@ %bb.16:                               @   in Loop: Header=BB13_12 Depth=1
	@DEBUG_VALUE: HAL_RTC_SetAlarm_IT:sAlarm <- [DW_OP_LLVM_entry_value 1] $r1
	@DEBUG_VALUE: HAL_RTC_SetAlarm_IT:tmpreg <- $r2
	@DEBUG_VALUE: HAL_RTC_SetAlarm_IT:Format <- [DW_OP_LLVM_entry_value 1] $r2
	@DEBUG_VALUE: HAL_RTC_SetAlarm_IT:hrtc <- $r0
	.loc	6 1348 16                       @ ../Libraries/STM32F4xx_HAL_Driver/Src/stm32f4xx_hal_rtc.c:1348:16
	ldr	r1, [sp]
	subs	r4, r1, #1
.Ltmp352:
	.loc	6 1348 11 is_stmt 0             @ ../Libraries/STM32F4xx_HAL_Driver/Src/stm32f4xx_hal_rtc.c:1348:11
	cmp	r1, #0
.Ltmp353:
	.loc	6 1348 16                       @ ../Libraries/STM32F4xx_HAL_Driver/Src/stm32f4xx_hal_rtc.c:1348:16
	str	r4, [sp]
.Ltmp354:
	.loc	6 1348 11                       @ ../Libraries/STM32F4xx_HAL_Driver/Src/stm32f4xx_hal_rtc.c:1348:11
	beq	.LBB13_32
.Ltmp355:
@ %bb.17:                               @   in Loop: Header=BB13_12 Depth=1
	@DEBUG_VALUE: HAL_RTC_SetAlarm_IT:sAlarm <- [DW_OP_LLVM_entry_value 1] $r1
	@DEBUG_VALUE: HAL_RTC_SetAlarm_IT:tmpreg <- $r2
	@DEBUG_VALUE: HAL_RTC_SetAlarm_IT:Format <- [DW_OP_LLVM_entry_value 1] $r2
	@DEBUG_VALUE: HAL_RTC_SetAlarm_IT:hrtc <- $r0
	.loc	6 1361 12 is_stmt 1             @ ../Libraries/STM32F4xx_HAL_Driver/Src/stm32f4xx_hal_rtc.c:1361:12
	ldr.w	r1, [r12, #12]
.Ltmp356:
	.loc	6 1360 5                        @ ../Libraries/STM32F4xx_HAL_Driver/Src/stm32f4xx_hal_rtc.c:1360:5
	lsls	r1, r1, #31
	bne	.LBB13_20
.Ltmp357:
@ %bb.18:                               @   in Loop: Header=BB13_12 Depth=1
	@DEBUG_VALUE: HAL_RTC_SetAlarm_IT:sAlarm <- [DW_OP_LLVM_entry_value 1] $r1
	@DEBUG_VALUE: HAL_RTC_SetAlarm_IT:tmpreg <- $r2
	@DEBUG_VALUE: HAL_RTC_SetAlarm_IT:Format <- [DW_OP_LLVM_entry_value 1] $r2
	@DEBUG_VALUE: HAL_RTC_SetAlarm_IT:hrtc <- $r0
	.loc	6 1348 16                       @ ../Libraries/STM32F4xx_HAL_Driver/Src/stm32f4xx_hal_rtc.c:1348:16
	ldr	r1, [sp]
	subs	r4, r1, #1
.Ltmp358:
	.loc	6 1348 11 is_stmt 0             @ ../Libraries/STM32F4xx_HAL_Driver/Src/stm32f4xx_hal_rtc.c:1348:11
	cmp	r1, #0
.Ltmp359:
	.loc	6 1348 16                       @ ../Libraries/STM32F4xx_HAL_Driver/Src/stm32f4xx_hal_rtc.c:1348:16
	str	r4, [sp]
.Ltmp360:
	.loc	6 1348 11                       @ ../Libraries/STM32F4xx_HAL_Driver/Src/stm32f4xx_hal_rtc.c:1348:11
	beq	.LBB13_32
.Ltmp361:
@ %bb.19:                               @   in Loop: Header=BB13_12 Depth=1
	@DEBUG_VALUE: HAL_RTC_SetAlarm_IT:sAlarm <- [DW_OP_LLVM_entry_value 1] $r1
	@DEBUG_VALUE: HAL_RTC_SetAlarm_IT:tmpreg <- $r2
	@DEBUG_VALUE: HAL_RTC_SetAlarm_IT:Format <- [DW_OP_LLVM_entry_value 1] $r2
	@DEBUG_VALUE: HAL_RTC_SetAlarm_IT:hrtc <- $r0
	.loc	6 1361 12 is_stmt 1             @ ../Libraries/STM32F4xx_HAL_Driver/Src/stm32f4xx_hal_rtc.c:1361:12
	ldr.w	r1, [r12, #12]
.Ltmp362:
	.loc	6 1360 5                        @ ../Libraries/STM32F4xx_HAL_Driver/Src/stm32f4xx_hal_rtc.c:1360:5
	lsls	r1, r1, #31
	beq	.LBB13_12
.Ltmp363:
.LBB13_20:
	@DEBUG_VALUE: HAL_RTC_SetAlarm_IT:sAlarm <- [DW_OP_LLVM_entry_value 1] $r1
	@DEBUG_VALUE: HAL_RTC_SetAlarm_IT:tmpreg <- $r2
	@DEBUG_VALUE: HAL_RTC_SetAlarm_IT:Format <- [DW_OP_LLVM_entry_value 1] $r2
	@DEBUG_VALUE: HAL_RTC_SetAlarm_IT:hrtc <- $r0
	.loc	6 1363 28                       @ ../Libraries/STM32F4xx_HAL_Driver/Src/stm32f4xx_hal_rtc.c:1363:28
	str.w	r2, [r12, #28]
	.loc	6 1365 21                       @ ../Libraries/STM32F4xx_HAL_Driver/Src/stm32f4xx_hal_rtc.c:1365:21
	add.w	r2, r12, #68
.Ltmp364:
	.loc	6 0 21 is_stmt 0                @ ../Libraries/STM32F4xx_HAL_Driver/Src/stm32f4xx_hal_rtc.c:0:21
	mov.w	r1, #4096
	mov.w	r4, #256
	b	.LBB13_31
.Ltmp365:
.LBB13_21:
	@DEBUG_VALUE: HAL_RTC_SetAlarm_IT:sAlarm <- [DW_OP_LLVM_entry_value 1] $r1
	@DEBUG_VALUE: HAL_RTC_SetAlarm_IT:tmpreg <- $r2
	@DEBUG_VALUE: HAL_RTC_SetAlarm_IT:Format <- [DW_OP_LLVM_entry_value 1] $r2
	@DEBUG_VALUE: HAL_RTC_SetAlarm_IT:hrtc <- $r0
	.loc	6 1374 5 is_stmt 1              @ ../Libraries/STM32F4xx_HAL_Driver/Src/stm32f4xx_hal_rtc.c:1374:5
	bic	r1, r1, #512
	str.w	r1, [r12, #8]
	.loc	6 1377 5                        @ ../Libraries/STM32F4xx_HAL_Driver/Src/stm32f4xx_hal_rtc.c:1377:5
	ldr.w	r1, [r12, #12]
	orn	r1, r1, #640
	bic	r1, r1, #512
	str.w	r1, [r12, #12]
.Ltmp366:
.LBB13_22:                              @ =>This Inner Loop Header: Depth=1
	@DEBUG_VALUE: HAL_RTC_SetAlarm_IT:sAlarm <- [DW_OP_LLVM_entry_value 1] $r1
	@DEBUG_VALUE: HAL_RTC_SetAlarm_IT:tmpreg <- $r2
	@DEBUG_VALUE: HAL_RTC_SetAlarm_IT:Format <- [DW_OP_LLVM_entry_value 1] $r2
	@DEBUG_VALUE: HAL_RTC_SetAlarm_IT:hrtc <- $r0
	.loc	6 1382 16                       @ ../Libraries/STM32F4xx_HAL_Driver/Src/stm32f4xx_hal_rtc.c:1382:16
	ldr	r1, [sp]
	subs	r4, r1, #1
.Ltmp367:
	.loc	6 1382 11 is_stmt 0             @ ../Libraries/STM32F4xx_HAL_Driver/Src/stm32f4xx_hal_rtc.c:1382:11
	cmp	r1, #0
.Ltmp368:
	.loc	6 1382 16                       @ ../Libraries/STM32F4xx_HAL_Driver/Src/stm32f4xx_hal_rtc.c:1382:16
	str	r4, [sp]
.Ltmp369:
	.loc	6 1382 11                       @ ../Libraries/STM32F4xx_HAL_Driver/Src/stm32f4xx_hal_rtc.c:1382:11
	beq	.LBB13_32
.Ltmp370:
@ %bb.23:                               @   in Loop: Header=BB13_22 Depth=1
	@DEBUG_VALUE: HAL_RTC_SetAlarm_IT:sAlarm <- [DW_OP_LLVM_entry_value 1] $r1
	@DEBUG_VALUE: HAL_RTC_SetAlarm_IT:tmpreg <- $r2
	@DEBUG_VALUE: HAL_RTC_SetAlarm_IT:Format <- [DW_OP_LLVM_entry_value 1] $r2
	@DEBUG_VALUE: HAL_RTC_SetAlarm_IT:hrtc <- $r0
	.loc	6 1395 12 is_stmt 1             @ ../Libraries/STM32F4xx_HAL_Driver/Src/stm32f4xx_hal_rtc.c:1395:12
	ldr.w	r1, [r12, #12]
.Ltmp371:
	.loc	6 1394 5                        @ ../Libraries/STM32F4xx_HAL_Driver/Src/stm32f4xx_hal_rtc.c:1394:5
	lsls	r1, r1, #30
	bmi	.LBB13_30
.Ltmp372:
@ %bb.24:                               @   in Loop: Header=BB13_22 Depth=1
	@DEBUG_VALUE: HAL_RTC_SetAlarm_IT:sAlarm <- [DW_OP_LLVM_entry_value 1] $r1
	@DEBUG_VALUE: HAL_RTC_SetAlarm_IT:tmpreg <- $r2
	@DEBUG_VALUE: HAL_RTC_SetAlarm_IT:Format <- [DW_OP_LLVM_entry_value 1] $r2
	@DEBUG_VALUE: HAL_RTC_SetAlarm_IT:hrtc <- $r0
	.loc	6 1382 16                       @ ../Libraries/STM32F4xx_HAL_Driver/Src/stm32f4xx_hal_rtc.c:1382:16
	ldr	r1, [sp]
	subs	r4, r1, #1
	str	r4, [sp]
.Ltmp373:
	.loc	6 1382 11 is_stmt 0             @ ../Libraries/STM32F4xx_HAL_Driver/Src/stm32f4xx_hal_rtc.c:1382:11
	cbz	r1, .LBB13_32
.Ltmp374:
@ %bb.25:                               @   in Loop: Header=BB13_22 Depth=1
	@DEBUG_VALUE: HAL_RTC_SetAlarm_IT:sAlarm <- [DW_OP_LLVM_entry_value 1] $r1
	@DEBUG_VALUE: HAL_RTC_SetAlarm_IT:tmpreg <- $r2
	@DEBUG_VALUE: HAL_RTC_SetAlarm_IT:Format <- [DW_OP_LLVM_entry_value 1] $r2
	@DEBUG_VALUE: HAL_RTC_SetAlarm_IT:hrtc <- $r0
	.loc	6 1395 12 is_stmt 1             @ ../Libraries/STM32F4xx_HAL_Driver/Src/stm32f4xx_hal_rtc.c:1395:12
	ldr.w	r1, [r12, #12]
.Ltmp375:
	.loc	6 1394 5                        @ ../Libraries/STM32F4xx_HAL_Driver/Src/stm32f4xx_hal_rtc.c:1394:5
	lsls	r1, r1, #30
	bmi	.LBB13_30
.Ltmp376:
@ %bb.26:                               @   in Loop: Header=BB13_22 Depth=1
	@DEBUG_VALUE: HAL_RTC_SetAlarm_IT:sAlarm <- [DW_OP_LLVM_entry_value 1] $r1
	@DEBUG_VALUE: HAL_RTC_SetAlarm_IT:tmpreg <- $r2
	@DEBUG_VALUE: HAL_RTC_SetAlarm_IT:Format <- [DW_OP_LLVM_entry_value 1] $r2
	@DEBUG_VALUE: HAL_RTC_SetAlarm_IT:hrtc <- $r0
	.loc	6 1382 16                       @ ../Libraries/STM32F4xx_HAL_Driver/Src/stm32f4xx_hal_rtc.c:1382:16
	ldr	r1, [sp]
	subs	r4, r1, #1
	str	r4, [sp]
.Ltmp377:
	.loc	6 1382 11 is_stmt 0             @ ../Libraries/STM32F4xx_HAL_Driver/Src/stm32f4xx_hal_rtc.c:1382:11
	cbz	r1, .LBB13_32
.Ltmp378:
@ %bb.27:                               @   in Loop: Header=BB13_22 Depth=1
	@DEBUG_VALUE: HAL_RTC_SetAlarm_IT:sAlarm <- [DW_OP_LLVM_entry_value 1] $r1
	@DEBUG_VALUE: HAL_RTC_SetAlarm_IT:tmpreg <- $r2
	@DEBUG_VALUE: HAL_RTC_SetAlarm_IT:Format <- [DW_OP_LLVM_entry_value 1] $r2
	@DEBUG_VALUE: HAL_RTC_SetAlarm_IT:hrtc <- $r0
	.loc	6 1395 12 is_stmt 1             @ ../Libraries/STM32F4xx_HAL_Driver/Src/stm32f4xx_hal_rtc.c:1395:12
	ldr.w	r1, [r12, #12]
.Ltmp379:
	.loc	6 1394 5                        @ ../Libraries/STM32F4xx_HAL_Driver/Src/stm32f4xx_hal_rtc.c:1394:5
	lsls	r1, r1, #30
	bmi	.LBB13_30
.Ltmp380:
@ %bb.28:                               @   in Loop: Header=BB13_22 Depth=1
	@DEBUG_VALUE: HAL_RTC_SetAlarm_IT:sAlarm <- [DW_OP_LLVM_entry_value 1] $r1
	@DEBUG_VALUE: HAL_RTC_SetAlarm_IT:tmpreg <- $r2
	@DEBUG_VALUE: HAL_RTC_SetAlarm_IT:Format <- [DW_OP_LLVM_entry_value 1] $r2
	@DEBUG_VALUE: HAL_RTC_SetAlarm_IT:hrtc <- $r0
	.loc	6 1382 16                       @ ../Libraries/STM32F4xx_HAL_Driver/Src/stm32f4xx_hal_rtc.c:1382:16
	ldr	r1, [sp]
	subs	r4, r1, #1
	str	r4, [sp]
.Ltmp381:
	.loc	6 1382 11 is_stmt 0             @ ../Libraries/STM32F4xx_HAL_Driver/Src/stm32f4xx_hal_rtc.c:1382:11
	cbz	r1, .LBB13_32
.Ltmp382:
@ %bb.29:                               @   in Loop: Header=BB13_22 Depth=1
	@DEBUG_VALUE: HAL_RTC_SetAlarm_IT:sAlarm <- [DW_OP_LLVM_entry_value 1] $r1
	@DEBUG_VALUE: HAL_RTC_SetAlarm_IT:tmpreg <- $r2
	@DEBUG_VALUE: HAL_RTC_SetAlarm_IT:Format <- [DW_OP_LLVM_entry_value 1] $r2
	@DEBUG_VALUE: HAL_RTC_SetAlarm_IT:hrtc <- $r0
	.loc	6 1395 12 is_stmt 1             @ ../Libraries/STM32F4xx_HAL_Driver/Src/stm32f4xx_hal_rtc.c:1395:12
	ldr.w	r1, [r12, #12]
.Ltmp383:
	.loc	6 1394 5                        @ ../Libraries/STM32F4xx_HAL_Driver/Src/stm32f4xx_hal_rtc.c:1394:5
	lsls	r1, r1, #30
	bpl	.LBB13_22
.Ltmp384:
.LBB13_30:
	@DEBUG_VALUE: HAL_RTC_SetAlarm_IT:sAlarm <- [DW_OP_LLVM_entry_value 1] $r1
	@DEBUG_VALUE: HAL_RTC_SetAlarm_IT:tmpreg <- $r2
	@DEBUG_VALUE: HAL_RTC_SetAlarm_IT:Format <- [DW_OP_LLVM_entry_value 1] $r2
	@DEBUG_VALUE: HAL_RTC_SetAlarm_IT:hrtc <- $r0
	.loc	6 1397 28                       @ ../Libraries/STM32F4xx_HAL_Driver/Src/stm32f4xx_hal_rtc.c:1397:28
	str.w	r2, [r12, #32]
	.loc	6 1399 21                       @ ../Libraries/STM32F4xx_HAL_Driver/Src/stm32f4xx_hal_rtc.c:1399:21
	add.w	r2, r12, #72
.Ltmp385:
	.loc	6 0 21 is_stmt 0                @ ../Libraries/STM32F4xx_HAL_Driver/Src/stm32f4xx_hal_rtc.c:0:21
	mov.w	r1, #8192
	mov.w	r4, #512
.Ltmp386:
.LBB13_31:
	@DEBUG_VALUE: HAL_RTC_SetAlarm_IT:sAlarm <- [DW_OP_LLVM_entry_value 1] $r1
	@DEBUG_VALUE: HAL_RTC_SetAlarm_IT:Format <- [DW_OP_LLVM_entry_value 1] $r2
	@DEBUG_VALUE: HAL_RTC_SetAlarm_IT:hrtc <- $r0
	orr.w	r3, r3, lr
.Ltmp387:
	@DEBUG_VALUE: HAL_RTC_SetAlarm_IT:subsecondtmpreg <- $r3
	str	r3, [r2]
	ldr.w	r2, [r12, #8]
	movs	r3, #0
.Ltmp388:
	orrs	r2, r4
	str.w	r2, [r12, #8]
	ldr.w	r2, [r12, #8]
	orrs	r1, r2
	str.w	r1, [r12, #8]
	movw	r1, #15360
	movt	r1, #16385
.Ltmp389:
	.loc	6 1407 3 is_stmt 1              @ ../Libraries/STM32F4xx_HAL_Driver/Src/stm32f4xx_hal_rtc.c:1407:3
	ldr	r2, [r1]
	orr	r2, r2, #131072
	str	r2, [r1]
	.loc	6 1409 14                       @ ../Libraries/STM32F4xx_HAL_Driver/Src/stm32f4xx_hal_rtc.c:1409:14
	ldr	r2, [r1, #8]
	orr	r2, r2, #131072
	str	r2, [r1, #8]
	movs	r1, #1
	b	.LBB13_33
.Ltmp390:
.LBB13_32:
	@DEBUG_VALUE: HAL_RTC_SetAlarm_IT:sAlarm <- [DW_OP_LLVM_entry_value 1] $r1
	@DEBUG_VALUE: HAL_RTC_SetAlarm_IT:tmpreg <- $r2
	@DEBUG_VALUE: HAL_RTC_SetAlarm_IT:Format <- [DW_OP_LLVM_entry_value 1] $r2
	@DEBUG_VALUE: HAL_RTC_SetAlarm_IT:hrtc <- $r0
	.loc	6 0 14 is_stmt 0                @ ../Libraries/STM32F4xx_HAL_Driver/Src/stm32f4xx_hal_rtc.c:0:14
	movs	r1, #3
	movs	r3, #3
.Ltmp391:
.LBB13_33:
	@DEBUG_VALUE: HAL_RTC_SetAlarm_IT:sAlarm <- [DW_OP_LLVM_entry_value 1] $r1
	@DEBUG_VALUE: HAL_RTC_SetAlarm_IT:Format <- [DW_OP_LLVM_entry_value 1] $r2
	@DEBUG_VALUE: HAL_RTC_SetAlarm_IT:hrtc <- $r0
	movs	r2, #255
	str.w	r2, [r12, #36]
	strb	r1, [r0, #29]
	movs	r1, #0
	strb	r1, [r0, #28]
.Ltmp392:
.LBB13_34:
	@DEBUG_VALUE: HAL_RTC_SetAlarm_IT:hrtc <- $r0
	.loc	6 1420 1 is_stmt 1              @ ../Libraries/STM32F4xx_HAL_Driver/Src/stm32f4xx_hal_rtc.c:1420:1
	mov	r0, r3
.Ltmp393:
	@DEBUG_VALUE: HAL_RTC_SetAlarm_IT:hrtc <- [DW_OP_LLVM_entry_value 1] $r0
	add	sp, #4
	pop.w	{r4, r5, r6, r7, r8, r9, pc}
.Ltmp394:
.Lfunc_end13:
	.size	HAL_RTC_SetAlarm_IT, .Lfunc_end13-HAL_RTC_SetAlarm_IT
	.cfi_endproc
	.cantunwind
	.fnend
                                        @ -- End function
	.section	.text.HAL_RTC_DeactivateAlarm,"ax",%progbits
	.hidden	HAL_RTC_DeactivateAlarm         @ -- Begin function HAL_RTC_DeactivateAlarm
	.globl	HAL_RTC_DeactivateAlarm
	.p2align	2
	.type	HAL_RTC_DeactivateAlarm,%function
	.code	16                              @ @HAL_RTC_DeactivateAlarm
	.thumb_func
HAL_RTC_DeactivateAlarm:
.Lfunc_begin14:
	.loc	6 1433 0                        @ ../Libraries/STM32F4xx_HAL_Driver/Src/stm32f4xx_hal_rtc.c:1433:0
	.fnstart
	.cfi_startproc
@ %bb.0:
	@DEBUG_VALUE: HAL_RTC_DeactivateAlarm:hrtc <- $r0
	@DEBUG_VALUE: HAL_RTC_DeactivateAlarm:Alarm <- $r1
	.save	{r4, r5, r7, lr}
	push	{r4, r5, r7, lr}
	.cfi_def_cfa_offset 16
	.cfi_offset lr, -4
	.cfi_offset r7, -8
	.cfi_offset r5, -12
	.cfi_offset r4, -16
	mov	r4, r0
.Ltmp395:
	@DEBUG_VALUE: HAL_RTC_DeactivateAlarm:tickstart <- 0
	@DEBUG_VALUE: HAL_RTC_DeactivateAlarm:hrtc <- $r4
	.loc	6 1440 3 prologue_end           @ ../Libraries/STM32F4xx_HAL_Driver/Src/stm32f4xx_hal_rtc.c:1440:3
	ldrb	r0, [r0, #28]
.Ltmp396:
	.loc	6 1440 3 is_stmt 0              @ ../Libraries/STM32F4xx_HAL_Driver/Src/stm32f4xx_hal_rtc.c:1440:3
	cmp	r0, #1
	mov.w	r0, #2
.Ltmp397:
	.loc	6 1512 1 is_stmt 1              @ ../Libraries/STM32F4xx_HAL_Driver/Src/stm32f4xx_hal_rtc.c:1512:1
	it	eq
	popeq	{r4, r5, r7, pc}
.Ltmp398:
.LBB14_1:
	@DEBUG_VALUE: HAL_RTC_DeactivateAlarm:tickstart <- 0
	@DEBUG_VALUE: HAL_RTC_DeactivateAlarm:Alarm <- $r1
	.loc	6 0 1 is_stmt 0                 @ ../Libraries/STM32F4xx_HAL_Driver/Src/stm32f4xx_hal_rtc.c:0:1
	movs	r2, #1
.Ltmp399:
	.loc	6 1440 3 is_stmt 1              @ ../Libraries/STM32F4xx_HAL_Driver/Src/stm32f4xx_hal_rtc.c:1440:3
	strb	r2, [r4, #28]
.Ltmp400:
	.loc	6 1442 15                       @ ../Libraries/STM32F4xx_HAL_Driver/Src/stm32f4xx_hal_rtc.c:1442:15
	strb	r0, [r4, #29]
.Ltmp401:
	.loc	6 1445 3                        @ ../Libraries/STM32F4xx_HAL_Driver/Src/stm32f4xx_hal_rtc.c:1445:3
	ldr	r0, [r4]
	movs	r2, #202
	str	r2, [r0, #36]
	movs	r2, #83
	str	r2, [r0, #36]
.Ltmp402:
	.loc	6 0 0 is_stmt 0                 @ ../Libraries/STM32F4xx_HAL_Driver/Src/stm32f4xx_hal_rtc.c:0:0
	ldr	r2, [r0, #8]
.Ltmp403:
	.loc	6 1447 6 is_stmt 1              @ ../Libraries/STM32F4xx_HAL_Driver/Src/stm32f4xx_hal_rtc.c:1447:6
	cmp.w	r1, #256
	bne	.LBB14_5
.Ltmp404:
@ %bb.2:
	@DEBUG_VALUE: HAL_RTC_DeactivateAlarm:tickstart <- 0
	@DEBUG_VALUE: HAL_RTC_DeactivateAlarm:Alarm <- $r1
	.loc	6 1450 5                        @ ../Libraries/STM32F4xx_HAL_Driver/Src/stm32f4xx_hal_rtc.c:1450:5
	bic	r1, r2, #256
.Ltmp405:
	@DEBUG_VALUE: HAL_RTC_DeactivateAlarm:Alarm <- [DW_OP_LLVM_entry_value 1] $r1
	str	r1, [r0, #8]
	.loc	6 1453 5                        @ ../Libraries/STM32F4xx_HAL_Driver/Src/stm32f4xx_hal_rtc.c:1453:5
	ldr	r1, [r0, #8]
	bic	r1, r1, #4096
	str	r1, [r0, #8]
	.loc	6 1456 17                       @ ../Libraries/STM32F4xx_HAL_Driver/Src/stm32f4xx_hal_rtc.c:1456:17
	bl	HAL_GetTick
.Ltmp406:
	mov	r5, r0
.Ltmp407:
	@DEBUG_VALUE: HAL_RTC_DeactivateAlarm:tickstart <- $r5
	.p2align	2
.LBB14_3:                               @ =>This Inner Loop Header: Depth=1
	@DEBUG_VALUE: HAL_RTC_DeactivateAlarm:tickstart <- $r5
	@DEBUG_VALUE: HAL_RTC_DeactivateAlarm:Alarm <- [DW_OP_LLVM_entry_value 1] $r1
	.loc	6 1459 11                       @ ../Libraries/STM32F4xx_HAL_Driver/Src/stm32f4xx_hal_rtc.c:1459:11
	ldr	r1, [r4]
	ldr	r0, [r1, #12]
	.loc	6 1459 5 is_stmt 0              @ ../Libraries/STM32F4xx_HAL_Driver/Src/stm32f4xx_hal_rtc.c:1459:5
	lsls	r0, r0, #31
	bne	.LBB14_9
.Ltmp408:
@ %bb.4:                                @   in Loop: Header=BB14_3 Depth=1
	@DEBUG_VALUE: HAL_RTC_DeactivateAlarm:tickstart <- $r5
	@DEBUG_VALUE: HAL_RTC_DeactivateAlarm:Alarm <- [DW_OP_LLVM_entry_value 1] $r1
	.loc	6 1461 11 is_stmt 1             @ ../Libraries/STM32F4xx_HAL_Driver/Src/stm32f4xx_hal_rtc.c:1461:11
	bl	HAL_GetTick
.Ltmp409:
	.loc	6 1461 25 is_stmt 0             @ ../Libraries/STM32F4xx_HAL_Driver/Src/stm32f4xx_hal_rtc.c:1461:25
	subs	r0, r0, r5
.Ltmp410:
	.loc	6 1461 10                       @ ../Libraries/STM32F4xx_HAL_Driver/Src/stm32f4xx_hal_rtc.c:1461:10
	cmp.w	r0, #1000
	bls	.LBB14_3
	b	.LBB14_8
.Ltmp411:
.LBB14_5:
	@DEBUG_VALUE: HAL_RTC_DeactivateAlarm:tickstart <- 0
	@DEBUG_VALUE: HAL_RTC_DeactivateAlarm:Alarm <- $r1
	.loc	6 1478 5 is_stmt 1              @ ../Libraries/STM32F4xx_HAL_Driver/Src/stm32f4xx_hal_rtc.c:1478:5
	bic	r1, r2, #512
.Ltmp412:
	@DEBUG_VALUE: HAL_RTC_DeactivateAlarm:Alarm <- [DW_OP_LLVM_entry_value 1] $r1
	str	r1, [r0, #8]
	.loc	6 1481 5                        @ ../Libraries/STM32F4xx_HAL_Driver/Src/stm32f4xx_hal_rtc.c:1481:5
	ldr	r1, [r0, #8]
	bic	r1, r1, #8192
	str	r1, [r0, #8]
	.loc	6 1484 17                       @ ../Libraries/STM32F4xx_HAL_Driver/Src/stm32f4xx_hal_rtc.c:1484:17
	bl	HAL_GetTick
.Ltmp413:
	mov	r5, r0
.Ltmp414:
	@DEBUG_VALUE: HAL_RTC_DeactivateAlarm:tickstart <- $r5
	.p2align	2
.LBB14_6:                               @ =>This Inner Loop Header: Depth=1
	@DEBUG_VALUE: HAL_RTC_DeactivateAlarm:tickstart <- $r5
	@DEBUG_VALUE: HAL_RTC_DeactivateAlarm:Alarm <- [DW_OP_LLVM_entry_value 1] $r1
	.loc	6 1487 11                       @ ../Libraries/STM32F4xx_HAL_Driver/Src/stm32f4xx_hal_rtc.c:1487:11
	ldr	r1, [r4]
	ldr	r0, [r1, #12]
	.loc	6 1487 5 is_stmt 0              @ ../Libraries/STM32F4xx_HAL_Driver/Src/stm32f4xx_hal_rtc.c:1487:5
	lsls	r0, r0, #30
	bmi	.LBB14_9
.Ltmp415:
@ %bb.7:                                @   in Loop: Header=BB14_6 Depth=1
	@DEBUG_VALUE: HAL_RTC_DeactivateAlarm:tickstart <- $r5
	@DEBUG_VALUE: HAL_RTC_DeactivateAlarm:Alarm <- [DW_OP_LLVM_entry_value 1] $r1
	.loc	6 1489 11 is_stmt 1             @ ../Libraries/STM32F4xx_HAL_Driver/Src/stm32f4xx_hal_rtc.c:1489:11
	bl	HAL_GetTick
.Ltmp416:
	.loc	6 1489 25 is_stmt 0             @ ../Libraries/STM32F4xx_HAL_Driver/Src/stm32f4xx_hal_rtc.c:1489:25
	subs	r0, r0, r5
.Ltmp417:
	.loc	6 1489 10                       @ ../Libraries/STM32F4xx_HAL_Driver/Src/stm32f4xx_hal_rtc.c:1489:10
	cmp.w	r0, #1000
	bls	.LBB14_6
.Ltmp418:
.LBB14_8:
	@DEBUG_VALUE: HAL_RTC_DeactivateAlarm:tickstart <- $r5
	@DEBUG_VALUE: HAL_RTC_DeactivateAlarm:Alarm <- [DW_OP_LLVM_entry_value 1] $r1
	.loc	6 0 0                           @ ../Libraries/STM32F4xx_HAL_Driver/Src/stm32f4xx_hal_rtc.c:0:0
	ldr	r1, [r4]
	movs	r2, #3
	movs	r0, #3
	b	.LBB14_10
.Ltmp419:
.LBB14_9:
	@DEBUG_VALUE: HAL_RTC_DeactivateAlarm:tickstart <- $r5
	@DEBUG_VALUE: HAL_RTC_DeactivateAlarm:Alarm <- [DW_OP_LLVM_entry_value 1] $r1
	movs	r0, #0
	movs	r2, #1
.Ltmp420:
.LBB14_10:
	@DEBUG_VALUE: HAL_RTC_DeactivateAlarm:tickstart <- $r5
	@DEBUG_VALUE: HAL_RTC_DeactivateAlarm:Alarm <- [DW_OP_LLVM_entry_value 1] $r1
	movs	r3, #255
	str	r3, [r1, #36]
	movs	r1, #0
	strb	r2, [r4, #29]
	strb	r1, [r4, #28]
	.loc	6 1512 1 is_stmt 1              @ ../Libraries/STM32F4xx_HAL_Driver/Src/stm32f4xx_hal_rtc.c:1512:1
	pop	{r4, r5, r7, pc}
.Ltmp421:
.Lfunc_end14:
	.size	HAL_RTC_DeactivateAlarm, .Lfunc_end14-HAL_RTC_DeactivateAlarm
	.cfi_endproc
	.cantunwind
	.fnend
                                        @ -- End function
	.section	.text.HAL_RTC_GetAlarm,"ax",%progbits
	.hidden	HAL_RTC_GetAlarm                @ -- Begin function HAL_RTC_GetAlarm
	.globl	HAL_RTC_GetAlarm
	.p2align	2
	.type	HAL_RTC_GetAlarm,%function
	.code	16                              @ @HAL_RTC_GetAlarm
	.thumb_func
HAL_RTC_GetAlarm:
.Lfunc_begin15:
	.loc	6 1530 0                        @ ../Libraries/STM32F4xx_HAL_Driver/Src/stm32f4xx_hal_rtc.c:1530:0
	.fnstart
	.cfi_startproc
@ %bb.0:
	@DEBUG_VALUE: HAL_RTC_GetAlarm:hrtc <- $r0
	@DEBUG_VALUE: HAL_RTC_GetAlarm:sAlarm <- $r1
	@DEBUG_VALUE: HAL_RTC_GetAlarm:Alarm <- $r2
	@DEBUG_VALUE: HAL_RTC_GetAlarm:Format <- $r3
	.save	{r4, r5, r6, lr}
	push	{r4, r5, r6, lr}
	.cfi_def_cfa_offset 16
	.cfi_offset lr, -4
	.cfi_offset r6, -8
	.cfi_offset r5, -12
	.cfi_offset r4, -16
.Ltmp422:
	@DEBUG_VALUE: HAL_RTC_GetAlarm:tmpreg <- 0
	@DEBUG_VALUE: HAL_RTC_GetAlarm:subsecondtmpreg <- 0
	.loc	6 0 0 is_stmt 0                 @ ../Libraries/STM32F4xx_HAL_Driver/Src/stm32f4xx_hal_rtc.c:0:0
	ldr.w	r12, [r0]
.Ltmp423:
	@DEBUG_VALUE: HAL_RTC_GetAlarm:subsecondtmpreg <- [DW_OP_constu 32767, DW_OP_and, DW_OP_stack_value] undef
	@DEBUG_VALUE: HAL_RTC_GetAlarm:tmpreg <- undef
	movs	r0, #32
.Ltmp424:
	@DEBUG_VALUE: HAL_RTC_GetAlarm:hrtc <- [DW_OP_LLVM_entry_value 1] $r0
	movs	r4, #72
.Ltmp425:
	.loc	6 1537 6 prologue_end is_stmt 1 @ ../Libraries/STM32F4xx_HAL_Driver/Src/stm32f4xx_hal_rtc.c:1537:6
	cmp.w	r2, #256
	it	ne
	movne.w	r2, #512
.Ltmp426:
	@DEBUG_VALUE: HAL_RTC_GetAlarm:Alarm <- [DW_OP_LLVM_entry_value 1] $r2
	it	eq
	moveq	r0, #28
	it	eq
	moveq	r4, #68
.Ltmp427:
	.loc	6 0 0 is_stmt 0                 @ ../Libraries/STM32F4xx_HAL_Driver/Src/stm32f4xx_hal_rtc.c:0:0
	str	r2, [r1, #36]
	ldr.w	r0, [r12, r0]
	ldr.w	r2, [r12, r4]
	movs	r5, #64
	bfc	r2, #15, #17
.Ltmp428:
	@DEBUG_VALUE: HAL_RTC_GetAlarm:subsecondtmpreg <- $r2
	@DEBUG_VALUE: HAL_RTC_GetAlarm:tmpreg <- $r0
	.loc	6 1558 32 is_stmt 1             @ ../Libraries/STM32F4xx_HAL_Driver/Src/stm32f4xx_hal_rtc.c:1558:32
	str	r2, [r1, #4]
	.loc	6 1560 51                       @ ../Libraries/STM32F4xx_HAL_Driver/Src/stm32f4xx_hal_rtc.c:1560:51
	and	r2, r0, #1073741824
.Ltmp429:
	.loc	6 1554 29                       @ ../Libraries/STM32F4xx_HAL_Driver/Src/stm32f4xx_hal_rtc.c:1554:29
	ubfx	r4, r0, #16, #6
	.loc	6 1555 31                       @ ../Libraries/STM32F4xx_HAL_Driver/Src/stm32f4xx_hal_rtc.c:1555:31
	ubfx	r6, r0, #8, #7
	.loc	6 1556 31                       @ ../Libraries/STM32F4xx_HAL_Driver/Src/stm32f4xx_hal_rtc.c:1556:31
	and	r12, r0, #127
	.loc	6 1557 34                       @ ../Libraries/STM32F4xx_HAL_Driver/Src/stm32f4xx_hal_rtc.c:1557:34
	and.w	r5, r5, r0, lsr #16
	.loc	6 1559 30                       @ ../Libraries/STM32F4xx_HAL_Driver/Src/stm32f4xx_hal_rtc.c:1559:30
	ubfx	lr, r0, #24, #6
	.loc	6 1560 31                       @ ../Libraries/STM32F4xx_HAL_Driver/Src/stm32f4xx_hal_rtc.c:1560:31
	str	r2, [r1, #28]
	.loc	6 1561 41                       @ ../Libraries/STM32F4xx_HAL_Driver/Src/stm32f4xx_hal_rtc.c:1561:41
	bic	r2, r0, #2139062143
	.loc	6 1554 27                       @ ../Libraries/STM32F4xx_HAL_Driver/Src/stm32f4xx_hal_rtc.c:1554:27
	strb	r4, [r1]
	.loc	6 1555 29                       @ ../Libraries/STM32F4xx_HAL_Driver/Src/stm32f4xx_hal_rtc.c:1555:29
	strb	r6, [r1, #1]
	.loc	6 1556 29                       @ ../Libraries/STM32F4xx_HAL_Driver/Src/stm32f4xx_hal_rtc.c:1556:29
	strb.w	r12, [r1, #2]
	.loc	6 1557 32                       @ ../Libraries/STM32F4xx_HAL_Driver/Src/stm32f4xx_hal_rtc.c:1557:32
	strb	r5, [r1, #3]
	.loc	6 1559 28                       @ ../Libraries/STM32F4xx_HAL_Driver/Src/stm32f4xx_hal_rtc.c:1559:28
	strb.w	lr, [r1, #32]
	.loc	6 1561 21                       @ ../Libraries/STM32F4xx_HAL_Driver/Src/stm32f4xx_hal_rtc.c:1561:21
	str	r2, [r1, #20]
	.loc	6 1563 6                        @ ../Libraries/STM32F4xx_HAL_Driver/Src/stm32f4xx_hal_rtc.c:1563:6
	cbz	r3, .LBB15_2
.Ltmp430:
@ %bb.1:
	@DEBUG_VALUE: HAL_RTC_GetAlarm:tmpreg <- $r0
	@DEBUG_VALUE: HAL_RTC_GetAlarm:Alarm <- [DW_OP_LLVM_entry_value 1] $r2
	@DEBUG_VALUE: HAL_RTC_GetAlarm:hrtc <- [DW_OP_LLVM_entry_value 1] $r0
	@DEBUG_VALUE: HAL_RTC_GetAlarm:Format <- $r3
	@DEBUG_VALUE: HAL_RTC_GetAlarm:sAlarm <- $r1
	.loc	6 1571 3                        @ ../Libraries/STM32F4xx_HAL_Driver/Src/stm32f4xx_hal_rtc.c:1571:3
	movs	r0, #0
.Ltmp431:
	pop	{r4, r5, r6, pc}
.Ltmp432:
.LBB15_2:
	@DEBUG_VALUE: HAL_RTC_GetAlarm:tmpreg <- $r0
	@DEBUG_VALUE: HAL_RTC_GetAlarm:Alarm <- [DW_OP_LLVM_entry_value 1] $r2
	@DEBUG_VALUE: HAL_RTC_GetAlarm:hrtc <- [DW_OP_LLVM_entry_value 1] $r0
	@DEBUG_VALUE: HAL_RTC_GetAlarm:Format <- $r3
	@DEBUG_VALUE: HAL_RTC_GetAlarm:sAlarm <- $r1
	.loc	6 0 0 is_stmt 0                 @ ../Libraries/STM32F4xx_HAL_Driver/Src/stm32f4xx_hal_rtc.c:0:0
	lsrs	r2, r0, #16
.Ltmp433:
	.loc	6 1891 43 is_stmt 1             @ ../Libraries/STM32F4xx_HAL_Driver/Src/stm32f4xx_hal_rtc.c:1891:43
	lsrs	r4, r4, #4
	.loc	6 1891 60 is_stmt 0             @ ../Libraries/STM32F4xx_HAL_Driver/Src/stm32f4xx_hal_rtc.c:1891:60
	orr.w	r4, r4, r4, lsl #2
.Ltmp434:
	@DEBUG_VALUE: RTC_Bcd2ToByte:tmp <- [DW_OP_LLVM_convert 8 7, DW_OP_LLVM_convert 32 7, DW_OP_stack_value] undef
	.loc	6 1892 24 is_stmt 1             @ ../Libraries/STM32F4xx_HAL_Driver/Src/stm32f4xx_hal_rtc.c:1892:24
	and	r2, r2, #15
	.loc	6 1892 15 is_stmt 0             @ ../Libraries/STM32F4xx_HAL_Driver/Src/stm32f4xx_hal_rtc.c:1892:15
	add.w	r2, r2, r4, lsl #1
.Ltmp435:
	.loc	6 0 0                           @ ../Libraries/STM32F4xx_HAL_Driver/Src/stm32f4xx_hal_rtc.c:0:0
	lsrs	r3, r0, #8
.Ltmp436:
	@DEBUG_VALUE: HAL_RTC_GetAlarm:Format <- [DW_OP_LLVM_entry_value 1] $r3
	.loc	6 1565 29 is_stmt 1             @ ../Libraries/STM32F4xx_HAL_Driver/Src/stm32f4xx_hal_rtc.c:1565:29
	strb	r2, [r1]
.Ltmp437:
	@DEBUG_VALUE: RTC_Bcd2ToByte:tmp <- 0
	@DEBUG_VALUE: RTC_Bcd2ToByte:Value <- $r6
	.loc	6 1891 43                       @ ../Libraries/STM32F4xx_HAL_Driver/Src/stm32f4xx_hal_rtc.c:1891:43
	lsrs	r2, r6, #4
	.loc	6 1891 60 is_stmt 0             @ ../Libraries/STM32F4xx_HAL_Driver/Src/stm32f4xx_hal_rtc.c:1891:60
	add.w	r2, r2, r2, lsl #2
.Ltmp438:
	@DEBUG_VALUE: RTC_Bcd2ToByte:tmp <- [DW_OP_LLVM_convert 8 7, DW_OP_LLVM_convert 32 7, DW_OP_stack_value] undef
	.loc	6 1892 24 is_stmt 1             @ ../Libraries/STM32F4xx_HAL_Driver/Src/stm32f4xx_hal_rtc.c:1892:24
	and	r3, r3, #15
	.loc	6 1892 15 is_stmt 0             @ ../Libraries/STM32F4xx_HAL_Driver/Src/stm32f4xx_hal_rtc.c:1892:15
	add.w	r2, r3, r2, lsl #1
.Ltmp439:
	.loc	6 1566 31 is_stmt 1             @ ../Libraries/STM32F4xx_HAL_Driver/Src/stm32f4xx_hal_rtc.c:1566:31
	strb	r2, [r1, #1]
.Ltmp440:
	@DEBUG_VALUE: RTC_Bcd2ToByte:tmp <- 0
	@DEBUG_VALUE: RTC_Bcd2ToByte:Value <- $r12
	.loc	6 1891 43                       @ ../Libraries/STM32F4xx_HAL_Driver/Src/stm32f4xx_hal_rtc.c:1891:43
	lsr.w	r2, r12, #4
.Ltmp441:
	.loc	6 0 0 is_stmt 0                 @ ../Libraries/STM32F4xx_HAL_Driver/Src/stm32f4xx_hal_rtc.c:0:0
	lsrs	r5, r0, #24
.Ltmp442:
	@DEBUG_VALUE: RTC_Bcd2ToByte:tmp <- 0
	@DEBUG_VALUE: RTC_Bcd2ToByte:Value <- $r4
	.loc	6 1891 60                       @ ../Libraries/STM32F4xx_HAL_Driver/Src/stm32f4xx_hal_rtc.c:1891:60
	add.w	r2, r2, r2, lsl #2
.Ltmp443:
	@DEBUG_VALUE: RTC_Bcd2ToByte:tmp <- [DW_OP_LLVM_convert 8 7, DW_OP_LLVM_convert 32 7, DW_OP_stack_value] undef
	.loc	6 1892 24 is_stmt 1             @ ../Libraries/STM32F4xx_HAL_Driver/Src/stm32f4xx_hal_rtc.c:1892:24
	and	r0, r0, #15
.Ltmp444:
	.loc	6 1892 15 is_stmt 0             @ ../Libraries/STM32F4xx_HAL_Driver/Src/stm32f4xx_hal_rtc.c:1892:15
	add.w	r0, r0, r2, lsl #1
.Ltmp445:
	.loc	6 1567 31 is_stmt 1             @ ../Libraries/STM32F4xx_HAL_Driver/Src/stm32f4xx_hal_rtc.c:1567:31
	strb	r0, [r1, #2]
.Ltmp446:
	@DEBUG_VALUE: RTC_Bcd2ToByte:tmp <- 0
	@DEBUG_VALUE: RTC_Bcd2ToByte:Value <- $lr
	.loc	6 1891 43                       @ ../Libraries/STM32F4xx_HAL_Driver/Src/stm32f4xx_hal_rtc.c:1891:43
	lsr.w	r0, lr, #4
	.loc	6 1891 60 is_stmt 0             @ ../Libraries/STM32F4xx_HAL_Driver/Src/stm32f4xx_hal_rtc.c:1891:60
	orr.w	r0, r0, r0, lsl #2
.Ltmp447:
	@DEBUG_VALUE: RTC_Bcd2ToByte:tmp <- [DW_OP_LLVM_convert 8 7, DW_OP_LLVM_convert 32 7, DW_OP_stack_value] undef
	.loc	6 1892 24 is_stmt 1             @ ../Libraries/STM32F4xx_HAL_Driver/Src/stm32f4xx_hal_rtc.c:1892:24
	and	r2, r5, #15
	.loc	6 1892 15 is_stmt 0             @ ../Libraries/STM32F4xx_HAL_Driver/Src/stm32f4xx_hal_rtc.c:1892:15
	add.w	r0, r2, r0, lsl #1
.Ltmp448:
	.loc	6 1568 30 is_stmt 1             @ ../Libraries/STM32F4xx_HAL_Driver/Src/stm32f4xx_hal_rtc.c:1568:30
	strb.w	r0, [r1, #32]
.Ltmp449:
	.loc	6 1571 3                        @ ../Libraries/STM32F4xx_HAL_Driver/Src/stm32f4xx_hal_rtc.c:1571:3
	movs	r0, #0
	pop	{r4, r5, r6, pc}
.Ltmp450:
.Lfunc_end15:
	.size	HAL_RTC_GetAlarm, .Lfunc_end15-HAL_RTC_GetAlarm
	.cfi_endproc
	.cantunwind
	.fnend
                                        @ -- End function
	.section	.text.HAL_RTC_AlarmIRQHandler,"ax",%progbits
	.hidden	HAL_RTC_AlarmIRQHandler         @ -- Begin function HAL_RTC_AlarmIRQHandler
	.globl	HAL_RTC_AlarmIRQHandler
	.p2align	2
	.type	HAL_RTC_AlarmIRQHandler,%function
	.code	16                              @ @HAL_RTC_AlarmIRQHandler
	.thumb_func
HAL_RTC_AlarmIRQHandler:
.Lfunc_begin16:
	.loc	6 1581 0                        @ ../Libraries/STM32F4xx_HAL_Driver/Src/stm32f4xx_hal_rtc.c:1581:0
	.fnstart
	.cfi_startproc
@ %bb.0:
	@DEBUG_VALUE: HAL_RTC_AlarmIRQHandler:hrtc <- $r0
	.save	{r4, lr}
	push	{r4, lr}
	.cfi_def_cfa_offset 8
	.cfi_offset lr, -4
	.cfi_offset r4, -8
	mov	r4, r0
.Ltmp451:
	@DEBUG_VALUE: HAL_RTC_AlarmIRQHandler:hrtc <- $r4
	.loc	6 1583 6 prologue_end           @ ../Libraries/STM32F4xx_HAL_Driver/Src/stm32f4xx_hal_rtc.c:1583:6
	ldr	r0, [r0]
	ldr	r1, [r0, #8]
.Ltmp452:
	.loc	6 1583 6 is_stmt 0              @ ../Libraries/STM32F4xx_HAL_Driver/Src/stm32f4xx_hal_rtc.c:1583:6
	lsls	r1, r1, #19
.Ltmp453:
	.loc	6 1586 8 is_stmt 1              @ ../Libraries/STM32F4xx_HAL_Driver/Src/stm32f4xx_hal_rtc.c:1586:8
	itt	mi
	ldrmi	r1, [r0, #12]
.Ltmp454:
	.loc	6 1586 8 is_stmt 0              @ ../Libraries/STM32F4xx_HAL_Driver/Src/stm32f4xx_hal_rtc.c:1586:8
	lslsmi.w	r1, r1, #23
	bmi	.LBB16_3
.Ltmp455:
.LBB16_1:
	@DEBUG_VALUE: HAL_RTC_AlarmIRQHandler:hrtc <- $r4
	.loc	6 1601 6 is_stmt 1              @ ../Libraries/STM32F4xx_HAL_Driver/Src/stm32f4xx_hal_rtc.c:1601:6
	ldr	r1, [r0, #8]
.Ltmp456:
	.loc	6 1601 6 is_stmt 0              @ ../Libraries/STM32F4xx_HAL_Driver/Src/stm32f4xx_hal_rtc.c:1601:6
	lsls	r1, r1, #18
.Ltmp457:
	.loc	6 1604 8 is_stmt 1              @ ../Libraries/STM32F4xx_HAL_Driver/Src/stm32f4xx_hal_rtc.c:1604:8
	itt	mi
	ldrmi	r0, [r0, #12]
.Ltmp458:
	.loc	6 1604 8 is_stmt 0              @ ../Libraries/STM32F4xx_HAL_Driver/Src/stm32f4xx_hal_rtc.c:1604:8
	lslsmi.w	r0, r0, #22
	bmi	.LBB16_4
.Ltmp459:
.LBB16_2:
	@DEBUG_VALUE: HAL_RTC_AlarmIRQHandler:hrtc <- $r4
	.loc	6 0 8                           @ ../Libraries/STM32F4xx_HAL_Driver/Src/stm32f4xx_hal_rtc.c:0:8
	movw	r0, #15380
	movt	r0, #16385
	mov.w	r1, #131072
	.loc	6 1619 3 is_stmt 1              @ ../Libraries/STM32F4xx_HAL_Driver/Src/stm32f4xx_hal_rtc.c:1619:3
	str	r1, [r0]
	movs	r0, #1
	.loc	6 1622 15                       @ ../Libraries/STM32F4xx_HAL_Driver/Src/stm32f4xx_hal_rtc.c:1622:15
	strb	r0, [r4, #29]
	.loc	6 1623 1                        @ ../Libraries/STM32F4xx_HAL_Driver/Src/stm32f4xx_hal_rtc.c:1623:1
	pop	{r4, pc}
.Ltmp460:
.LBB16_3:
	@DEBUG_VALUE: HAL_RTC_AlarmIRQHandler:hrtc <- $r4
	.loc	6 1592 7                        @ ../Libraries/STM32F4xx_HAL_Driver/Src/stm32f4xx_hal_rtc.c:1592:7
	mov	r0, r4
	bl	HAL_RTC_AlarmAEventCallback
.Ltmp461:
	.loc	6 1596 7                        @ ../Libraries/STM32F4xx_HAL_Driver/Src/stm32f4xx_hal_rtc.c:1596:7
	ldr	r0, [r4]
	ldr	r1, [r0, #12]
	orn	r1, r1, #384
	bic	r1, r1, #256
	str	r1, [r0, #12]
	b	.LBB16_1
.Ltmp462:
.LBB16_4:
	@DEBUG_VALUE: HAL_RTC_AlarmIRQHandler:hrtc <- $r4
	.loc	6 1610 7                        @ ../Libraries/STM32F4xx_HAL_Driver/Src/stm32f4xx_hal_rtc.c:1610:7
	mov	r0, r4
	bl	HAL_RTCEx_AlarmBEventCallback
.Ltmp463:
	.loc	6 1614 7                        @ ../Libraries/STM32F4xx_HAL_Driver/Src/stm32f4xx_hal_rtc.c:1614:7
	ldr	r0, [r4]
	ldr	r1, [r0, #12]
	orn	r1, r1, #640
	bic	r1, r1, #512
	str	r1, [r0, #12]
	b	.LBB16_2
.Ltmp464:
.Lfunc_end16:
	.size	HAL_RTC_AlarmIRQHandler, .Lfunc_end16-HAL_RTC_AlarmIRQHandler
	.cfi_endproc
	.cantunwind
	.fnend
                                        @ -- End function
	.section	.text.HAL_RTC_AlarmAEventCallback,"ax",%progbits
	.hidden	HAL_RTC_AlarmAEventCallback     @ -- Begin function HAL_RTC_AlarmAEventCallback
	.weak	HAL_RTC_AlarmAEventCallback
	.p2align	2
	.type	HAL_RTC_AlarmAEventCallback,%function
	.code	16                              @ @HAL_RTC_AlarmAEventCallback
	.thumb_func
HAL_RTC_AlarmAEventCallback:
.Lfunc_begin17:
	.loc	6 1632 0                        @ ../Libraries/STM32F4xx_HAL_Driver/Src/stm32f4xx_hal_rtc.c:1632:0
	.fnstart
	.cfi_startproc
@ %bb.0:
	@DEBUG_VALUE: HAL_RTC_AlarmAEventCallback:hrtc <- $r0
	.loc	6 1638 1 prologue_end           @ ../Libraries/STM32F4xx_HAL_Driver/Src/stm32f4xx_hal_rtc.c:1638:1
	bx	lr
.Ltmp465:
.Lfunc_end17:
	.size	HAL_RTC_AlarmAEventCallback, .Lfunc_end17-HAL_RTC_AlarmAEventCallback
	.cfi_endproc
	.cantunwind
	.fnend
                                        @ -- End function
	.section	.text.HAL_RTC_PollForAlarmAEvent,"ax",%progbits
	.hidden	HAL_RTC_PollForAlarmAEvent      @ -- Begin function HAL_RTC_PollForAlarmAEvent
	.globl	HAL_RTC_PollForAlarmAEvent
	.p2align	2
	.type	HAL_RTC_PollForAlarmAEvent,%function
	.code	16                              @ @HAL_RTC_PollForAlarmAEvent
	.thumb_func
HAL_RTC_PollForAlarmAEvent:
.Lfunc_begin18:
	.loc	6 1648 0                        @ ../Libraries/STM32F4xx_HAL_Driver/Src/stm32f4xx_hal_rtc.c:1648:0
	.fnstart
	.cfi_startproc
@ %bb.0:
	@DEBUG_VALUE: HAL_RTC_PollForAlarmAEvent:hrtc <- $r0
	@DEBUG_VALUE: HAL_RTC_PollForAlarmAEvent:Timeout <- $r1
	.save	{r4, r5, r6, r7, lr}
	push	{r4, r5, r6, r7, lr}
	.cfi_def_cfa_offset 20
	.cfi_offset lr, -4
	.cfi_offset r7, -8
	.cfi_offset r6, -12
	.cfi_offset r5, -16
	.cfi_offset r4, -20
	.pad	#4
	sub	sp, #4
	.cfi_def_cfa_offset 24
	mov	r5, r1
.Ltmp466:
	@DEBUG_VALUE: HAL_RTC_PollForAlarmAEvent:Timeout <- $r5
	@DEBUG_VALUE: HAL_RTC_PollForAlarmAEvent:Timeout <- $r5
	mov	r4, r0
.Ltmp467:
	@DEBUG_VALUE: HAL_RTC_PollForAlarmAEvent:hrtc <- $r4
	@DEBUG_VALUE: HAL_RTC_PollForAlarmAEvent:tickstart <- 0
	@DEBUG_VALUE: HAL_RTC_PollForAlarmAEvent:hrtc <- $r4
	.loc	6 1652 17 prologue_end          @ ../Libraries/STM32F4xx_HAL_Driver/Src/stm32f4xx_hal_rtc.c:1652:17
	bl	HAL_GetTick
.Ltmp468:
	.loc	6 1654 9                        @ ../Libraries/STM32F4xx_HAL_Driver/Src/stm32f4xx_hal_rtc.c:1654:9
	ldr	r1, [r4]
	ldr	r2, [r1, #12]
	.loc	6 1654 3 is_stmt 0              @ ../Libraries/STM32F4xx_HAL_Driver/Src/stm32f4xx_hal_rtc.c:1654:3
	lsls	r2, r2, #23
.Ltmp469:
	@DEBUG_VALUE: HAL_RTC_PollForAlarmAEvent:tickstart <- $r0
	bmi	.LBB18_14
.Ltmp470:
@ %bb.1:
	@DEBUG_VALUE: HAL_RTC_PollForAlarmAEvent:tickstart <- $r0
	@DEBUG_VALUE: HAL_RTC_PollForAlarmAEvent:hrtc <- $r4
	@DEBUG_VALUE: HAL_RTC_PollForAlarmAEvent:Timeout <- $r5
	@DEBUG_VALUE: HAL_RTC_PollForAlarmAEvent:tickstart <- $r0
	.loc	6 0 3                           @ ../Libraries/STM32F4xx_HAL_Driver/Src/stm32f4xx_hal_rtc.c:0:3
	cbz	r5, .LBB18_3
.Ltmp471:
@ %bb.2:
	@DEBUG_VALUE: HAL_RTC_PollForAlarmAEvent:tickstart <- $r0
	@DEBUG_VALUE: HAL_RTC_PollForAlarmAEvent:hrtc <- $r4
	@DEBUG_VALUE: HAL_RTC_PollForAlarmAEvent:Timeout <- $r5
	mov	r6, r0
.Ltmp472:
	@DEBUG_VALUE: HAL_RTC_PollForAlarmAEvent:tickstart <- $r6
	@DEBUG_VALUE: HAL_RTC_PollForAlarmAEvent:tickstart <- $r6
	adds	r7, r5, #1
	beq	.LBB18_4
	b	.LBB18_12
.Ltmp473:
.LBB18_3:
	@DEBUG_VALUE: HAL_RTC_PollForAlarmAEvent:tickstart <- $r0
	@DEBUG_VALUE: HAL_RTC_PollForAlarmAEvent:hrtc <- $r4
	@DEBUG_VALUE: HAL_RTC_PollForAlarmAEvent:Timeout <- $r5
	movs	r1, #3
	movs	r0, #3
.Ltmp474:
	b	.LBB18_15
.Ltmp475:
	.p2align	2
.LBB18_4:                               @ =>This Inner Loop Header: Depth=1
	@DEBUG_VALUE: HAL_RTC_PollForAlarmAEvent:tickstart <- $r6
	@DEBUG_VALUE: HAL_RTC_PollForAlarmAEvent:hrtc <- $r4
	@DEBUG_VALUE: HAL_RTC_PollForAlarmAEvent:Timeout <- $r5
	.loc	6 1654 9                        @ ../Libraries/STM32F4xx_HAL_Driver/Src/stm32f4xx_hal_rtc.c:1654:9
	ldr	r0, [r1, #12]
	.loc	6 1654 3                        @ ../Libraries/STM32F4xx_HAL_Driver/Src/stm32f4xx_hal_rtc.c:1654:3
	lsls	r0, r0, #23
	bmi	.LBB18_14
.Ltmp476:
@ %bb.5:                                @   in Loop: Header=BB18_4 Depth=1
	@DEBUG_VALUE: HAL_RTC_PollForAlarmAEvent:tickstart <- $r6
	@DEBUG_VALUE: HAL_RTC_PollForAlarmAEvent:hrtc <- $r4
	@DEBUG_VALUE: HAL_RTC_PollForAlarmAEvent:Timeout <- $r5
	.loc	6 1656 8 is_stmt 1              @ ../Libraries/STM32F4xx_HAL_Driver/Src/stm32f4xx_hal_rtc.c:1656:8
	cbnz	r7, .LBB18_12
.Ltmp477:
@ %bb.6:                                @   in Loop: Header=BB18_4 Depth=1
	@DEBUG_VALUE: HAL_RTC_PollForAlarmAEvent:tickstart <- $r6
	@DEBUG_VALUE: HAL_RTC_PollForAlarmAEvent:hrtc <- $r4
	@DEBUG_VALUE: HAL_RTC_PollForAlarmAEvent:Timeout <- $r5
	.loc	6 1654 9                        @ ../Libraries/STM32F4xx_HAL_Driver/Src/stm32f4xx_hal_rtc.c:1654:9
	ldr	r0, [r1, #12]
	.loc	6 1654 3 is_stmt 0              @ ../Libraries/STM32F4xx_HAL_Driver/Src/stm32f4xx_hal_rtc.c:1654:3
	lsls	r0, r0, #23
	bmi	.LBB18_14
.Ltmp478:
@ %bb.7:                                @   in Loop: Header=BB18_4 Depth=1
	@DEBUG_VALUE: HAL_RTC_PollForAlarmAEvent:tickstart <- $r6
	@DEBUG_VALUE: HAL_RTC_PollForAlarmAEvent:hrtc <- $r4
	@DEBUG_VALUE: HAL_RTC_PollForAlarmAEvent:Timeout <- $r5
	.loc	6 1656 8 is_stmt 1              @ ../Libraries/STM32F4xx_HAL_Driver/Src/stm32f4xx_hal_rtc.c:1656:8
	cbnz	r7, .LBB18_12
.Ltmp479:
@ %bb.8:                                @   in Loop: Header=BB18_4 Depth=1
	@DEBUG_VALUE: HAL_RTC_PollForAlarmAEvent:tickstart <- $r6
	@DEBUG_VALUE: HAL_RTC_PollForAlarmAEvent:hrtc <- $r4
	@DEBUG_VALUE: HAL_RTC_PollForAlarmAEvent:Timeout <- $r5
	.loc	6 1654 9                        @ ../Libraries/STM32F4xx_HAL_Driver/Src/stm32f4xx_hal_rtc.c:1654:9
	ldr	r0, [r1, #12]
	.loc	6 1654 3 is_stmt 0              @ ../Libraries/STM32F4xx_HAL_Driver/Src/stm32f4xx_hal_rtc.c:1654:3
	lsls	r0, r0, #23
	bmi	.LBB18_14
.Ltmp480:
@ %bb.9:                                @   in Loop: Header=BB18_4 Depth=1
	@DEBUG_VALUE: HAL_RTC_PollForAlarmAEvent:tickstart <- $r6
	@DEBUG_VALUE: HAL_RTC_PollForAlarmAEvent:hrtc <- $r4
	@DEBUG_VALUE: HAL_RTC_PollForAlarmAEvent:Timeout <- $r5
	.loc	6 1656 8 is_stmt 1              @ ../Libraries/STM32F4xx_HAL_Driver/Src/stm32f4xx_hal_rtc.c:1656:8
	cbnz	r7, .LBB18_12
.Ltmp481:
@ %bb.10:                               @   in Loop: Header=BB18_4 Depth=1
	@DEBUG_VALUE: HAL_RTC_PollForAlarmAEvent:tickstart <- $r6
	@DEBUG_VALUE: HAL_RTC_PollForAlarmAEvent:hrtc <- $r4
	@DEBUG_VALUE: HAL_RTC_PollForAlarmAEvent:Timeout <- $r5
	.loc	6 1654 9                        @ ../Libraries/STM32F4xx_HAL_Driver/Src/stm32f4xx_hal_rtc.c:1654:9
	ldr	r0, [r1, #12]
	.loc	6 1654 3 is_stmt 0              @ ../Libraries/STM32F4xx_HAL_Driver/Src/stm32f4xx_hal_rtc.c:1654:3
	lsls	r0, r0, #23
	bmi	.LBB18_14
.Ltmp482:
@ %bb.11:                               @   in Loop: Header=BB18_4 Depth=1
	@DEBUG_VALUE: HAL_RTC_PollForAlarmAEvent:tickstart <- $r6
	@DEBUG_VALUE: HAL_RTC_PollForAlarmAEvent:hrtc <- $r4
	@DEBUG_VALUE: HAL_RTC_PollForAlarmAEvent:Timeout <- $r5
	.loc	6 1656 8 is_stmt 1              @ ../Libraries/STM32F4xx_HAL_Driver/Src/stm32f4xx_hal_rtc.c:1656:8
	cmp	r7, #0
	beq	.LBB18_4
.Ltmp483:
.LBB18_12:
	@DEBUG_VALUE: HAL_RTC_PollForAlarmAEvent:tickstart <- $r6
	@DEBUG_VALUE: HAL_RTC_PollForAlarmAEvent:hrtc <- $r4
	@DEBUG_VALUE: HAL_RTC_PollForAlarmAEvent:Timeout <- $r5
	.loc	6 1658 29                       @ ../Libraries/STM32F4xx_HAL_Driver/Src/stm32f4xx_hal_rtc.c:1658:29
	bl	HAL_GetTick
.Ltmp484:
	.loc	6 1658 43 is_stmt 0             @ ../Libraries/STM32F4xx_HAL_Driver/Src/stm32f4xx_hal_rtc.c:1658:43
	subs	r0, r0, r6
.Ltmp485:
	.loc	6 1658 10                       @ ../Libraries/STM32F4xx_HAL_Driver/Src/stm32f4xx_hal_rtc.c:1658:10
	cmp	r0, r5
	bhi	.LBB18_16
.Ltmp486:
@ %bb.13:
	@DEBUG_VALUE: HAL_RTC_PollForAlarmAEvent:tickstart <- $r6
	@DEBUG_VALUE: HAL_RTC_PollForAlarmAEvent:hrtc <- $r4
	@DEBUG_VALUE: HAL_RTC_PollForAlarmAEvent:Timeout <- $r5
	.loc	6 1654 9 is_stmt 1              @ ../Libraries/STM32F4xx_HAL_Driver/Src/stm32f4xx_hal_rtc.c:1654:9
	ldr	r1, [r4]
	b	.LBB18_4
.Ltmp487:
.LBB18_14:
	@DEBUG_VALUE: HAL_RTC_PollForAlarmAEvent:hrtc <- $r4
	@DEBUG_VALUE: HAL_RTC_PollForAlarmAEvent:Timeout <- $r5
	.loc	6 1667 3                        @ ../Libraries/STM32F4xx_HAL_Driver/Src/stm32f4xx_hal_rtc.c:1667:3
	ldr	r0, [r1, #12]
	orn	r0, r0, #384
	bic	r0, r0, #256
	str	r0, [r1, #12]
	movs	r0, #0
	movs	r1, #1
.Ltmp488:
.LBB18_15:
	@DEBUG_VALUE: HAL_RTC_PollForAlarmAEvent:hrtc <- $r4
	@DEBUG_VALUE: HAL_RTC_PollForAlarmAEvent:Timeout <- $r5
	.loc	6 0 0 is_stmt 0                 @ ../Libraries/STM32F4xx_HAL_Driver/Src/stm32f4xx_hal_rtc.c:0:0
	strb	r1, [r4, #29]
	.loc	6 1673 1 is_stmt 1              @ ../Libraries/STM32F4xx_HAL_Driver/Src/stm32f4xx_hal_rtc.c:1673:1
	add	sp, #4
	pop	{r4, r5, r6, r7, pc}
.Ltmp489:
.LBB18_16:
	@DEBUG_VALUE: HAL_RTC_PollForAlarmAEvent:tickstart <- $r6
	@DEBUG_VALUE: HAL_RTC_PollForAlarmAEvent:hrtc <- $r4
	@DEBUG_VALUE: HAL_RTC_PollForAlarmAEvent:Timeout <- $r5
	.loc	6 0 1 is_stmt 0                 @ ../Libraries/STM32F4xx_HAL_Driver/Src/stm32f4xx_hal_rtc.c:0:1
	movs	r1, #3
	movs	r0, #3
	b	.LBB18_15
.Lfunc_end18:
	.size	HAL_RTC_PollForAlarmAEvent, .Lfunc_end18-HAL_RTC_PollForAlarmAEvent
	.cfi_endproc
	.cantunwind
	.fnend
                                        @ -- End function
	.section	.text.HAL_RTC_GetState,"ax",%progbits
	.hidden	HAL_RTC_GetState                @ -- Begin function HAL_RTC_GetState
	.globl	HAL_RTC_GetState
	.p2align	2
	.type	HAL_RTC_GetState,%function
	.code	16                              @ @HAL_RTC_GetState
	.thumb_func
HAL_RTC_GetState:
.Lfunc_begin19:
	.loc	6 1756 0 is_stmt 1              @ ../Libraries/STM32F4xx_HAL_Driver/Src/stm32f4xx_hal_rtc.c:1756:0
	.fnstart
	.cfi_startproc
@ %bb.0:
	@DEBUG_VALUE: HAL_RTC_GetState:hrtc <- $r0
	.loc	6 1757 16 prologue_end          @ ../Libraries/STM32F4xx_HAL_Driver/Src/stm32f4xx_hal_rtc.c:1757:16
	ldrb	r0, [r0, #29]
.Ltmp490:
	@DEBUG_VALUE: HAL_RTC_GetState:hrtc <- [DW_OP_LLVM_entry_value 1] $r0
	.loc	6 1757 3 is_stmt 0              @ ../Libraries/STM32F4xx_HAL_Driver/Src/stm32f4xx_hal_rtc.c:1757:3
	bx	lr
.Ltmp491:
.Lfunc_end19:
	.size	HAL_RTC_GetState, .Lfunc_end19-HAL_RTC_GetState
	.cfi_endproc
	.cantunwind
	.fnend
                                        @ -- End function
	.section	.text.HAL_RTC_DST_Add1Hour,"ax",%progbits
	.hidden	HAL_RTC_DST_Add1Hour            @ -- Begin function HAL_RTC_DST_Add1Hour
	.globl	HAL_RTC_DST_Add1Hour
	.p2align	2
	.type	HAL_RTC_DST_Add1Hour,%function
	.code	16                              @ @HAL_RTC_DST_Add1Hour
	.thumb_func
HAL_RTC_DST_Add1Hour:
.Lfunc_begin20:
	.loc	6 1767 0 is_stmt 1              @ ../Libraries/STM32F4xx_HAL_Driver/Src/stm32f4xx_hal_rtc.c:1767:0
	.fnstart
	.cfi_startproc
@ %bb.0:
	@DEBUG_VALUE: HAL_RTC_DST_Add1Hour:hrtc <- $r0
	.loc	6 1769 3 prologue_end           @ ../Libraries/STM32F4xx_HAL_Driver/Src/stm32f4xx_hal_rtc.c:1769:3
	ldr	r0, [r0]
.Ltmp492:
	@DEBUG_VALUE: HAL_RTC_DST_Add1Hour:hrtc <- [DW_OP_LLVM_entry_value 1] $r0
	.loc	6 0 3 is_stmt 0                 @ ../Libraries/STM32F4xx_HAL_Driver/Src/stm32f4xx_hal_rtc.c:0:3
	movs	r1, #202
	.loc	6 1769 3                        @ ../Libraries/STM32F4xx_HAL_Driver/Src/stm32f4xx_hal_rtc.c:1769:3
	str	r1, [r0, #36]
	movs	r1, #83
	str	r1, [r0, #36]
	movw	r1, #10248
	movt	r1, #16384
.Ltmp493:
	.loc	6 1770 3 is_stmt 1              @ ../Libraries/STM32F4xx_HAL_Driver/Src/stm32f4xx_hal_rtc.c:1770:3
	ldr	r2, [r1]
	orr	r2, r2, #65536
	str	r2, [r1]
	movs	r1, #255
.Ltmp494:
	.loc	6 1771 3                        @ ../Libraries/STM32F4xx_HAL_Driver/Src/stm32f4xx_hal_rtc.c:1771:3
	str	r1, [r0, #36]
.Ltmp495:
	.loc	6 1772 1                        @ ../Libraries/STM32F4xx_HAL_Driver/Src/stm32f4xx_hal_rtc.c:1772:1
	bx	lr
.Ltmp496:
.Lfunc_end20:
	.size	HAL_RTC_DST_Add1Hour, .Lfunc_end20-HAL_RTC_DST_Add1Hour
	.cfi_endproc
	.cantunwind
	.fnend
                                        @ -- End function
	.section	.text.HAL_RTC_DST_Sub1Hour,"ax",%progbits
	.hidden	HAL_RTC_DST_Sub1Hour            @ -- Begin function HAL_RTC_DST_Sub1Hour
	.globl	HAL_RTC_DST_Sub1Hour
	.p2align	2
	.type	HAL_RTC_DST_Sub1Hour,%function
	.code	16                              @ @HAL_RTC_DST_Sub1Hour
	.thumb_func
HAL_RTC_DST_Sub1Hour:
.Lfunc_begin21:
	.loc	6 1781 0                        @ ../Libraries/STM32F4xx_HAL_Driver/Src/stm32f4xx_hal_rtc.c:1781:0
	.fnstart
	.cfi_startproc
@ %bb.0:
	@DEBUG_VALUE: HAL_RTC_DST_Sub1Hour:hrtc <- $r0
	.loc	6 1783 3 prologue_end           @ ../Libraries/STM32F4xx_HAL_Driver/Src/stm32f4xx_hal_rtc.c:1783:3
	ldr	r0, [r0]
.Ltmp497:
	@DEBUG_VALUE: HAL_RTC_DST_Sub1Hour:hrtc <- [DW_OP_LLVM_entry_value 1] $r0
	.loc	6 0 3 is_stmt 0                 @ ../Libraries/STM32F4xx_HAL_Driver/Src/stm32f4xx_hal_rtc.c:0:3
	movs	r1, #202
	.loc	6 1783 3                        @ ../Libraries/STM32F4xx_HAL_Driver/Src/stm32f4xx_hal_rtc.c:1783:3
	str	r1, [r0, #36]
	movs	r1, #83
	str	r1, [r0, #36]
	movw	r1, #10248
	movt	r1, #16384
.Ltmp498:
	.loc	6 1784 3 is_stmt 1              @ ../Libraries/STM32F4xx_HAL_Driver/Src/stm32f4xx_hal_rtc.c:1784:3
	ldr	r2, [r1]
	orr	r2, r2, #131072
	str	r2, [r1]
	movs	r1, #255
.Ltmp499:
	.loc	6 1785 3                        @ ../Libraries/STM32F4xx_HAL_Driver/Src/stm32f4xx_hal_rtc.c:1785:3
	str	r1, [r0, #36]
.Ltmp500:
	.loc	6 1786 1                        @ ../Libraries/STM32F4xx_HAL_Driver/Src/stm32f4xx_hal_rtc.c:1786:1
	bx	lr
.Ltmp501:
.Lfunc_end21:
	.size	HAL_RTC_DST_Sub1Hour, .Lfunc_end21-HAL_RTC_DST_Sub1Hour
	.cfi_endproc
	.cantunwind
	.fnend
                                        @ -- End function
	.section	.text.HAL_RTC_DST_SetStoreOperation,"ax",%progbits
	.hidden	HAL_RTC_DST_SetStoreOperation   @ -- Begin function HAL_RTC_DST_SetStoreOperation
	.globl	HAL_RTC_DST_SetStoreOperation
	.p2align	2
	.type	HAL_RTC_DST_SetStoreOperation,%function
	.code	16                              @ @HAL_RTC_DST_SetStoreOperation
	.thumb_func
HAL_RTC_DST_SetStoreOperation:
.Lfunc_begin22:
	.loc	6 1795 0                        @ ../Libraries/STM32F4xx_HAL_Driver/Src/stm32f4xx_hal_rtc.c:1795:0
	.fnstart
	.cfi_startproc
@ %bb.0:
	@DEBUG_VALUE: HAL_RTC_DST_SetStoreOperation:hrtc <- $r0
	.loc	6 1797 3 prologue_end           @ ../Libraries/STM32F4xx_HAL_Driver/Src/stm32f4xx_hal_rtc.c:1797:3
	ldr	r0, [r0]
.Ltmp502:
	@DEBUG_VALUE: HAL_RTC_DST_SetStoreOperation:hrtc <- [DW_OP_LLVM_entry_value 1] $r0
	.loc	6 0 3 is_stmt 0                 @ ../Libraries/STM32F4xx_HAL_Driver/Src/stm32f4xx_hal_rtc.c:0:3
	movs	r1, #202
	.loc	6 1797 3                        @ ../Libraries/STM32F4xx_HAL_Driver/Src/stm32f4xx_hal_rtc.c:1797:3
	str	r1, [r0, #36]
	movs	r1, #83
	str	r1, [r0, #36]
	movw	r1, #10248
	movt	r1, #16384
.Ltmp503:
	.loc	6 1798 3 is_stmt 1              @ ../Libraries/STM32F4xx_HAL_Driver/Src/stm32f4xx_hal_rtc.c:1798:3
	ldr	r2, [r1]
	orr	r2, r2, #262144
	str	r2, [r1]
	movs	r1, #255
.Ltmp504:
	.loc	6 1799 3                        @ ../Libraries/STM32F4xx_HAL_Driver/Src/stm32f4xx_hal_rtc.c:1799:3
	str	r1, [r0, #36]
.Ltmp505:
	.loc	6 1800 1                        @ ../Libraries/STM32F4xx_HAL_Driver/Src/stm32f4xx_hal_rtc.c:1800:1
	bx	lr
.Ltmp506:
.Lfunc_end22:
	.size	HAL_RTC_DST_SetStoreOperation, .Lfunc_end22-HAL_RTC_DST_SetStoreOperation
	.cfi_endproc
	.cantunwind
	.fnend
                                        @ -- End function
	.section	.text.HAL_RTC_DST_ClearStoreOperation,"ax",%progbits
	.hidden	HAL_RTC_DST_ClearStoreOperation @ -- Begin function HAL_RTC_DST_ClearStoreOperation
	.globl	HAL_RTC_DST_ClearStoreOperation
	.p2align	2
	.type	HAL_RTC_DST_ClearStoreOperation,%function
	.code	16                              @ @HAL_RTC_DST_ClearStoreOperation
	.thumb_func
HAL_RTC_DST_ClearStoreOperation:
.Lfunc_begin23:
	.loc	6 1808 0                        @ ../Libraries/STM32F4xx_HAL_Driver/Src/stm32f4xx_hal_rtc.c:1808:0
	.fnstart
	.cfi_startproc
@ %bb.0:
	@DEBUG_VALUE: HAL_RTC_DST_ClearStoreOperation:hrtc <- $r0
	.loc	6 1810 3 prologue_end           @ ../Libraries/STM32F4xx_HAL_Driver/Src/stm32f4xx_hal_rtc.c:1810:3
	ldr	r0, [r0]
.Ltmp507:
	@DEBUG_VALUE: HAL_RTC_DST_ClearStoreOperation:hrtc <- [DW_OP_LLVM_entry_value 1] $r0
	.loc	6 0 3 is_stmt 0                 @ ../Libraries/STM32F4xx_HAL_Driver/Src/stm32f4xx_hal_rtc.c:0:3
	movs	r1, #202
	.loc	6 1810 3                        @ ../Libraries/STM32F4xx_HAL_Driver/Src/stm32f4xx_hal_rtc.c:1810:3
	str	r1, [r0, #36]
	movs	r1, #83
	str	r1, [r0, #36]
	movw	r1, #10248
	movt	r1, #16384
.Ltmp508:
	.loc	6 1811 3 is_stmt 1              @ ../Libraries/STM32F4xx_HAL_Driver/Src/stm32f4xx_hal_rtc.c:1811:3
	ldr	r2, [r1]
	bic	r2, r2, #262144
	str	r2, [r1]
	movs	r1, #255
.Ltmp509:
	.loc	6 1812 3                        @ ../Libraries/STM32F4xx_HAL_Driver/Src/stm32f4xx_hal_rtc.c:1812:3
	str	r1, [r0, #36]
.Ltmp510:
	.loc	6 1813 1                        @ ../Libraries/STM32F4xx_HAL_Driver/Src/stm32f4xx_hal_rtc.c:1813:1
	bx	lr
.Ltmp511:
.Lfunc_end23:
	.size	HAL_RTC_DST_ClearStoreOperation, .Lfunc_end23-HAL_RTC_DST_ClearStoreOperation
	.cfi_endproc
	.cantunwind
	.fnend
                                        @ -- End function
	.section	.text.HAL_RTC_DST_ReadStoreOperation,"ax",%progbits
	.hidden	HAL_RTC_DST_ReadStoreOperation  @ -- Begin function HAL_RTC_DST_ReadStoreOperation
	.globl	HAL_RTC_DST_ReadStoreOperation
	.p2align	2
	.type	HAL_RTC_DST_ReadStoreOperation,%function
	.code	16                              @ @HAL_RTC_DST_ReadStoreOperation
	.thumb_func
HAL_RTC_DST_ReadStoreOperation:
.Lfunc_begin24:
	.loc	6 1821 0                        @ ../Libraries/STM32F4xx_HAL_Driver/Src/stm32f4xx_hal_rtc.c:1821:0
	.fnstart
	.cfi_startproc
@ %bb.0:
	@DEBUG_VALUE: HAL_RTC_DST_ReadStoreOperation:hrtc <- $r0
	movw	r0, #10248
.Ltmp512:
	@DEBUG_VALUE: HAL_RTC_DST_ReadStoreOperation:hrtc <- [DW_OP_LLVM_entry_value 1] $r0
	movt	r0, #16384
.Ltmp513:
	.loc	6 1823 10 prologue_end          @ ../Libraries/STM32F4xx_HAL_Driver/Src/stm32f4xx_hal_rtc.c:1823:10
	ldr	r0, [r0]
	and	r0, r0, #262144
	.loc	6 1823 3 is_stmt 0              @ ../Libraries/STM32F4xx_HAL_Driver/Src/stm32f4xx_hal_rtc.c:1823:3
	bx	lr
.Ltmp514:
.Lfunc_end24:
	.size	HAL_RTC_DST_ReadStoreOperation, .Lfunc_end24-HAL_RTC_DST_ReadStoreOperation
	.cfi_endproc
	.cantunwind
	.fnend
                                        @ -- End function
	.section	".note.GNU-stack","",%progbits
	.eabi_attribute	30, 1	@ Tag_ABI_optimization_goals
	.ARM_attribute	16, 1	@ Tag_AV_eba