	.text
	.syntax unified
	.eabi_attribute	67, "2.09"	@ Tag_conformance
	.cpu	cortex-m4
	.eabi_attribute	6, 13	@ Tag_CPU_arch
	.eabi_attribute	7, 77	@ Tag_CPU_arch_profile
	.eabi_attribute	8, 0	@ Tag_ARM_ISA_use
	.eabi_attribute	9, 2	@ Tag_THUMB_ISA_use
	.fpu	fpv4-sp-d16
	.eabi_attribute	27, 1	@ Tag_ABI_HardFP_use
	.eabi_attribute	36, 1	@ Tag_FP_HP_extension
	.eabi_attribute	34, 1	@ Tag_CPU_unaligned_access
	.eabi_attribute	17, 1	@ Tag_ABI_PCS_GOT_use
	.eabi_attribute	20, 2	@ Tag_ABI_FP_denormal
	.eabi_attribute	21, 0	@ Tag_ABI_FP_exceptions
	.eabi_attribute	23, 1	@ Tag_ABI_FP_number_model
	.eabi_attribute	24, 1	@ Tag_ABI_align_needed
	.eabi_attribute	25, 1	@ Tag_ABI_align_preserved
	.eabi_attribute	28, 1	@ Tag_ABI_VFP_args
	.eabi_attribute	38, 1	@ Tag_ABI_FP_16bit_format
	.eabi_attribute	18, 2	@ Tag_ABI_PCS_wchar_t
	.eabi_attribute	26, 1	@ Tag_ABI_enum_size
	.eabi_attribute	14, 0	@ Tag_ABI_PCS_R9_use
	.file	"stm32f4xx_hal_dma_ex.c"
	.file	1 "E:\\StudyNote\\study_STM32-HAL\\STM32F4_Quick_Start_Guide_HAL\\2.code\\20.RNG-Key\\Project" "../Libraries/STM32F4xx_HAL_Driver/Inc/stm32f4xx_hal_def.h"
	.file	2 "E:\\StudyNote\\study_STM32-HAL\\STM32F4_Quick_Start_Guide_HAL\\2.code\\20.RNG-Key\\Project" "../Libraries/STM32F4xx_HAL_Driver/Inc\\stm32f4xx_hal_dma.h"
	.file	3 "E:\\StudyNote\\study_STM32-HAL\\STM32F4_Quick_Start_Guide_HAL\\2.code\\20.RNG-Key\\Project" "../Libraries/STM32F4xx_HAL_Driver/Inc/stm32f4xx_hal_dma_ex.h"
	.file	4 "E:\\dianzi\\MDKv5\\ARM\\ARMCLANG\\Bin\\..\\include" "stdint.h"
	.file	5 "E:\\StudyNote\\study_STM32-HAL\\STM32F4_Quick_Start_Guide_HAL\\2.code\\20.RNG-Key\\Project" "../Libraries/CMSIS/Device/ST/STM32F4xx/Include/stm32f407xx.h"
	.section	.text.HAL_DMAEx_MultiBufferStart,"ax",%progbits
	.hidden	HAL_DMAEx_MultiBufferStart      @ -- Begin function HAL_DMAEx_MultiBufferStart
	.globl	HAL_DMAEx_MultiBufferStart
	.p2align	2
	.type	HAL_DMAEx_MultiBufferStart,%function
	.code	16                              @ @HAL_DMAEx_MultiBufferStart
	.thumb_func
HAL_DMAEx_MultiBufferStart:
.Lfunc_begin0:
	.file	6 "E:\\StudyNote\\study_STM32-HAL\\STM32F4_Quick_Start_Guide_HAL\\2.code\\20.RNG-Key\\Project" "../Libraries/STM32F4xx_HAL_Driver/Src/stm32f4xx_hal_dma_ex.c"
	.loc	6 102 0                         @ ../Libraries/STM32F4xx_HAL_Driver/Src/stm32f4xx_hal_dma_ex.c:102:0
	.fnstart
	.cfi_sections .debug_frame
	.cfi_startproc
@ %bb.0:
	@DEBUG_VALUE: HAL_DMAEx_MultiBufferStart:hdma <- $r0
	@DEBUG_VALUE: HAL_DMAEx_MultiBufferStart:SrcAddress <- $r1
	@DEBUG_VALUE: HAL_DMAEx_MultiBufferStart:DstAddress <- $r2
	@DEBUG_VALUE: HAL_DMAEx_MultiBufferStart:SecondMemAddress <- $r3
	.save	{r4, r5, r7, lr}
	push	{r4, r5, r7, lr}
	.cfi_def_cfa_offset 16
	.cfi_offset lr, -4
	.cfi_offset r7, -8
	.cfi_offset r5, -12
	.cfi_offset r4, -16
.Ltmp0:
	@DEBUG_VALUE: HAL_DMAEx_MultiBufferStart:DataLength <- [DW_OP_plus_uconst 16] [$sp+0]
	@DEBUG_VALUE: HAL_DMAEx_MultiBufferStart:status <- 0
	.loc	6 109 18 prologue_end           @ ../Libraries/STM32F4xx_HAL_Driver/Src/stm32f4xx_hal_dma_ex.c:109:18
	ldr.w	lr, [r0, #8]
.Ltmp1:
	.loc	6 109 7 is_stmt 0               @ ../Libraries/STM32F4xx_HAL_Driver/Src/stm32f4xx_hal_dma_ex.c:109:7
	cmp.w	lr, #128
	bne	.LBB0_2
.Ltmp2:
@ %bb.1:
	@DEBUG_VALUE: HAL_DMAEx_MultiBufferStart:status <- 0
	@DEBUG_VALUE: HAL_DMAEx_MultiBufferStart:DataLength <- [DW_OP_plus_uconst 16] [$sp+0]
	@DEBUG_VALUE: HAL_DMAEx_MultiBufferStart:SecondMemAddress <- $r3
	@DEBUG_VALUE: HAL_DMAEx_MultiBufferStart:DstAddress <- $r2
	@DEBUG_VALUE: HAL_DMAEx_MultiBufferStart:SrcAddress <- $r1
	@DEBUG_VALUE: HAL_DMAEx_MultiBufferStart:hdma <- $r0
	.loc	6 0 7                           @ ../Libraries/STM32F4xx_HAL_Driver/Src/stm32f4xx_hal_dma_ex.c:0:7
	mov.w	r1, #256
.Ltmp3:
	@DEBUG_VALUE: HAL_DMAEx_MultiBufferStart:SrcAddress <- [DW_OP_LLVM_entry_value 1] $r1
	.loc	6 111 21 is_stmt 1              @ ../Libraries/STM32F4xx_HAL_Driver/Src/stm32f4xx_hal_dma_ex.c:111:21
	str	r1, [r0, #84]
	movs	r0, #1
.Ltmp4:
	@DEBUG_VALUE: HAL_DMAEx_MultiBufferStart:hdma <- [DW_OP_LLVM_entry_value 1] $r0
	@DEBUG_VALUE: HAL_DMAEx_MultiBufferStart:status <- 1
	.loc	6 143 1                         @ ../Libraries/STM32F4xx_HAL_Driver/Src/stm32f4xx_hal_dma_ex.c:143:1
	pop	{r4, r5, r7, pc}
.Ltmp5:
.LBB0_2:
	@DEBUG_VALUE: HAL_DMAEx_MultiBufferStart:status <- 0
	@DEBUG_VALUE: HAL_DMAEx_MultiBufferStart:DataLength <- [DW_OP_plus_uconst 16] [$sp+0]
	@DEBUG_VALUE: HAL_DMAEx_MultiBufferStart:SecondMemAddress <- $r3
	@DEBUG_VALUE: HAL_DMAEx_MultiBufferStart:DstAddress <- $r2
	@DEBUG_VALUE: HAL_DMAEx_MultiBufferStart:SrcAddress <- $r1
	@DEBUG_VALUE: HAL_DMAEx_MultiBufferStart:hdma <- $r0
	.loc	6 117 5                         @ ../Libraries/STM32F4xx_HAL_Driver/Src/stm32f4xx_hal_dma_ex.c:117:5
	ldrb.w	r12, [r0, #52]
.Ltmp6:
	.loc	6 117 5 is_stmt 0               @ ../Libraries/STM32F4xx_HAL_Driver/Src/stm32f4xx_hal_dma_ex.c:117:5
	cmp.w	r12, #1
	itt	eq
	moveq	r0, #2
.Ltmp7:
	@DEBUG_VALUE: HAL_DMAEx_MultiBufferStart:hdma <- [DW_OP_LLVM_entry_value 1] $r0
	.loc	6 143 1 is_stmt 1               @ ../Libraries/STM32F4xx_HAL_Driver/Src/stm32f4xx_hal_dma_ex.c:143:1
	popeq	{r4, r5, r7, pc}
.Ltmp8:
.LBB0_3:
	@DEBUG_VALUE: HAL_DMAEx_MultiBufferStart:hdma <- [DW_OP_LLVM_entry_value 1] $r0
	@DEBUG_VALUE: HAL_DMAEx_MultiBufferStart:status <- 0
	@DEBUG_VALUE: HAL_DMAEx_MultiBufferStart:DataLength <- [DW_OP_plus_uconst 16] [$sp+0]
	@DEBUG_VALUE: HAL_DMAEx_MultiBufferStart:SecondMemAddress <- $r3
	@DEBUG_VALUE: HAL_DMAEx_MultiBufferStart:DstAddress <- $r2
	@DEBUG_VALUE: HAL_DMAEx_MultiBufferStart:SrcAddress <- $r1
	.loc	6 0 1 is_stmt 0                 @ ../Libraries/STM32F4xx_HAL_Driver/Src/stm32f4xx_hal_dma_ex.c:0:1
	mov.w	r12, #1
.Ltmp9:
	.loc	6 117 5 is_stmt 1               @ ../Libraries/STM32F4xx_HAL_Driver/Src/stm32f4xx_hal_dma_ex.c:117:5
	strb.w	r12, [r0, #52]
.Ltmp10:
	.loc	6 119 37                        @ ../Libraries/STM32F4xx_HAL_Driver/Src/stm32f4xx_hal_dma_ex.c:119:37
	ldrb.w	r12, [r0, #53]
.Ltmp11:
	.loc	6 119 8 is_stmt 0               @ ../Libraries/STM32F4xx_HAL_Driver/Src/stm32f4xx_hal_dma_ex.c:119:8
	cmp.w	r12, #1
	mov.w	r12, #2
	bne	.LBB0_5
.Ltmp12:
@ %bb.4:
	@DEBUG_VALUE: HAL_DMAEx_MultiBufferStart:hdma <- [DW_OP_LLVM_entry_value 1] $r0
	@DEBUG_VALUE: HAL_DMAEx_MultiBufferStart:status <- 0
	@DEBUG_VALUE: HAL_DMAEx_MultiBufferStart:DataLength <- [DW_OP_plus_uconst 16] [$sp+0]
	@DEBUG_VALUE: HAL_DMAEx_MultiBufferStart:SecondMemAddress <- $r3
	@DEBUG_VALUE: HAL_DMAEx_MultiBufferStart:DstAddress <- $r2
	@DEBUG_VALUE: HAL_DMAEx_MultiBufferStart:SrcAddress <- $r1
	.loc	6 122 19 is_stmt 1              @ ../Libraries/STM32F4xx_HAL_Driver/Src/stm32f4xx_hal_dma_ex.c:122:19
	strb.w	r12, [r0, #53]
	.loc	6 125 13                        @ ../Libraries/STM32F4xx_HAL_Driver/Src/stm32f4xx_hal_dma_ex.c:125:13
	ldr	r0, [r0]
	ldr	r5, [sp, #16]
	.loc	6 125 26 is_stmt 0              @ ../Libraries/STM32F4xx_HAL_Driver/Src/stm32f4xx_hal_dma_ex.c:125:26
	ldr.w	r12, [r0]
	cmp.w	lr, #64
	orr	r4, r12, #262144
	str	r4, [r0]
	.loc	6 128 28 is_stmt 1              @ ../Libraries/STM32F4xx_HAL_Driver/Src/stm32f4xx_hal_dma_ex.c:128:28
	str	r3, [r0, #16]
.Ltmp13:
	@DEBUG_VALUE: DMA_MultiBufferSetConfig:DataLength <- $r5
	@DEBUG_VALUE: DMA_MultiBufferSetConfig:DstAddress <- $r2
	@DEBUG_VALUE: DMA_MultiBufferSetConfig:SrcAddress <- $r1
	@DEBUG_VALUE: DMA_MultiBufferSetConfig:hdma <- undef
	.loc	6 0 28 is_stmt 0                @ ../Libraries/STM32F4xx_HAL_Driver/Src/stm32f4xx_hal_dma_ex.c:0:28
	mov	r3, r1
.Ltmp14:
	@DEBUG_VALUE: HAL_DMAEx_MultiBufferStart:SecondMemAddress <- [DW_OP_LLVM_entry_value 1] $r3
	.loc	6 280 24 is_stmt 1              @ ../Libraries/STM32F4xx_HAL_Driver/Src/stm32f4xx_hal_dma_ex.c:280:24
	str	r5, [r0, #4]
	itt	eq
	moveq	r3, r2
	moveq	r2, r1
.Ltmp15:
	@DEBUG_VALUE: HAL_DMAEx_MultiBufferStart:DstAddress <- [DW_OP_LLVM_entry_value 1] $r2
	.loc	6 0 0 is_stmt 0                 @ ../Libraries/STM32F4xx_HAL_Driver/Src/stm32f4xx_hal_dma_ex.c:0:0
	str	r3, [r0, #8]
	str	r2, [r0, #12]
.Ltmp16:
	.loc	6 134 7 is_stmt 1               @ ../Libraries/STM32F4xx_HAL_Driver/Src/stm32f4xx_hal_dma_ex.c:134:7
	ldr	r1, [r0]
.Ltmp17:
	@DEBUG_VALUE: HAL_DMAEx_MultiBufferStart:SrcAddress <- [DW_OP_LLVM_entry_value 1] $r1
	.loc	6 0 7 is_stmt 0                 @ ../Libraries/STM32F4xx_HAL_Driver/Src/stm32f4xx_hal_dma_ex.c:0:7
	mov.w	r12, #0
	.loc	6 134 7                         @ ../Libraries/STM32F4xx_HAL_Driver/Src/stm32f4xx_hal_dma_ex.c:134:7
	orr	r1, r1, #1
	str	r1, [r0]
.Ltmp18:
.LBB0_5:
	@DEBUG_VALUE: HAL_DMAEx_MultiBufferStart:hdma <- [DW_OP_LLVM_entry_value 1] $r0
	@DEBUG_VALUE: HAL_DMAEx_MultiBufferStart:status <- 0
	@DEBUG_VALUE: HAL_DMAEx_MultiBufferStart:DataLength <- [DW_OP_plus_uconst 16] [$sp+0]
	.loc	6 143 1 is_stmt 1               @ ../Libraries/STM32F4xx_HAL_Driver/Src/stm32f4xx_hal_dma_ex.c:143:1
	mov	r0, r12
	pop	{r4, r5, r7, pc}
.Ltmp19:
.Lfunc_end0:
	.size	HAL_DMAEx_MultiBufferStart, .Lfunc_end0-HAL_DMAEx_MultiBufferStart
	.cfi_endproc
	.cantunwind
	.fnend
                                        @ -- End function
	.section	.text.HAL_DMAEx_MultiBufferStart_IT,"ax",%progbits
	.hidden	HAL_DMAEx_MultiBufferStart_IT   @ -- Begin function HAL_DMAEx_MultiBufferStart_IT
	.globl	HAL_DMAEx_MultiBufferStart_IT
	.p2align	2
	.type	HAL_DMAEx_MultiBufferStart_IT,%function
	.code	16                              @ @HAL_DMAEx_MultiBufferStart_IT
	.thumb_func
HAL_DMAEx_MultiBufferStart_IT:
.Lfunc_begin1:
	.loc	6 156 0                         @ ../Libraries/STM32F4xx_HAL_Driver/Src/stm32f4xx_hal_dma_ex.c:156:0
	.fnstart
	.cfi_startproc
@ %bb.0:
	@DEBUG_VALUE: HAL_DMAEx_MultiBufferStart_IT:hdma <- $r0
	@DEBUG_VALUE: HAL_DMAEx_MultiBufferStart_IT:SrcAddress <- $r1
	@DEBUG_VALUE: HAL_DMAEx_MultiBufferStart_IT:DstAddress <- $r2
	@DEBUG_VALUE: HAL_DMAEx_MultiBufferStart_IT:SecondMemAddress <- $r3
	.save	{r4, r5, r6, lr}
	push	{r4, r5, r6, lr}
	.cfi_def_cfa_offset 16
	.cfi_offset lr, -4
	.cfi_offset r6, -8
	.cfi_offset r5, -12
	.cfi_offset r4, -16
.Ltmp20:
	@DEBUG_VALUE: HAL_DMAEx_MultiBufferStart_IT:DataLength <- [DW_OP_plus_uconst 16] [$sp+0]
	@DEBUG_VALUE: HAL_DMAEx_MultiBufferStart_IT:status <- 0
	.loc	6 163 18 prologue_end           @ ../Libraries/STM32F4xx_HAL_Driver/Src/stm32f4xx_hal_dma_ex.c:163:18
	ldr	r5, [r0, #8]
.Ltmp21:
	.loc	6 163 7 is_stmt 0               @ ../Libraries/STM32F4xx_HAL_Driver/Src/stm32f4xx_hal_dma_ex.c:163:7
	cmp	r5, #128
	bne	.LBB1_2
.Ltmp22:
@ %bb.1:
	@DEBUG_VALUE: HAL_DMAEx_MultiBufferStart_IT:status <- 0
	@DEBUG_VALUE: HAL_DMAEx_MultiBufferStart_IT:DataLength <- [DW_OP_plus_uconst 16] [$sp+0]
	@DEBUG_VALUE: HAL_DMAEx_MultiBufferStart_IT:SecondMemAddress <- $r3
	@DEBUG_VALUE: HAL_DMAEx_MultiBufferStart_IT:DstAddress <- $r2
	@DEBUG_VALUE: HAL_DMAEx_MultiBufferStart_IT:SrcAddress <- $r1
	@DEBUG_VALUE: HAL_DMAEx_MultiBufferStart_IT:hdma <- $r0
	.loc	6 0 7                           @ ../Libraries/STM32F4xx_HAL_Driver/Src/stm32f4xx_hal_dma_ex.c:0:7
	mov.w	r1, #256
.Ltmp23:
	@DEBUG_VALUE: HAL_DMAEx_MultiBufferStart_IT:SrcAddress <- [DW_OP_LLVM_entry_value 1] $r1
	b	.LBB1_12
.Ltmp24:
.LBB1_2:
	@DEBUG_VALUE: HAL_DMAEx_MultiBufferStart_IT:status <- 0
	@DEBUG_VALUE: HAL_DMAEx_MultiBufferStart_IT:DataLength <- [DW_OP_plus_uconst 16] [$sp+0]
	@DEBUG_VALUE: HAL_DMAEx_MultiBufferStart_IT:SecondMemAddress <- $r3
	@DEBUG_VALUE: HAL_DMAEx_MultiBufferStart_IT:DstAddress <- $r2
	@DEBUG_VALUE: HAL_DMAEx_MultiBufferStart_IT:SrcAddress <- $r1
	@DEBUG_VALUE: HAL_DMAEx_MultiBufferStart_IT:hdma <- $r0
	.loc	6 170 22 is_stmt 1              @ ../Libraries/STM32F4xx_HAL_Driver/Src/stm32f4xx_hal_dma_ex.c:170:22
	ldr	r4, [r0, #60]
	.loc	6 170 40 is_stmt 0              @ ../Libraries/STM32F4xx_HAL_Driver/Src/stm32f4xx_hal_dma_ex.c:170:40
	cmp	r4, #0
	beq	.LBB1_11
.Ltmp25:
@ %bb.3:
	@DEBUG_VALUE: HAL_DMAEx_MultiBufferStart_IT:status <- 0
	@DEBUG_VALUE: HAL_DMAEx_MultiBufferStart_IT:DataLength <- [DW_OP_plus_uconst 16] [$sp+0]
	@DEBUG_VALUE: HAL_DMAEx_MultiBufferStart_IT:SecondMemAddress <- $r3
	@DEBUG_VALUE: HAL_DMAEx_MultiBufferStart_IT:DstAddress <- $r2
	@DEBUG_VALUE: HAL_DMAEx_MultiBufferStart_IT:SrcAddress <- $r1
	@DEBUG_VALUE: HAL_DMAEx_MultiBufferStart_IT:hdma <- $r0
	.loc	6 170 58                        @ ../Libraries/STM32F4xx_HAL_Driver/Src/stm32f4xx_hal_dma_ex.c:170:58
	ldr	r4, [r0, #68]
	.loc	6 170 78                        @ ../Libraries/STM32F4xx_HAL_Driver/Src/stm32f4xx_hal_dma_ex.c:170:78
	cmp	r4, #0
	beq	.LBB1_11
.Ltmp26:
@ %bb.4:
	@DEBUG_VALUE: HAL_DMAEx_MultiBufferStart_IT:status <- 0
	@DEBUG_VALUE: HAL_DMAEx_MultiBufferStart_IT:DataLength <- [DW_OP_plus_uconst 16] [$sp+0]
	@DEBUG_VALUE: HAL_DMAEx_MultiBufferStart_IT:SecondMemAddress <- $r3
	@DEBUG_VALUE: HAL_DMAEx_MultiBufferStart_IT:DstAddress <- $r2
	@DEBUG_VALUE: HAL_DMAEx_MultiBufferStart_IT:SrcAddress <- $r1
	@DEBUG_VALUE: HAL_DMAEx_MultiBufferStart_IT:hdma <- $r0
	.loc	6 170 96                        @ ../Libraries/STM32F4xx_HAL_Driver/Src/stm32f4xx_hal_dma_ex.c:170:96
	ldr	r4, [r0, #76]
.Ltmp27:
	.loc	6 170 7                         @ ../Libraries/STM32F4xx_HAL_Driver/Src/stm32f4xx_hal_dma_ex.c:170:7
	cmp	r4, #0
	beq	.LBB1_11
.Ltmp28:
@ %bb.5:
	@DEBUG_VALUE: HAL_DMAEx_MultiBufferStart_IT:status <- 0
	@DEBUG_VALUE: HAL_DMAEx_MultiBufferStart_IT:DataLength <- [DW_OP_plus_uconst 16] [$sp+0]
	@DEBUG_VALUE: HAL_DMAEx_MultiBufferStart_IT:SecondMemAddress <- $r3
	@DEBUG_VALUE: HAL_DMAEx_MultiBufferStart_IT:DstAddress <- $r2
	@DEBUG_VALUE: HAL_DMAEx_MultiBufferStart_IT:SrcAddress <- $r1
	@DEBUG_VALUE: HAL_DMAEx_MultiBufferStart_IT:hdma <- $r0
	.loc	6 177 3 is_stmt 1               @ ../Libraries/STM32F4xx_HAL_Driver/Src/stm32f4xx_hal_dma_ex.c:177:3
	ldrb.w	r4, [r0, #52]
.Ltmp29:
	.loc	6 177 3 is_stmt 0               @ ../Libraries/STM32F4xx_HAL_Driver/Src/stm32f4xx_hal_dma_ex.c:177:3
	cmp	r4, #1
	beq	.LBB1_14
.Ltmp30:
@ %bb.6:
	@DEBUG_VALUE: HAL_DMAEx_MultiBufferStart_IT:status <- 0
	@DEBUG_VALUE: HAL_DMAEx_MultiBufferStart_IT:DataLength <- [DW_OP_plus_uconst 16] [$sp+0]
	@DEBUG_VALUE: HAL_DMAEx_MultiBufferStart_IT:SecondMemAddress <- $r3
	@DEBUG_VALUE: HAL_DMAEx_MultiBufferStart_IT:DstAddress <- $r2
	@DEBUG_VALUE: HAL_DMAEx_MultiBufferStart_IT:SrcAddress <- $r1
	@DEBUG_VALUE: HAL_DMAEx_MultiBufferStart_IT:hdma <- $r0
	.loc	6 0 3                           @ ../Libraries/STM32F4xx_HAL_Driver/Src/stm32f4xx_hal_dma_ex.c:0:3
	movs	r4, #1
.Ltmp31:
	.loc	6 177 3                         @ ../Libraries/STM32F4xx_HAL_Driver/Src/stm32f4xx_hal_dma_ex.c:177:3
	strb.w	r4, [r0, #52]
.Ltmp32:
	.loc	6 179 35 is_stmt 1              @ ../Libraries/STM32F4xx_HAL_Driver/Src/stm32f4xx_hal_dma_ex.c:179:35
	ldrb.w	r4, [r0, #53]
.Ltmp33:
	.loc	6 179 6 is_stmt 0               @ ../Libraries/STM32F4xx_HAL_Driver/Src/stm32f4xx_hal_dma_ex.c:179:6
	cmp	r4, #1
	bne	.LBB1_13
.Ltmp34:
@ %bb.7:
	@DEBUG_VALUE: HAL_DMAEx_MultiBufferStart_IT:status <- 0
	@DEBUG_VALUE: HAL_DMAEx_MultiBufferStart_IT:DataLength <- [DW_OP_plus_uconst 16] [$sp+0]
	@DEBUG_VALUE: HAL_DMAEx_MultiBufferStart_IT:SecondMemAddress <- $r3
	@DEBUG_VALUE: HAL_DMAEx_MultiBufferStart_IT:DstAddress <- $r2
	@DEBUG_VALUE: HAL_DMAEx_MultiBufferStart_IT:SrcAddress <- $r1
	@DEBUG_VALUE: HAL_DMAEx_MultiBufferStart_IT:hdma <- $r0
	.loc	6 0 6                           @ ../Libraries/STM32F4xx_HAL_Driver/Src/stm32f4xx_hal_dma_ex.c:0:6
	movs	r4, #2
.Ltmp35:
	.loc	6 182 17 is_stmt 1              @ ../Libraries/STM32F4xx_HAL_Driver/Src/stm32f4xx_hal_dma_ex.c:182:17
	strb.w	r4, [r0, #53]
	movs	r4, #0
	.loc	6 185 21                        @ ../Libraries/STM32F4xx_HAL_Driver/Src/stm32f4xx_hal_dma_ex.c:185:21
	str	r4, [r0, #84]
	.loc	6 188 11                        @ ../Libraries/STM32F4xx_HAL_Driver/Src/stm32f4xx_hal_dma_ex.c:188:11
	ldr.w	r12, [r0]
	ldr	r4, [sp, #16]
	.loc	6 188 24 is_stmt 0              @ ../Libraries/STM32F4xx_HAL_Driver/Src/stm32f4xx_hal_dma_ex.c:188:24
	ldr.w	r6, [r12]
	movw	lr, #25612
	orr	r6, r6, #262144
	movt	lr, #16386
	str.w	r6, [r12]
	.loc	6 191 26 is_stmt 1              @ ../Libraries/STM32F4xx_HAL_Driver/Src/stm32f4xx_hal_dma_ex.c:191:26
	str.w	r3, [r12, #16]
.Ltmp36:
	@DEBUG_VALUE: DMA_MultiBufferSetConfig:DataLength <- $r4
	@DEBUG_VALUE: DMA_MultiBufferSetConfig:DstAddress <- $r2
	@DEBUG_VALUE: DMA_MultiBufferSetConfig:SrcAddress <- $r1
	@DEBUG_VALUE: DMA_MultiBufferSetConfig:hdma <- $r0
	.loc	6 0 26 is_stmt 0                @ ../Libraries/STM32F4xx_HAL_Driver/Src/stm32f4xx_hal_dma_ex.c:0:26
	mov	r3, r1
.Ltmp37:
	@DEBUG_VALUE: HAL_DMAEx_MultiBufferStart_IT:SecondMemAddress <- [DW_OP_LLVM_entry_value 1] $r3
	.loc	6 280 24 is_stmt 1              @ ../Libraries/STM32F4xx_HAL_Driver/Src/stm32f4xx_hal_dma_ex.c:280:24
	str.w	r4, [r12, #4]
	cmp	r5, #64
	itt	eq
	moveq	r3, r2
	moveq	r2, r1
.Ltmp38:
	@DEBUG_VALUE: HAL_DMAEx_MultiBufferStart_IT:DstAddress <- [DW_OP_LLVM_entry_value 1] $r2
	.loc	6 197 5                         @ ../Libraries/STM32F4xx_HAL_Driver/Src/stm32f4xx_hal_dma_ex.c:197:5
	add.w	r1, lr, #76
.Ltmp39:
	@DEBUG_VALUE: HAL_DMAEx_MultiBufferStart_IT:SrcAddress <- [DW_OP_LLVM_entry_value 1] $r1
	cmp	r12, r1
.Ltmp40:
	.loc	6 0 0 is_stmt 0                 @ ../Libraries/STM32F4xx_HAL_Driver/Src/stm32f4xx_hal_dma_ex.c:0:0
	str.w	r3, [r12, #8]
	str.w	r2, [r12, #12]
.Ltmp41:
	.loc	6 197 5                         @ ../Libraries/STM32F4xx_HAL_Driver/Src/stm32f4xx_hal_dma_ex.c:197:5
	bls	.LBB1_15
.Ltmp42:
@ %bb.8:
	@DEBUG_VALUE: HAL_DMAEx_MultiBufferStart_IT:DstAddress <- [DW_OP_LLVM_entry_value 1] $r2
	@DEBUG_VALUE: HAL_DMAEx_MultiBufferStart_IT:SecondMemAddress <- [DW_OP_LLVM_entry_value 1] $r3
	@DEBUG_VALUE: HAL_DMAEx_MultiBufferStart_IT:SrcAddress <- [DW_OP_LLVM_entry_value 1] $r1
	@DEBUG_VALUE: HAL_DMAEx_MultiBufferStart_IT:status <- 0
	@DEBUG_VALUE: HAL_DMAEx_MultiBufferStart_IT:DataLength <- [DW_OP_plus_uconst 16] [$sp+0]
	@DEBUG_VALUE: HAL_DMAEx_MultiBufferStart_IT:hdma <- $r0
	.loc	6 0 5                           @ ../Libraries/STM32F4xx_HAL_Driver/Src/stm32f4xx_hal_dma_ex.c:0:5
	movw	r1, #25736
	movt	r1, #16386
	.loc	6 197 5                         @ ../Libraries/STM32F4xx_HAL_Driver/Src/stm32f4xx_hal_dma_ex.c:197:5
	cmp	r12, r1
	beq	.LBB1_23
.Ltmp43:
@ %bb.9:
	@DEBUG_VALUE: HAL_DMAEx_MultiBufferStart_IT:DstAddress <- [DW_OP_LLVM_entry_value 1] $r2
	@DEBUG_VALUE: HAL_DMAEx_MultiBufferStart_IT:SecondMemAddress <- [DW_OP_LLVM_entry_value 1] $r3
	@DEBUG_VALUE: HAL_DMAEx_MultiBufferStart_IT:SrcAddress <- [DW_OP_LLVM_entry_value 1] $r1
	@DEBUG_VALUE: HAL_DMAEx_MultiBufferStart_IT:status <- 0
	@DEBUG_VALUE: HAL_DMAEx_MultiBufferStart_IT:DataLength <- [DW_OP_plus_uconst 16] [$sp+0]
	@DEBUG_VALUE: HAL_DMAEx_MultiBufferStart_IT:hdma <- $r0
	.loc	6 0 5                           @ ../Libraries/STM32F4xx_HAL_Driver/Src/stm32f4xx_hal_dma_ex.c:0:5
	movw	r1, #25712
	movt	r1, #16386
	.loc	6 197 5                         @ ../Libraries/STM32F4xx_HAL_Driver/Src/stm32f4xx_hal_dma_ex.c:197:5
	cmp	r12, r1
	bne	.LBB1_24
.Ltmp44:
@ %bb.10:
	@DEBUG_VALUE: HAL_DMAEx_MultiBufferStart_IT:DstAddress <- [DW_OP_LLVM_entry_value 1] $r2
	@DEBUG_VALUE: HAL_DMAEx_MultiBufferStart_IT:SecondMemAddress <- [DW_OP_LLVM_entry_value 1] $r3
	@DEBUG_VALUE: HAL_DMAEx_MultiBufferStart_IT:SrcAddress <- [DW_OP_LLVM_entry_value 1] $r1
	@DEBUG_VALUE: HAL_DMAEx_MultiBufferStart_IT:status <- 0
	@DEBUG_VALUE: HAL_DMAEx_MultiBufferStart_IT:DataLength <- [DW_OP_plus_uconst 16] [$sp+0]
	@DEBUG_VALUE: HAL_DMAEx_MultiBufferStart_IT:hdma <- $r0
	.loc	6 0 5                           @ ../Libraries/STM32F4xx_HAL_Driver/Src/stm32f4xx_hal_dma_ex.c:0:5
	movs	r1, #32
	.loc	6 197 5                         @ ../Libraries/STM32F4xx_HAL_Driver/Src/stm32f4xx_hal_dma_ex.c:197:5
	str.w	r1, [lr]
	movs	r1, #16
	.loc	6 198 5 is_stmt 1               @ ../Libraries/STM32F4xx_HAL_Driver/Src/stm32f4xx_hal_dma_ex.c:198:5
	str.w	r1, [lr]
	movs	r1, #8
	.loc	6 199 5                         @ ../Libraries/STM32F4xx_HAL_Driver/Src/stm32f4xx_hal_dma_ex.c:199:5
	str.w	r1, [lr]
	movs	r1, #4
	.loc	6 200 5                         @ ../Libraries/STM32F4xx_HAL_Driver/Src/stm32f4xx_hal_dma_ex.c:200:5
	str.w	r1, [lr]
	movs	r1, #1
	.loc	6 201 5                         @ ../Libraries/STM32F4xx_HAL_Driver/Src/stm32f4xx_hal_dma_ex.c:201:5
	str.w	r1, [lr]
	b	.LBB1_103
.Ltmp45:
.LBB1_11:
	@DEBUG_VALUE: HAL_DMAEx_MultiBufferStart_IT:status <- 0
	@DEBUG_VALUE: HAL_DMAEx_MultiBufferStart_IT:DataLength <- [DW_OP_plus_uconst 16] [$sp+0]
	@DEBUG_VALUE: HAL_DMAEx_MultiBufferStart_IT:SecondMemAddress <- $r3
	@DEBUG_VALUE: HAL_DMAEx_MultiBufferStart_IT:DstAddress <- $r2
	@DEBUG_VALUE: HAL_DMAEx_MultiBufferStart_IT:SrcAddress <- $r1
	@DEBUG_VALUE: HAL_DMAEx_MultiBufferStart_IT:hdma <- $r0
	.loc	6 0 5 is_stmt 0                 @ ../Libraries/STM32F4xx_HAL_Driver/Src/stm32f4xx_hal_dma_ex.c:0:5
	movs	r1, #64
.Ltmp46:
	@DEBUG_VALUE: HAL_DMAEx_MultiBufferStart_IT:SrcAddress <- [DW_OP_LLVM_entry_value 1] $r1
.LBB1_12:
	@DEBUG_VALUE: HAL_DMAEx_MultiBufferStart_IT:SrcAddress <- [DW_OP_LLVM_entry_value 1] $r1
	@DEBUG_VALUE: HAL_DMAEx_MultiBufferStart_IT:status <- 0
	@DEBUG_VALUE: HAL_DMAEx_MultiBufferStart_IT:DataLength <- [DW_OP_plus_uconst 16] [$sp+0]
	@DEBUG_VALUE: HAL_DMAEx_MultiBufferStart_IT:SecondMemAddress <- $r3
	@DEBUG_VALUE: HAL_DMAEx_MultiBufferStart_IT:DstAddress <- $r2
	@DEBUG_VALUE: HAL_DMAEx_MultiBufferStart_IT:hdma <- $r0
	str	r1, [r0, #84]
	movs	r0, #1
.Ltmp47:
	@DEBUG_VALUE: HAL_DMAEx_MultiBufferStart_IT:hdma <- [DW_OP_LLVM_entry_value 1] $r0
	.loc	6 224 1 is_stmt 1               @ ../Libraries/STM32F4xx_HAL_Driver/Src/stm32f4xx_hal_dma_ex.c:224:1
	pop	{r4, r5, r6, pc}
.Ltmp48:
.LBB1_13:
	@DEBUG_VALUE: HAL_DMAEx_MultiBufferStart_IT:status <- 0
	@DEBUG_VALUE: HAL_DMAEx_MultiBufferStart_IT:DataLength <- [DW_OP_plus_uconst 16] [$sp+0]
	@DEBUG_VALUE: HAL_DMAEx_MultiBufferStart_IT:SecondMemAddress <- $r3
	@DEBUG_VALUE: HAL_DMAEx_MultiBufferStart_IT:DstAddress <- $r2
	@DEBUG_VALUE: HAL_DMAEx_MultiBufferStart_IT:SrcAddress <- $r1
	@DEBUG_VALUE: HAL_DMAEx_MultiBufferStart_IT:hdma <- $r0
	.loc	6 0 1 is_stmt 0                 @ ../Libraries/STM32F4xx_HAL_Driver/Src/stm32f4xx_hal_dma_ex.c:0:1
	movs	r1, #0
.Ltmp49:
	@DEBUG_VALUE: HAL_DMAEx_MultiBufferStart_IT:SrcAddress <- [DW_OP_LLVM_entry_value 1] $r1
	.loc	6 218 5 is_stmt 1               @ ../Libraries/STM32F4xx_HAL_Driver/Src/stm32f4xx_hal_dma_ex.c:218:5
	strb.w	r1, [r0, #52]
.Ltmp50:
.LBB1_14:
	@DEBUG_VALUE: HAL_DMAEx_MultiBufferStart_IT:status <- 0
	@DEBUG_VALUE: HAL_DMAEx_MultiBufferStart_IT:DataLength <- [DW_OP_plus_uconst 16] [$sp+0]
	@DEBUG_VALUE: HAL_DMAEx_MultiBufferStart_IT:SecondMemAddress <- $r3
	@DEBUG_VALUE: HAL_DMAEx_MultiBufferStart_IT:DstAddress <- $r2
	@DEBUG_VALUE: HAL_DMAEx_MultiBufferStart_IT:hdma <- $r0
	.loc	6 0 5 is_stmt 0                 @ ../Libraries/STM32F4xx_HAL_Driver/Src/stm32f4xx_hal_dma_ex.c:0:5
	movs	r0, #2
.Ltmp51:
	@DEBUG_VALUE: HAL_DMAEx_MultiBufferStart_IT:hdma <- [DW_OP_LLVM_entry_value 1] $r0
	.loc	6 224 1 is_stmt 1               @ ../Libraries/STM32F4xx_HAL_Driver/Src/stm32f4xx_hal_dma_ex.c:224:1
	pop	{r4, r5, r6, pc}
.Ltmp52:
.LBB1_15:
	@DEBUG_VALUE: HAL_DMAEx_MultiBufferStart_IT:DstAddress <- [DW_OP_LLVM_entry_value 1] $r2
	@DEBUG_VALUE: HAL_DMAEx_MultiBufferStart_IT:SecondMemAddress <- [DW_OP_LLVM_entry_value 1] $r3
	@DEBUG_VALUE: HAL_DMAEx_MultiBufferStart_IT:SrcAddress <- [DW_OP_LLVM_entry_value 1] $r1
	@DEBUG_VALUE: HAL_DMAEx_MultiBufferStart_IT:status <- 0
	@DEBUG_VALUE: HAL_DMAEx_MultiBufferStart_IT:DataLength <- [DW_OP_plus_uconst 16] [$sp+0]
	@DEBUG_VALUE: HAL_DMAEx_MultiBufferStart_IT:hdma <- $r0
	.loc	6 0 1 is_stmt 0                 @ ../Libraries/STM32F4xx_HAL_Driver/Src/stm32f4xx_hal_dma_ex.c:0:1
	movw	r1, #24584
	movt	r1, #16386
.Ltmp53:
	.loc	6 197 5 is_stmt 1               @ ../Libraries/STM32F4xx_HAL_Driver/Src/stm32f4xx_hal_dma_ex.c:197:5
	add.w	r2, r1, #176
	cmp	r12, r2
	bls	.LBB1_19
.Ltmp54:
@ %bb.16:
	@DEBUG_VALUE: HAL_DMAEx_MultiBufferStart_IT:DstAddress <- [DW_OP_LLVM_entry_value 1] $r2
	@DEBUG_VALUE: HAL_DMAEx_MultiBufferStart_IT:SecondMemAddress <- [DW_OP_LLVM_entry_value 1] $r3
	@DEBUG_VALUE: HAL_DMAEx_MultiBufferStart_IT:SrcAddress <- [DW_OP_LLVM_entry_value 1] $r1
	@DEBUG_VALUE: HAL_DMAEx_MultiBufferStart_IT:status <- 0
	@DEBUG_VALUE: HAL_DMAEx_MultiBufferStart_IT:DataLength <- [DW_OP_plus_uconst 16] [$sp+0]
	@DEBUG_VALUE: HAL_DMAEx_MultiBufferStart_IT:hdma <- $r0
	.loc	6 0 5 is_stmt 0                 @ ../Libraries/STM32F4xx_HAL_Driver/Src/stm32f4xx_hal_dma_ex.c:0:5
	movw	r3, #25616
	movt	r3, #16386
	movw	r2, #25640
	.loc	6 197 5                         @ ../Libraries/STM32F4xx_HAL_Driver/Src/stm32f4xx_hal_dma_ex.c:197:5
	cmp	r12, r3
	movt	r2, #16386
	beq.w	.LBB1_29
.Ltmp55:
@ %bb.17:
	@DEBUG_VALUE: HAL_DMAEx_MultiBufferStart_IT:DstAddress <- [DW_OP_LLVM_entry_value 1] $r2
	@DEBUG_VALUE: HAL_DMAEx_MultiBufferStart_IT:SecondMemAddress <- [DW_OP_LLVM_entry_value 1] $r3
	@DEBUG_VALUE: HAL_DMAEx_MultiBufferStart_IT:SrcAddress <- [DW_OP_LLVM_entry_value 1] $r1
	@DEBUG_VALUE: HAL_DMAEx_MultiBufferStart_IT:status <- 0
	@DEBUG_VALUE: HAL_DMAEx_MultiBufferStart_IT:DataLength <- [DW_OP_plus_uconst 16] [$sp+0]
	@DEBUG_VALUE: HAL_DMAEx_MultiBufferStart_IT:hdma <- $r0
	cmp	r12, r2
	beq	.LBB1_28
.Ltmp56:
@ %bb.18:
	@DEBUG_VALUE: HAL_DMAEx_MultiBufferStart_IT:DstAddress <- [DW_OP_LLVM_entry_value 1] $r2
	@DEBUG_VALUE: HAL_DMAEx_MultiBufferStart_IT:SecondMemAddress <- [DW_OP_LLVM_entry_value 1] $r3
	@DEBUG_VALUE: HAL_DMAEx_MultiBufferStart_IT:SrcAddress <- [DW_OP_LLVM_entry_value 1] $r1
	@DEBUG_VALUE: HAL_DMAEx_MultiBufferStart_IT:status <- 0
	@DEBUG_VALUE: HAL_DMAEx_MultiBufferStart_IT:DataLength <- [DW_OP_plus_uconst 16] [$sp+0]
	@DEBUG_VALUE: HAL_DMAEx_MultiBufferStart_IT:hdma <- $r0
	.loc	6 0 5                           @ ../Libraries/STM32F4xx_HAL_Driver/Src/stm32f4xx_hal_dma_ex.c:0:5
	movw	r6, #25664
	movt	r6, #16386
	.loc	6 197 5                         @ ../Libraries/STM32F4xx_HAL_Driver/Src/stm32f4xx_hal_dma_ex.c:197:5
	cmp	r12, r6
	ite	eq
	moveq.w	r4, #2097152
	movne.w	r4, #134217728
	b	.LBB1_30
.Ltmp57:
.LBB1_19:
	@DEBUG_VALUE: HAL_DMAEx_MultiBufferStart_IT:DstAddress <- [DW_OP_LLVM_entry_value 1] $r2
	@DEBUG_VALUE: HAL_DMAEx_MultiBufferStart_IT:SecondMemAddress <- [DW_OP_LLVM_entry_value 1] $r3
	@DEBUG_VALUE: HAL_DMAEx_MultiBufferStart_IT:SrcAddress <- [DW_OP_LLVM_entry_value 1] $r1
	@DEBUG_VALUE: HAL_DMAEx_MultiBufferStart_IT:status <- 0
	@DEBUG_VALUE: HAL_DMAEx_MultiBufferStart_IT:DataLength <- [DW_OP_plus_uconst 16] [$sp+0]
	@DEBUG_VALUE: HAL_DMAEx_MultiBufferStart_IT:hdma <- $r0
	add.w	r2, r1, #80
	movw	lr, #24592
	movw	r3, #24688
	cmp	r12, r2
	movt	lr, #16386
	movt	r3, #16386
	bls	.LBB1_25
.Ltmp58:
@ %bb.20:
	@DEBUG_VALUE: HAL_DMAEx_MultiBufferStart_IT:DstAddress <- [DW_OP_LLVM_entry_value 1] $r2
	@DEBUG_VALUE: HAL_DMAEx_MultiBufferStart_IT:SecondMemAddress <- [DW_OP_LLVM_entry_value 1] $r3
	@DEBUG_VALUE: HAL_DMAEx_MultiBufferStart_IT:SrcAddress <- [DW_OP_LLVM_entry_value 1] $r1
	@DEBUG_VALUE: HAL_DMAEx_MultiBufferStart_IT:status <- 0
	@DEBUG_VALUE: HAL_DMAEx_MultiBufferStart_IT:DataLength <- [DW_OP_plus_uconst 16] [$sp+0]
	@DEBUG_VALUE: HAL_DMAEx_MultiBufferStart_IT:hdma <- $r0
	cmp	r12, r3
	beq.w	.LBB1_50
.Ltmp59:
@ %bb.21:
	@DEBUG_VALUE: HAL_DMAEx_MultiBufferStart_IT:DstAddress <- [DW_OP_LLVM_entry_value 1] $r2
	@DEBUG_VALUE: HAL_DMAEx_MultiBufferStart_IT:SecondMemAddress <- [DW_OP_LLVM_entry_value 1] $r3
	@DEBUG_VALUE: HAL_DMAEx_MultiBufferStart_IT:SrcAddress <- [DW_OP_LLVM_entry_value 1] $r1
	@DEBUG_VALUE: HAL_DMAEx_MultiBufferStart_IT:status <- 0
	@DEBUG_VALUE: HAL_DMAEx_MultiBufferStart_IT:DataLength <- [DW_OP_plus_uconst 16] [$sp+0]
	@DEBUG_VALUE: HAL_DMAEx_MultiBufferStart_IT:hdma <- $r0
	.loc	6 0 5                           @ ../Libraries/STM32F4xx_HAL_Driver/Src/stm32f4xx_hal_dma_ex.c:0:5
	movw	r4, #24712
	movt	r4, #16386
	.loc	6 197 5                         @ ../Libraries/STM32F4xx_HAL_Driver/Src/stm32f4xx_hal_dma_ex.c:197:5
	cmp	r12, r4
	beq.w	.LBB1_51
.Ltmp60:
@ %bb.22:
	@DEBUG_VALUE: HAL_DMAEx_MultiBufferStart_IT:DstAddress <- [DW_OP_LLVM_entry_value 1] $r2
	@DEBUG_VALUE: HAL_DMAEx_MultiBufferStart_IT:SecondMemAddress <- [DW_OP_LLVM_entry_value 1] $r3
	@DEBUG_VALUE: HAL_DMAEx_MultiBufferStart_IT:SrcAddress <- [DW_OP_LLVM_entry_value 1] $r1
	@DEBUG_VALUE: HAL_DMAEx_MultiBufferStart_IT:status <- 0
	@DEBUG_VALUE: HAL_DMAEx_MultiBufferStart_IT:DataLength <- [DW_OP_plus_uconst 16] [$sp+0]
	@DEBUG_VALUE: HAL_DMAEx_MultiBufferStart_IT:hdma <- $r0
	.loc	6 0 5                           @ ../Libraries/STM32F4xx_HAL_Driver/Src/stm32f4xx_hal_dma_ex.c:0:5
	movw	r4, #24736
	movt	r4, #16386
	.loc	6 197 5                         @ ../Libraries/STM32F4xx_HAL_Driver/Src/stm32f4xx_hal_dma_ex.c:197:5
	cmp	r12, r4
	ite	eq
	moveq.w	r4, #2097152
	movne.w	r4, #134217728
	str	r4, [r1, #4]
	b	.LBB1_55
.Ltmp61:
.LBB1_23:
	@DEBUG_VALUE: HAL_DMAEx_MultiBufferStart_IT:DstAddress <- [DW_OP_LLVM_entry_value 1] $r2
	@DEBUG_VALUE: HAL_DMAEx_MultiBufferStart_IT:SecondMemAddress <- [DW_OP_LLVM_entry_value 1] $r3
	@DEBUG_VALUE: HAL_DMAEx_MultiBufferStart_IT:SrcAddress <- [DW_OP_LLVM_entry_value 1] $r1
	@DEBUG_VALUE: HAL_DMAEx_MultiBufferStart_IT:status <- 0
	@DEBUG_VALUE: HAL_DMAEx_MultiBufferStart_IT:DataLength <- [DW_OP_plus_uconst 16] [$sp+0]
	@DEBUG_VALUE: HAL_DMAEx_MultiBufferStart_IT:hdma <- $r0
	.loc	6 0 5                           @ ../Libraries/STM32F4xx_HAL_Driver/Src/stm32f4xx_hal_dma_ex.c:0:5
	mov.w	r1, #2048
	.loc	6 197 5                         @ ../Libraries/STM32F4xx_HAL_Driver/Src/stm32f4xx_hal_dma_ex.c:197:5
	str.w	r1, [lr]
	mov.w	r1, #1024
	.loc	6 198 5 is_stmt 1               @ ../Libraries/STM32F4xx_HAL_Driver/Src/stm32f4xx_hal_dma_ex.c:198:5
	str.w	r1, [lr]
	mov.w	r1, #512
	.loc	6 199 5                         @ ../Libraries/STM32F4xx_HAL_Driver/Src/stm32f4xx_hal_dma_ex.c:199:5
	str.w	r1, [lr]
	mov.w	r1, #256
	.loc	6 200 5                         @ ../Libraries/STM32F4xx_HAL_Driver/Src/stm32f4xx_hal_dma_ex.c:200:5
	str.w	r1, [lr]
	movs	r1, #64
	.loc	6 201 5                         @ ../Libraries/STM32F4xx_HAL_Driver/Src/stm32f4xx_hal_dma_ex.c:201:5
	str.w	r1, [lr]
	b	.LBB1_103
.Ltmp62:
.LBB1_24:
	@DEBUG_VALUE: HAL_DMAEx_MultiBufferStart_IT:DstAddress <- [DW_OP_LLVM_entry_value 1] $r2
	@DEBUG_VALUE: HAL_DMAEx_MultiBufferStart_IT:SecondMemAddress <- [DW_OP_LLVM_entry_value 1] $r3
	@DEBUG_VALUE: HAL_DMAEx_MultiBufferStart_IT:SrcAddress <- [DW_OP_LLVM_entry_value 1] $r1
	@DEBUG_VALUE: HAL_DMAEx_MultiBufferStart_IT:status <- 0
	@DEBUG_VALUE: HAL_DMAEx_MultiBufferStart_IT:DataLength <- [DW_OP_plus_uconst 16] [$sp+0]
	@DEBUG_VALUE: HAL_DMAEx_MultiBufferStart_IT:hdma <- $r0
	.loc	6 197 5                         @ ../Libraries/STM32F4xx_HAL_Driver/Src/stm32f4xx_hal_dma_ex.c:197:5
	add.w	r1, lr, #148
	mov.w	r2, #134217728
	cmp	r12, r1
	it	eq
	moveq.w	r2, #2097152
	str.w	r2, [lr]
	mov.w	r2, #67108864
	.loc	6 198 5                         @ ../Libraries/STM32F4xx_HAL_Driver/Src/stm32f4xx_hal_dma_ex.c:198:5
	it	eq
	moveq.w	r2, #1048576
	str.w	r2, [lr]
	mov.w	r2, #33554432
	.loc	6 199 5                         @ ../Libraries/STM32F4xx_HAL_Driver/Src/stm32f4xx_hal_dma_ex.c:199:5
	cmp	r12, r1
	it	eq
	moveq.w	r2, #524288
	str.w	r2, [lr]
	mov.w	r2, #16777216
	.loc	6 200 5                         @ ../Libraries/STM32F4xx_HAL_Driver/Src/stm32f4xx_hal_dma_ex.c:200:5
	it	eq
	moveq.w	r2, #262144
	str.w	r2, [lr]
	mov.w	r2, #4194304
	.loc	6 201 5                         @ ../Libraries/STM32F4xx_HAL_Driver/Src/stm32f4xx_hal_dma_ex.c:201:5
	cmp	r12, r1
	it	eq
	moveq.w	r2, #65536
	str.w	r2, [lr]
	b	.LBB1_103
.Ltmp63:
.LBB1_25:
	@DEBUG_VALUE: HAL_DMAEx_MultiBufferStart_IT:DstAddress <- [DW_OP_LLVM_entry_value 1] $r2
	@DEBUG_VALUE: HAL_DMAEx_MultiBufferStart_IT:SecondMemAddress <- [DW_OP_LLVM_entry_value 1] $r3
	@DEBUG_VALUE: HAL_DMAEx_MultiBufferStart_IT:SrcAddress <- [DW_OP_LLVM_entry_value 1] $r1
	@DEBUG_VALUE: HAL_DMAEx_MultiBufferStart_IT:status <- 0
	@DEBUG_VALUE: HAL_DMAEx_MultiBufferStart_IT:DataLength <- [DW_OP_plus_uconst 16] [$sp+0]
	@DEBUG_VALUE: HAL_DMAEx_MultiBufferStart_IT:hdma <- $r0
	.loc	6 197 5                         @ ../Libraries/STM32F4xx_HAL_Driver/Src/stm32f4xx_hal_dma_ex.c:197:5
	cmp	r12, lr
	beq	.LBB1_52
.Ltmp64:
@ %bb.26:
	@DEBUG_VALUE: HAL_DMAEx_MultiBufferStart_IT:DstAddress <- [DW_OP_LLVM_entry_value 1] $r2
	@DEBUG_VALUE: HAL_DMAEx_MultiBufferStart_IT:SecondMemAddress <- [DW_OP_LLVM_entry_value 1] $r3
	@DEBUG_VALUE: HAL_DMAEx_MultiBufferStart_IT:SrcAddress <- [DW_OP_LLVM_entry_value 1] $r1
	@DEBUG_VALUE: HAL_DMAEx_MultiBufferStart_IT:status <- 0
	@DEBUG_VALUE: HAL_DMAEx_MultiBufferStart_IT:DataLength <- [DW_OP_plus_uconst 16] [$sp+0]
	@DEBUG_VALUE: HAL_DMAEx_MultiBufferStart_IT:hdma <- $r0
	.loc	6 0 5 is_stmt 0                 @ ../Libraries/STM32F4xx_HAL_Driver/Src/stm32f4xx_hal_dma_ex.c:0:5
	movw	r4, #24616
	movt	r4, #16386
	.loc	6 197 5                         @ ../Libraries/STM32F4xx_HAL_Driver/Src/stm32f4xx_hal_dma_ex.c:197:5
	cmp	r12, r4
	beq	.LBB1_53
.Ltmp65:
@ %bb.27:
	@DEBUG_VALUE: HAL_DMAEx_MultiBufferStart_IT:DstAddress <- [DW_OP_LLVM_entry_value 1] $r2
	@DEBUG_VALUE: HAL_DMAEx_MultiBufferStart_IT:SecondMemAddress <- [DW_OP_LLVM_entry_value 1] $r3
	@DEBUG_VALUE: HAL_DMAEx_MultiBufferStart_IT:SrcAddress <- [DW_OP_LLVM_entry_value 1] $r1
	@DEBUG_VALUE: HAL_DMAEx_MultiBufferStart_IT:status <- 0
	@DEBUG_VALUE: HAL_DMAEx_MultiBufferStart_IT:DataLength <- [DW_OP_plus_uconst 16] [$sp+0]
	@DEBUG_VALUE: HAL_DMAEx_MultiBufferStart_IT:hdma <- $r0
	.loc	6 0 5                           @ ../Libraries/STM32F4xx_HAL_Driver/Src/stm32f4xx_hal_dma_ex.c:0:5
	movw	r4, #24640
	movt	r4, #16386
	.loc	6 197 5                         @ ../Libraries/STM32F4xx_HAL_Driver/Src/stm32f4xx_hal_dma_ex.c:197:5
	cmp	r12, r4
	ite	eq
	moveq.w	r4, #2097152
	movne.w	r4, #134217728
	b	.LBB1_54
.Ltmp66:
.LBB1_28:
	@DEBUG_VALUE: HAL_DMAEx_MultiBufferStart_IT:DstAddress <- [DW_OP_LLVM_entry_value 1] $r2
	@DEBUG_VALUE: HAL_DMAEx_MultiBufferStart_IT:SecondMemAddress <- [DW_OP_LLVM_entry_value 1] $r3
	@DEBUG_VALUE: HAL_DMAEx_MultiBufferStart_IT:SrcAddress <- [DW_OP_LLVM_entry_value 1] $r1
	@DEBUG_VALUE: HAL_DMAEx_MultiBufferStart_IT:status <- 0
	@DEBUG_VALUE: HAL_DMAEx_MultiBufferStart_IT:DataLength <- [DW_OP_plus_uconst 16] [$sp+0]
	@DEBUG_VALUE: HAL_DMAEx_MultiBufferStart_IT:hdma <- $r0
	.loc	6 0 5                           @ ../Libraries/STM32F4xx_HAL_Driver/Src/stm32f4xx_hal_dma_ex.c:0:5
	mov.w	r4, #2048
	b	.LBB1_30
.Ltmp67:
.LBB1_29:
	@DEBUG_VALUE: HAL_DMAEx_MultiBufferStart_IT:DstAddress <- [DW_OP_LLVM_entry_value 1] $r2
	@DEBUG_VALUE: HAL_DMAEx_MultiBufferStart_IT:SecondMemAddress <- [DW_OP_LLVM_entry_value 1] $r3
	@DEBUG_VALUE: HAL_DMAEx_MultiBufferStart_IT:SrcAddress <- [DW_OP_LLVM_entry_value 1] $r1
	@DEBUG_VALUE: HAL_DMAEx_MultiBufferStart_IT:status <- 0
	@DEBUG_VALUE: HAL_DMAEx_MultiBufferStart_IT:DataLength <- [DW_OP_plus_uconst 16] [$sp+0]
	@DEBUG_VALUE: HAL_DMAEx_MultiBufferStart_IT:hdma <- $r0
	movs	r4, #32
.Ltmp68:
.LBB1_30:
	@DEBUG_VALUE: HAL_DMAEx_MultiBufferStart_IT:DstAddress <- [DW_OP_LLVM_entry_value 1] $r2
	@DEBUG_VALUE: HAL_DMAEx_MultiBufferStart_IT:SecondMemAddress <- [DW_OP_LLVM_entry_value 1] $r3
	@DEBUG_VALUE: HAL_DMAEx_MultiBufferStart_IT:SrcAddress <- [DW_OP_LLVM_entry_value 1] $r1
	@DEBUG_VALUE: HAL_DMAEx_MultiBufferStart_IT:status <- 0
	@DEBUG_VALUE: HAL_DMAEx_MultiBufferStart_IT:DataLength <- [DW_OP_plus_uconst 16] [$sp+0]
	@DEBUG_VALUE: HAL_DMAEx_MultiBufferStart_IT:hdma <- $r0
	.loc	6 198 5 is_stmt 1               @ ../Libraries/STM32F4xx_HAL_Driver/Src/stm32f4xx_hal_dma_ex.c:198:5
	cmp	r12, r3
	.loc	6 197 5                         @ ../Libraries/STM32F4xx_HAL_Driver/Src/stm32f4xx_hal_dma_ex.c:197:5
	str.w	r4, [r1, #1024]
	.loc	6 198 5                         @ ../Libraries/STM32F4xx_HAL_Driver/Src/stm32f4xx_hal_dma_ex.c:198:5
	beq	.LBB1_34
.Ltmp69:
@ %bb.31:
	@DEBUG_VALUE: HAL_DMAEx_MultiBufferStart_IT:DstAddress <- [DW_OP_LLVM_entry_value 1] $r2
	@DEBUG_VALUE: HAL_DMAEx_MultiBufferStart_IT:SecondMemAddress <- [DW_OP_LLVM_entry_value 1] $r3
	@DEBUG_VALUE: HAL_DMAEx_MultiBufferStart_IT:SrcAddress <- [DW_OP_LLVM_entry_value 1] $r1
	@DEBUG_VALUE: HAL_DMAEx_MultiBufferStart_IT:status <- 0
	@DEBUG_VALUE: HAL_DMAEx_MultiBufferStart_IT:DataLength <- [DW_OP_plus_uconst 16] [$sp+0]
	@DEBUG_VALUE: HAL_DMAEx_MultiBufferStart_IT:hdma <- $r0
	cmp	r12, r2
	beq	.LBB1_33
.Ltmp70:
@ %bb.32:
	@DEBUG_VALUE: HAL_DMAEx_MultiBufferStart_IT:DstAddress <- [DW_OP_LLVM_entry_value 1] $r2
	@DEBUG_VALUE: HAL_DMAEx_MultiBufferStart_IT:SecondMemAddress <- [DW_OP_LLVM_entry_value 1] $r3
	@DEBUG_VALUE: HAL_DMAEx_MultiBufferStart_IT:SrcAddress <- [DW_OP_LLVM_entry_value 1] $r1
	@DEBUG_VALUE: HAL_DMAEx_MultiBufferStart_IT:status <- 0
	@DEBUG_VALUE: HAL_DMAEx_MultiBufferStart_IT:DataLength <- [DW_OP_plus_uconst 16] [$sp+0]
	@DEBUG_VALUE: HAL_DMAEx_MultiBufferStart_IT:hdma <- $r0
	.loc	6 0 5 is_stmt 0                 @ ../Libraries/STM32F4xx_HAL_Driver/Src/stm32f4xx_hal_dma_ex.c:0:5
	movw	r6, #25664
	movt	r6, #16386
	.loc	6 198 5                         @ ../Libraries/STM32F4xx_HAL_Driver/Src/stm32f4xx_hal_dma_ex.c:198:5
	cmp	r12, r6
	ite	eq
	moveq.w	r4, #1048576
	movne.w	r4, #67108864
	b	.LBB1_35
.Ltmp71:
.LBB1_33:
	@DEBUG_VALUE: HAL_DMAEx_MultiBufferStart_IT:DstAddress <- [DW_OP_LLVM_entry_value 1] $r2
	@DEBUG_VALUE: HAL_DMAEx_MultiBufferStart_IT:SecondMemAddress <- [DW_OP_LLVM_entry_value 1] $r3
	@DEBUG_VALUE: HAL_DMAEx_MultiBufferStart_IT:SrcAddress <- [DW_OP_LLVM_entry_value 1] $r1
	@DEBUG_VALUE: HAL_DMAEx_MultiBufferStart_IT:status <- 0
	@DEBUG_VALUE: HAL_DMAEx_MultiBufferStart_IT:DataLength <- [DW_OP_plus_uconst 16] [$sp+0]
	@DEBUG_VALUE: HAL_DMAEx_MultiBufferStart_IT:hdma <- $r0
	.loc	6 0 5                           @ ../Libraries/STM32F4xx_HAL_Driver/Src/stm32f4xx_hal_dma_ex.c:0:5
	mov.w	r4, #1024
	b	.LBB1_35
.Ltmp72:
.LBB1_34:
	@DEBUG_VALUE: HAL_DMAEx_MultiBufferStart_IT:DstAddress <- [DW_OP_LLVM_entry_value 1] $r2
	@DEBUG_VALUE: HAL_DMAEx_MultiBufferStart_IT:SecondMemAddress <- [DW_OP_LLVM_entry_value 1] $r3
	@DEBUG_VALUE: HAL_DMAEx_MultiBufferStart_IT:SrcAddress <- [DW_OP_LLVM_entry_value 1] $r1
	@DEBUG_VALUE: HAL_DMAEx_MultiBufferStart_IT:status <- 0
	@DEBUG_VALUE: HAL_DMAEx_MultiBufferStart_IT:DataLength <- [DW_OP_plus_uconst 16] [$sp+0]
	@DEBUG_VALUE: HAL_DMAEx_MultiBufferStart_IT:hdma <- $r0
	movs	r4, #16
.Ltmp73:
.LBB1_35:
	@DEBUG_VALUE: HAL_DMAEx_MultiBufferStart_IT:DstAddress <- [DW_OP_LLVM_entry_value 1] $r2
	@DEBUG_VALUE: HAL_DMAEx_MultiBufferStart_IT:SecondMemAddress <- [DW_OP_LLVM_entry_value 1] $r3
	@DEBUG_VALUE: HAL_DMAEx_MultiBufferStart_IT:SrcAddress <- [DW_OP_LLVM_entry_value 1] $r1
	@DEBUG_VALUE: HAL_DMAEx_MultiBufferStart_IT:status <- 0
	@DEBUG_VALUE: HAL_DMAEx_MultiBufferStart_IT:DataLength <- [DW_OP_plus_uconst 16] [$sp+0]
	@DEBUG_VALUE: HAL_DMAEx_MultiBufferStart_IT:hdma <- $r0
	.loc	6 199 5 is_stmt 1               @ ../Libraries/STM32F4xx_HAL_Driver/Src/stm32f4xx_hal_dma_ex.c:199:5
	cmp	r12, r3
	.loc	6 198 5                         @ ../Libraries/STM32F4xx_HAL_Driver/Src/stm32f4xx_hal_dma_ex.c:198:5
	str.w	r4, [r1, #1024]
	.loc	6 199 5                         @ ../Libraries/STM32F4xx_HAL_Driver/Src/stm32f4xx_hal_dma_ex.c:199:5
	beq	.LBB1_39
.Ltmp74:
@ %bb.36:
	@DEBUG_VALUE: HAL_DMAEx_MultiBufferStart_IT:DstAddress <- [DW_OP_LLVM_entry_value 1] $r2
	@DEBUG_VALUE: HAL_DMAEx_MultiBufferStart_IT:SecondMemAddress <- [DW_OP_LLVM_entry_value 1] $r3
	@DEBUG_VALUE: HAL_DMAEx_MultiBufferStart_IT:SrcAddress <- [DW_OP_LLVM_entry_value 1] $r1
	@DEBUG_VALUE: HAL_DMAEx_MultiBufferStart_IT:status <- 0
	@DEBUG_VALUE: HAL_DMAEx_MultiBufferStart_IT:DataLength <- [DW_OP_plus_uconst 16] [$sp+0]
	@DEBUG_VALUE: HAL_DMAEx_MultiBufferStart_IT:hdma <- $r0
	cmp	r12, r2
	beq	.LBB1_38
.Ltmp75:
@ %bb.37:
	@DEBUG_VALUE: HAL_DMAEx_MultiBufferStart_IT:DstAddress <- [DW_OP_LLVM_entry_value 1] $r2
	@DEBUG_VALUE: HAL_DMAEx_MultiBufferStart_IT:SecondMemAddress <- [DW_OP_LLVM_entry_value 1] $r3
	@DEBUG_VALUE: HAL_DMAEx_MultiBufferStart_IT:SrcAddress <- [DW_OP_LLVM_entry_value 1] $r1
	@DEBUG_VALUE: HAL_DMAEx_MultiBufferStart_IT:status <- 0
	@DEBUG_VALUE: HAL_DMAEx_MultiBufferStart_IT:DataLength <- [DW_OP_plus_uconst 16] [$sp+0]
	@DEBUG_VALUE: HAL_DMAEx_MultiBufferStart_IT:hdma <- $r0
	.loc	6 0 5 is_stmt 0                 @ ../Libraries/STM32F4xx_HAL_Driver/Src/stm32f4xx_hal_dma_ex.c:0:5
	movw	r6, #25664
	movt	r6, #16386
	.loc	6 199 5                         @ ../Libraries/STM32F4xx_HAL_Driver/Src/stm32f4xx_hal_dma_ex.c:199:5
	cmp	r12, r6
	ite	eq
	moveq.w	r4, #524288
	movne.w	r4, #33554432
	b	.LBB1_40
.Ltmp76:
.LBB1_38:
	@DEBUG_VALUE: HAL_DMAEx_MultiBufferStart_IT:DstAddress <- [DW_OP_LLVM_entry_value 1] $r2
	@DEBUG_VALUE: HAL_DMAEx_MultiBufferStart_IT:SecondMemAddress <- [DW_OP_LLVM_entry_value 1] $r3
	@DEBUG_VALUE: HAL_DMAEx_MultiBufferStart_IT:SrcAddress <- [DW_OP_LLVM_entry_value 1] $r1
	@DEBUG_VALUE: HAL_DMAEx_MultiBufferStart_IT:status <- 0
	@DEBUG_VALUE: HAL_DMAEx_MultiBufferStart_IT:DataLength <- [DW_OP_plus_uconst 16] [$sp+0]
	@DEBUG_VALUE: HAL_DMAEx_MultiBufferStart_IT:hdma <- $r0
	.loc	6 0 5                           @ ../Libraries/STM32F4xx_HAL_Driver/Src/stm32f4xx_hal_dma_ex.c:0:5
	mov.w	r4, #512
	b	.LBB1_40
.Ltmp77:
.LBB1_39:
	@DEBUG_VALUE: HAL_DMAEx_MultiBufferStart_IT:DstAddress <- [DW_OP_LLVM_entry_value 1] $r2
	@DEBUG_VALUE: HAL_DMAEx_MultiBufferStart_IT:SecondMemAddress <- [DW_OP_LLVM_entry_value 1] $r3
	@DEBUG_VALUE: HAL_DMAEx_MultiBufferStart_IT:SrcAddress <- [DW_OP_LLVM_entry_value 1] $r1
	@DEBUG_VALUE: HAL_DMAEx_MultiBufferStart_IT:status <- 0
	@DEBUG_VALUE: HAL_DMAEx_MultiBufferStart_IT:DataLength <- [DW_OP_plus_uconst 16] [$sp+0]
	@DEBUG_VALUE: HAL_DMAEx_MultiBufferStart_IT:hdma <- $r0
	movs	r4, #8
.Ltmp78:
.LBB1_40:
	@DEBUG_VALUE: HAL_DMAEx_MultiBufferStart_IT:DstAddress <- [DW_OP_LLVM_entry_value 1] $r2
	@DEBUG_VALUE: HAL_DMAEx_MultiBufferStart_IT:SecondMemAddress <- [DW_OP_LLVM_entry_value 1] $r3
	@DEBUG_VALUE: HAL_DMAEx_MultiBufferStart_IT:SrcAddress <- [DW_OP_LLVM_entry_value 1] $r1
	@DEBUG_VALUE: HAL_DMAEx_MultiBufferStart_IT:status <- 0
	@DEBUG_VALUE: HAL_DMAEx_MultiBufferStart_IT:DataLength <- [DW_OP_plus_uconst 16] [$sp+0]
	@DEBUG_VALUE: HAL_DMAEx_MultiBufferStart_IT:hdma <- $r0
	.loc	6 200 5 is_stmt 1               @ ../Libraries/STM32F4xx_HAL_Driver/Src/stm32f4xx_hal_dma_ex.c:200:5
	cmp	r12, r3
	.loc	6 199 5                         @ ../Libraries/STM32F4xx_HAL_Driver/Src/stm32f4xx_hal_dma_ex.c:199:5
	str.w	r4, [r1, #1024]
	.loc	6 200 5                         @ ../Libraries/STM32F4xx_HAL_Driver/Src/stm32f4xx_hal_dma_ex.c:200:5
	beq	.LBB1_44
.Ltmp79:
@ %bb.41:
	@DEBUG_VALUE: HAL_DMAEx_MultiBufferStart_IT:DstAddress <- [DW_OP_LLVM_entry_value 1] $r2
	@DEBUG_VALUE: HAL_DMAEx_MultiBufferStart_IT:SecondMemAddress <- [DW_OP_LLVM_entry_value 1] $r3
	@DEBUG_VALUE: HAL_DMAEx_MultiBufferStart_IT:SrcAddress <- [DW_OP_LLVM_entry_value 1] $r1
	@DEBUG_VALUE: HAL_DMAEx_MultiBufferStart_IT:status <- 0
	@DEBUG_VALUE: HAL_DMAEx_MultiBufferStart_IT:DataLength <- [DW_OP_plus_uconst 16] [$sp+0]
	@DEBUG_VALUE: HAL_DMAEx_MultiBufferStart_IT:hdma <- $r0
	cmp	r12, r2
	beq	.LBB1_43
.Ltmp80:
@ %bb.42:
	@DEBUG_VALUE: HAL_DMAEx_MultiBufferStart_IT:DstAddress <- [DW_OP_LLVM_entry_value 1] $r2
	@DEBUG_VALUE: HAL_DMAEx_MultiBufferStart_IT:SecondMemAddress <- [DW_OP_LLVM_entry_value 1] $r3
	@DEBUG_VALUE: HAL_DMAEx_MultiBufferStart_IT:SrcAddress <- [DW_OP_LLVM_entry_value 1] $r1
	@DEBUG_VALUE: HAL_DMAEx_MultiBufferStart_IT:status <- 0
	@DEBUG_VALUE: HAL_DMAEx_MultiBufferStart_IT:DataLength <- [DW_OP_plus_uconst 16] [$sp+0]
	@DEBUG_VALUE: HAL_DMAEx_MultiBufferStart_IT:hdma <- $r0
	.loc	6 0 5 is_stmt 0                 @ ../Libraries/STM32F4xx_HAL_Driver/Src/stm32f4xx_hal_dma_ex.c:0:5
	movw	r6, #25664
	movt	r6, #16386
	.loc	6 200 5                         @ ../Libraries/STM32F4xx_HAL_Driver/Src/stm32f4xx_hal_dma_ex.c:200:5
	cmp	r12, r6
	ite	eq
	moveq.w	r4, #262144
	movne.w	r4, #16777216
	b	.LBB1_45
.Ltmp81:
.LBB1_43:
	@DEBUG_VALUE: HAL_DMAEx_MultiBufferStart_IT:DstAddress <- [DW_OP_LLVM_entry_value 1] $r2
	@DEBUG_VALUE: HAL_DMAEx_MultiBufferStart_IT:SecondMemAddress <- [DW_OP_LLVM_entry_value 1] $r3
	@DEBUG_VALUE: HAL_DMAEx_MultiBufferStart_IT:SrcAddress <- [DW_OP_LLVM_entry_value 1] $r1
	@DEBUG_VALUE: HAL_DMAEx_MultiBufferStart_IT:status <- 0
	@DEBUG_VALUE: HAL_DMAEx_MultiBufferStart_IT:DataLength <- [DW_OP_plus_uconst 16] [$sp+0]
	@DEBUG_VALUE: HAL_DMAEx_MultiBufferStart_IT:hdma <- $r0
	.loc	6 0 5                           @ ../Libraries/STM32F4xx_HAL_Driver/Src/stm32f4xx_hal_dma_ex.c:0:5
	mov.w	r4, #256
	b	.LBB1_45
.Ltmp82:
.LBB1_44:
	@DEBUG_VALUE: HAL_DMAEx_MultiBufferStart_IT:DstAddress <- [DW_OP_LLVM_entry_value 1] $r2
	@DEBUG_VALUE: HAL_DMAEx_MultiBufferStart_IT:SecondMemAddress <- [DW_OP_LLVM_entry_value 1] $r3
	@DEBUG_VALUE: HAL_DMAEx_MultiBufferStart_IT:SrcAddress <- [DW_OP_LLVM_entry_value 1] $r1
	@DEBUG_VALUE: HAL_DMAEx_MultiBufferStart_IT:status <- 0
	@DEBUG_VALUE: HAL_DMAEx_MultiBufferStart_IT:DataLength <- [DW_OP_plus_uconst 16] [$sp+0]
	@DEBUG_VALUE: HAL_DMAEx_MultiBufferStart_IT:hdma <- $r0
	movs	r4, #4
.Ltmp83:
.LBB1_45:
	@DEBUG_VALUE: HAL_DMAEx_MultiBufferStart_IT:DstAddress <- [DW_OP_LLVM_entry_value 1] $r2
	@DEBUG_VALUE: HAL_DMAEx_MultiBufferStart_IT:SecondMemAddress <- [DW_OP_LLVM_entry_value 1] $r3
	@DEBUG_VALUE: HAL_DMAEx_MultiBufferStart_IT:SrcAddress <- [DW_OP_LLVM_entry_value 1] $r1
	@DEBUG_VALUE: HAL_DMAEx_MultiBufferStart_IT:status <- 0
	@DEBUG_VALUE: HAL_DMAEx_MultiBufferStart_IT:DataLength <- [DW_OP_plus_uconst 16] [$sp+0]
	@DEBUG_VALUE: HAL_DMAEx_MultiBufferStart_IT:hdma <- $r0
	.loc	6 201 5 is_stmt 1               @ ../Libraries/STM32F4xx_HAL_Driver/Src/stm32f4xx_hal_dma_ex.c:201:5
	cmp	r12, r3
	.loc	6 200 5                         @ ../Libraries/STM32F4xx_HAL_Driver/Src/stm32f4xx_hal_dma_ex.c:200:5
	str.w	r4, [r1, #1024]
	.loc	6 201 5                         @ ../Libraries/STM32F4xx_HAL_Driver/Src/stm32f4xx_hal_dma_ex.c:201:5
	beq	.LBB1_49
.Ltmp84:
@ %bb.46:
	@DEBUG_VALUE: HAL_DMAEx_MultiBufferStart_IT:DstAddress <- [DW_OP_LLVM_entry_value 1] $r2
	@DEBUG_VALUE: HAL_DMAEx_MultiBufferStart_IT:SecondMemAddress <- [DW_OP_LLVM_entry_value 1] $r3
	@DEBUG_VALUE: HAL_DMAEx_MultiBufferStart_IT:SrcAddress <- [DW_OP_LLVM_entry_value 1] $r1
	@DEBUG_VALUE: HAL_DMAEx_MultiBufferStart_IT:status <- 0
	@DEBUG_VALUE: HAL_DMAEx_MultiBufferStart_IT:DataLength <- [DW_OP_plus_uconst 16] [$sp+0]
	@DEBUG_VALUE: HAL_DMAEx_MultiBufferStart_IT:hdma <- $r0
	cmp	r12, r2
	beq	.LBB1_48
.Ltmp85:
@ %bb.47:
	@DEBUG_VALUE: HAL_DMAEx_MultiBufferStart_IT:DstAddress <- [DW_OP_LLVM_entry_value 1] $r2
	@DEBUG_VALUE: HAL_DMAEx_MultiBufferStart_IT:SecondMemAddress <- [DW_OP_LLVM_entry_value 1] $r3
	@DEBUG_VALUE: HAL_DMAEx_MultiBufferStart_IT:SrcAddress <- [DW_OP_LLVM_entry_value 1] $r1
	@DEBUG_VALUE: HAL_DMAEx_MultiBufferStart_IT:status <- 0
	@DEBUG_VALUE: HAL_DMAEx_MultiBufferStart_IT:DataLength <- [DW_OP_plus_uconst 16] [$sp+0]
	@DEBUG_VALUE: HAL_DMAEx_MultiBufferStart_IT:hdma <- $r0
	.loc	6 0 5 is_stmt 0                 @ ../Libraries/STM32F4xx_HAL_Driver/Src/stm32f4xx_hal_dma_ex.c:0:5
	movw	r2, #25664
	movt	r2, #16386
	.loc	6 201 5                         @ ../Libraries/STM32F4xx_HAL_Driver/Src/stm32f4xx_hal_dma_ex.c:201:5
	cmp	r12, r2
	ite	eq
	moveq.w	r2, #65536
	movne.w	r2, #4194304
	str.w	r2, [r1, #1024]
	b	.LBB1_103
.Ltmp86:
.LBB1_48:
	@DEBUG_VALUE: HAL_DMAEx_MultiBufferStart_IT:DstAddress <- [DW_OP_LLVM_entry_value 1] $r2
	@DEBUG_VALUE: HAL_DMAEx_MultiBufferStart_IT:SecondMemAddress <- [DW_OP_LLVM_entry_value 1] $r3
	@DEBUG_VALUE: HAL_DMAEx_MultiBufferStart_IT:SrcAddress <- [DW_OP_LLVM_entry_value 1] $r1
	@DEBUG_VALUE: HAL_DMAEx_MultiBufferStart_IT:status <- 0
	@DEBUG_VALUE: HAL_DMAEx_MultiBufferStart_IT:DataLength <- [DW_OP_plus_uconst 16] [$sp+0]
	@DEBUG_VALUE: HAL_DMAEx_MultiBufferStart_IT:hdma <- $r0
	.loc	6 0 5                           @ ../Libraries/STM32F4xx_HAL_Driver/Src/stm32f4xx_hal_dma_ex.c:0:5
	movs	r2, #64
	.loc	6 201 5                         @ ../Libraries/STM32F4xx_HAL_Driver/Src/stm32f4xx_hal_dma_ex.c:201:5
	str.w	r2, [r1, #1024]
	b	.LBB1_103
.Ltmp87:
.LBB1_49:
	@DEBUG_VALUE: HAL_DMAEx_MultiBufferStart_IT:DstAddress <- [DW_OP_LLVM_entry_value 1] $r2
	@DEBUG_VALUE: HAL_DMAEx_MultiBufferStart_IT:SecondMemAddress <- [DW_OP_LLVM_entry_value 1] $r3
	@DEBUG_VALUE: HAL_DMAEx_MultiBufferStart_IT:SrcAddress <- [DW_OP_LLVM_entry_value 1] $r1
	@DEBUG_VALUE: HAL_DMAEx_MultiBufferStart_IT:status <- 0
	@DEBUG_VALUE: HAL_DMAEx_MultiBufferStart_IT:DataLength <- [DW_OP_plus_uconst 16] [$sp+0]
	@DEBUG_VALUE: HAL_DMAEx_MultiBufferStart_IT:hdma <- $r0
	.loc	6 0 5                           @ ../Libraries/STM32F4xx_HAL_Driver/Src/stm32f4xx_hal_dma_ex.c:0:5
	movs	r2, #1
	.loc	6 201 5                         @ ../Libraries/STM32F4xx_HAL_Driver/Src/stm32f4xx_hal_dma_ex.c:201:5
	str.w	r2, [r1, #1024]
	b	.LBB1_103
.Ltmp88:
.LBB1_50:
	@DEBUG_VALUE: HAL_DMAEx_MultiBufferStart_IT:DstAddress <- [DW_OP_LLVM_entry_value 1] $r2
	@DEBUG_VALUE: HAL_DMAEx_MultiBufferStart_IT:SecondMemAddress <- [DW_OP_LLVM_entry_value 1] $r3
	@DEBUG_VALUE: HAL_DMAEx_MultiBufferStart_IT:SrcAddress <- [DW_OP_LLVM_entry_value 1] $r1
	@DEBUG_VALUE: HAL_DMAEx_MultiBufferStart_IT:status <- 0
	@DEBUG_VALUE: HAL_DMAEx_MultiBufferStart_IT:DataLength <- [DW_OP_plus_uconst 16] [$sp+0]
	@DEBUG_VALUE: HAL_DMAEx_MultiBufferStart_IT:hdma <- $r0
	.loc	6 0 5                           @ ../Libraries/STM32F4xx_HAL_Driver/Src/stm32f4xx_hal_dma_ex.c:0:5
	movs	r4, #32
	.loc	6 197 5 is_stmt 1               @ ../Libraries/STM32F4xx_HAL_Driver/Src/stm32f4xx_hal_dma_ex.c:197:5
	str	r4, [r1, #4]
	b	.LBB1_55
.Ltmp89:
.LBB1_51:
	@DEBUG_VALUE: HAL_DMAEx_MultiBufferStart_IT:DstAddress <- [DW_OP_LLVM_entry_value 1] $r2
	@DEBUG_VALUE: HAL_DMAEx_MultiBufferStart_IT:SecondMemAddress <- [DW_OP_LLVM_entry_value 1] $r3
	@DEBUG_VALUE: HAL_DMAEx_MultiBufferStart_IT:SrcAddress <- [DW_OP_LLVM_entry_value 1] $r1
	@DEBUG_VALUE: HAL_DMAEx_MultiBufferStart_IT:status <- 0
	@DEBUG_VALUE: HAL_DMAEx_MultiBufferStart_IT:DataLength <- [DW_OP_plus_uconst 16] [$sp+0]
	@DEBUG_VALUE: HAL_DMAEx_MultiBufferStart_IT:hdma <- $r0
	.loc	6 0 5 is_stmt 0                 @ ../Libraries/STM32F4xx_HAL_Driver/Src/stm32f4xx_hal_dma_ex.c:0:5
	mov.w	r4, #2048
	.loc	6 197 5                         @ ../Libraries/STM32F4xx_HAL_Driver/Src/stm32f4xx_hal_dma_ex.c:197:5
	str	r4, [r1, #4]
	b	.LBB1_55
.Ltmp90:
.LBB1_52:
	@DEBUG_VALUE: HAL_DMAEx_MultiBufferStart_IT:DstAddress <- [DW_OP_LLVM_entry_value 1] $r2
	@DEBUG_VALUE: HAL_DMAEx_MultiBufferStart_IT:SecondMemAddress <- [DW_OP_LLVM_entry_value 1] $r3
	@DEBUG_VALUE: HAL_DMAEx_MultiBufferStart_IT:SrcAddress <- [DW_OP_LLVM_entry_value 1] $r1
	@DEBUG_VALUE: HAL_DMAEx_MultiBufferStart_IT:status <- 0
	@DEBUG_VALUE: HAL_DMAEx_MultiBufferStart_IT:DataLength <- [DW_OP_plus_uconst 16] [$sp+0]
	@DEBUG_VALUE: HAL_DMAEx_MultiBufferStart_IT:hdma <- $r0
	.loc	6 0 5                           @ ../Libraries/STM32F4xx_HAL_Driver/Src/stm32f4xx_hal_dma_ex.c:0:5
	movs	r4, #32
	b	.LBB1_54
.Ltmp91:
.LBB1_53:
	@DEBUG_VALUE: HAL_DMAEx_MultiBufferStart_IT:DstAddress <- [DW_OP_LLVM_entry_value 1] $r2
	@DEBUG_VALUE: HAL_DMAEx_MultiBufferStart_IT:SecondMemAddress <- [DW_OP_LLVM_entry_value 1] $r3
	@DEBUG_VALUE: HAL_DMAEx_MultiBufferStart_IT:SrcAddress <- [DW_OP_LLVM_entry_value 1] $r1
	@DEBUG_VALUE: HAL_DMAEx_MultiBufferStart_IT:status <- 0
	@DEBUG_VALUE: HAL_DMAEx_MultiBufferStart_IT:DataLength <- [DW_OP_plus_uconst 16] [$sp+0]
	@DEBUG_VALUE: HAL_DMAEx_MultiBufferStart_IT:hdma <- $r0
	mov.w	r4, #2048
.Ltmp92:
.LBB1_54:
	@DEBUG_VALUE: HAL_DMAEx_MultiBufferStart_IT:DstAddress <- [DW_OP_LLVM_entry_value 1] $r2
	@DEBUG_VALUE: HAL_DMAEx_MultiBufferStart_IT:SecondMemAddress <- [DW_OP_LLVM_entry_value 1] $r3
	@DEBUG_VALUE: HAL_DMAEx_MultiBufferStart_IT:SrcAddress <- [DW_OP_LLVM_entry_value 1] $r1
	@DEBUG_VALUE: HAL_DMAEx_MultiBufferStart_IT:status <- 0
	@DEBUG_VALUE: HAL_DMAEx_MultiBufferStart_IT:DataLength <- [DW_OP_plus_uconst 16] [$sp+0]
	@DEBUG_VALUE: HAL_DMAEx_MultiBufferStart_IT:hdma <- $r0
	.loc	6 197 5                         @ ../Libraries/STM32F4xx_HAL_Driver/Src/stm32f4xx_hal_dma_ex.c:197:5
	str	r4, [r1]
.Ltmp93:
.LBB1_55:
	@DEBUG_VALUE: HAL_DMAEx_MultiBufferStart_IT:DstAddress <- [DW_OP_LLVM_entry_value 1] $r2
	@DEBUG_VALUE: HAL_DMAEx_MultiBufferStart_IT:SecondMemAddress <- [DW_OP_LLVM_entry_value 1] $r3
	@DEBUG_VALUE: HAL_DMAEx_MultiBufferStart_IT:SrcAddress <- [DW_OP_LLVM_entry_value 1] $r1
	@DEBUG_VALUE: HAL_DMAEx_MultiBufferStart_IT:status <- 0
	@DEBUG_VALUE: HAL_DMAEx_MultiBufferStart_IT:DataLength <- [DW_OP_plus_uconst 16] [$sp+0]
	@DEBUG_VALUE: HAL_DMAEx_MultiBufferStart_IT:hdma <- $r0
	.loc	6 198 5 is_stmt 1               @ ../Libraries/STM32F4xx_HAL_Driver/Src/stm32f4xx_hal_dma_ex.c:198:5
	cmp	r12, r2
	bls	.LBB1_59
.Ltmp94:
@ %bb.56:
	@DEBUG_VALUE: HAL_DMAEx_MultiBufferStart_IT:DstAddress <- [DW_OP_LLVM_entry_value 1] $r2
	@DEBUG_VALUE: HAL_DMAEx_MultiBufferStart_IT:SecondMemAddress <- [DW_OP_LLVM_entry_value 1] $r3
	@DEBUG_VALUE: HAL_DMAEx_MultiBufferStart_IT:SrcAddress <- [DW_OP_LLVM_entry_value 1] $r1
	@DEBUG_VALUE: HAL_DMAEx_MultiBufferStart_IT:status <- 0
	@DEBUG_VALUE: HAL_DMAEx_MultiBufferStart_IT:DataLength <- [DW_OP_plus_uconst 16] [$sp+0]
	@DEBUG_VALUE: HAL_DMAEx_MultiBufferStart_IT:hdma <- $r0
	cmp	r12, r3
	beq	.LBB1_62
.Ltmp95:
@ %bb.57:
	@DEBUG_VALUE: HAL_DMAEx_MultiBufferStart_IT:DstAddress <- [DW_OP_LLVM_entry_value 1] $r2
	@DEBUG_VALUE: HAL_DMAEx_MultiBufferStart_IT:SecondMemAddress <- [DW_OP_LLVM_entry_value 1] $r3
	@DEBUG_VALUE: HAL_DMAEx_MultiBufferStart_IT:SrcAddress <- [DW_OP_LLVM_entry_value 1] $r1
	@DEBUG_VALUE: HAL_DMAEx_MultiBufferStart_IT:status <- 0
	@DEBUG_VALUE: HAL_DMAEx_MultiBufferStart_IT:DataLength <- [DW_OP_plus_uconst 16] [$sp+0]
	@DEBUG_VALUE: HAL_DMAEx_MultiBufferStart_IT:hdma <- $r0
	.loc	6 0 5 is_stmt 0                 @ ../Libraries/STM32F4xx_HAL_Driver/Src/stm32f4xx_hal_dma_ex.c:0:5
	movw	r4, #24712
	movt	r4, #16386
	.loc	6 198 5                         @ ../Libraries/STM32F4xx_HAL_Driver/Src/stm32f4xx_hal_dma_ex.c:198:5
	cmp	r12, r4
	beq	.LBB1_63
.Ltmp96:
@ %bb.58:
	@DEBUG_VALUE: HAL_DMAEx_MultiBufferStart_IT:DstAddress <- [DW_OP_LLVM_entry_value 1] $r2
	@DEBUG_VALUE: HAL_DMAEx_MultiBufferStart_IT:SecondMemAddress <- [DW_OP_LLVM_entry_value 1] $r3
	@DEBUG_VALUE: HAL_DMAEx_MultiBufferStart_IT:SrcAddress <- [DW_OP_LLVM_entry_value 1] $r1
	@DEBUG_VALUE: HAL_DMAEx_MultiBufferStart_IT:status <- 0
	@DEBUG_VALUE: HAL_DMAEx_MultiBufferStart_IT:DataLength <- [DW_OP_plus_uconst 16] [$sp+0]
	@DEBUG_VALUE: HAL_DMAEx_MultiBufferStart_IT:hdma <- $r0
	.loc	6 0 5                           @ ../Libraries/STM32F4xx_HAL_Driver/Src/stm32f4xx_hal_dma_ex.c:0:5
	movw	r4, #24736
	movt	r4, #16386
	.loc	6 198 5                         @ ../Libraries/STM32F4xx_HAL_Driver/Src/stm32f4xx_hal_dma_ex.c:198:5
	cmp	r12, r4
	ite	eq
	moveq.w	r4, #1048576
	movne.w	r4, #67108864
	str	r4, [r1, #4]
	b	.LBB1_67
.Ltmp97:
.LBB1_59:
	@DEBUG_VALUE: HAL_DMAEx_MultiBufferStart_IT:DstAddress <- [DW_OP_LLVM_entry_value 1] $r2
	@DEBUG_VALUE: HAL_DMAEx_MultiBufferStart_IT:SecondMemAddress <- [DW_OP_LLVM_entry_value 1] $r3
	@DEBUG_VALUE: HAL_DMAEx_MultiBufferStart_IT:SrcAddress <- [DW_OP_LLVM_entry_value 1] $r1
	@DEBUG_VALUE: HAL_DMAEx_MultiBufferStart_IT:status <- 0
	@DEBUG_VALUE: HAL_DMAEx_MultiBufferStart_IT:DataLength <- [DW_OP_plus_uconst 16] [$sp+0]
	@DEBUG_VALUE: HAL_DMAEx_MultiBufferStart_IT:hdma <- $r0
	cmp	r12, lr
	beq	.LBB1_64
.Ltmp98:
@ %bb.60:
	@DEBUG_VALUE: HAL_DMAEx_MultiBufferStart_IT:DstAddress <- [DW_OP_LLVM_entry_value 1] $r2
	@DEBUG_VALUE: HAL_DMAEx_MultiBufferStart_IT:SecondMemAddress <- [DW_OP_LLVM_entry_value 1] $r3
	@DEBUG_VALUE: HAL_DMAEx_MultiBufferStart_IT:SrcAddress <- [DW_OP_LLVM_entry_value 1] $r1
	@DEBUG_VALUE: HAL_DMAEx_MultiBufferStart_IT:status <- 0
	@DEBUG_VALUE: HAL_DMAEx_MultiBufferStart_IT:DataLength <- [DW_OP_plus_uconst 16] [$sp+0]
	@DEBUG_VALUE: HAL_DMAEx_MultiBufferStart_IT:hdma <- $r0
	.loc	6 0 5                           @ ../Libraries/STM32F4xx_HAL_Driver/Src/stm32f4xx_hal_dma_ex.c:0:5
	movw	r4, #24616
	movt	r4, #16386
	.loc	6 198 5                         @ ../Libraries/STM32F4xx_HAL_Driver/Src/stm32f4xx_hal_dma_ex.c:198:5
	cmp	r12, r4
	beq	.LBB1_65
.Ltmp99:
@ %bb.61:
	@DEBUG_VALUE: HAL_DMAEx_MultiBufferStart_IT:DstAddress <- [DW_OP_LLVM_entry_value 1] $r2
	@DEBUG_VALUE: HAL_DMAEx_MultiBufferStart_IT:SecondMemAddress <- [DW_OP_LLVM_entry_value 1] $r3
	@DEBUG_VALUE: HAL_DMAEx_MultiBufferStart_IT:SrcAddress <- [DW_OP_LLVM_entry_value 1] $r1
	@DEBUG_VALUE: HAL_DMAEx_MultiBufferStart_IT:status <- 0
	@DEBUG_VALUE: HAL_DMAEx_MultiBufferStart_IT:DataLength <- [DW_OP_plus_uconst 16] [$sp+0]
	@DEBUG_VALUE: HAL_DMAEx_MultiBufferStart_IT:hdma <- $r0
	.loc	6 0 5                           @ ../Libraries/STM32F4xx_HAL_Driver/Src/stm32f4xx_hal_dma_ex.c:0:5
	movw	r4, #24640
	movt	r4, #16386
	.loc	6 198 5                         @ ../Libraries/STM32F4xx_HAL_Driver/Src/stm32f4xx_hal_dma_ex.c:198:5
	cmp	r12, r4
	ite	eq
	moveq.w	r4, #1048576
	movne.w	r4, #67108864
	b	.LBB1_66
.Ltmp100:
.LBB1_62:
	@DEBUG_VALUE: HAL_DMAEx_MultiBufferStart_IT:DstAddress <- [DW_OP_LLVM_entry_value 1] $r2
	@DEBUG_VALUE: HAL_DMAEx_MultiBufferStart_IT:SecondMemAddress <- [DW_OP_LLVM_entry_value 1] $r3
	@DEBUG_VALUE: HAL_DMAEx_MultiBufferStart_IT:SrcAddress <- [DW_OP_LLVM_entry_value 1] $r1
	@DEBUG_VALUE: HAL_DMAEx_MultiBufferStart_IT:status <- 0
	@DEBUG_VALUE: HAL_DMAEx_MultiBufferStart_IT:DataLength <- [DW_OP_plus_uconst 16] [$sp+0]
	@DEBUG_VALUE: HAL_DMAEx_MultiBufferStart_IT:hdma <- $r0
	.loc	6 0 5                           @ ../Libraries/STM32F4xx_HAL_Driver/Src/stm32f4xx_hal_dma_ex.c:0:5
	movs	r4, #16
	.loc	6 198 5                         @ ../Libraries/STM32F4xx_HAL_Driver/Src/stm32f4xx_hal_dma_ex.c:198:5
	str	r4, [r1, #4]
	b	.LBB1_67
.Ltmp101:
.LBB1_63:
	@DEBUG_VALUE: HAL_DMAEx_MultiBufferStart_IT:DstAddress <- [DW_OP_LLVM_entry_value 1] $r2
	@DEBUG_VALUE: HAL_DMAEx_MultiBufferStart_IT:SecondMemAddress <- [DW_OP_LLVM_entry_value 1] $r3
	@DEBUG_VALUE: HAL_DMAEx_MultiBufferStart_IT:SrcAddress <- [DW_OP_LLVM_entry_value 1] $r1
	@DEBUG_VALUE: HAL_DMAEx_MultiBufferStart_IT:status <- 0
	@DEBUG_VALUE: HAL_DMAEx_MultiBufferStart_IT:DataLength <- [DW_OP_plus_uconst 16] [$sp+0]
	@DEBUG_VALUE: HAL_DMAEx_MultiBufferStart_IT:hdma <- $r0
	.loc	6 0 5                           @ ../Libraries/STM32F4xx_HAL_Driver/Src/stm32f4xx_hal_dma_ex.c:0:5
	mov.w	r4, #1024
	.loc	6 198 5                         @ ../Libraries/STM32F4xx_HAL_Driver/Src/stm32f4xx_hal_dma_ex.c:198:5
	str	r4, [r1, #4]
	b	.LBB1_67
.Ltmp102:
.LBB1_64:
	@DEBUG_VALUE: HAL_DMAEx_MultiBufferStart_IT:DstAddress <- [DW_OP_LLVM_entry_value 1] $r2
	@DEBUG_VALUE: HAL_DMAEx_MultiBufferStart_IT:SecondMemAddress <- [DW_OP_LLVM_entry_value 1] $r3
	@DEBUG_VALUE: HAL_DMAEx_MultiBufferStart_IT:SrcAddress <- [DW_OP_LLVM_entry_value 1] $r1
	@DEBUG_VALUE: HAL_DMAEx_MultiBufferStart_IT:status <- 0
	@DEBUG_VALUE: HAL_DMAEx_MultiBufferStart_IT:DataLength <- [DW_OP_plus_uconst 16] [$sp+0]
	@DEBUG_VALUE: HAL_DMAEx_MultiBufferStart_IT:hdma <- $r0
	.loc	6 0 5                           @ ../Libraries/STM32F4xx_HAL_Driver/Src/stm32f4xx_hal_dma_ex.c:0:5
	movs	r4, #16
	b	.LBB1_66
.Ltmp103:
.LBB1_65:
	@DEBUG_VALUE: HAL_DMAEx_MultiBufferStart_IT:DstAddress <- [DW_OP_LLVM_entry_value 1] $r2
	@DEBUG_VALUE: HAL_DMAEx_MultiBufferStart_IT:SecondMemAddress <- [DW_OP_LLVM_entry_value 1] $r3
	@DEBUG_VALUE: HAL_DMAEx_MultiBufferStart_IT:SrcAddress <- [DW_OP_LLVM_entry_value 1] $r1
	@DEBUG_VALUE: HAL_DMAEx_MultiBufferStart_IT:status <- 0
	@DEBUG_VALUE: HAL_DMAEx_MultiBufferStart_IT:DataLength <- [DW_OP_plus_uconst 16] [$sp+0]
	@DEBUG_VALUE: HAL_DMAEx_MultiBufferStart_IT:hdma <- $r0
	mov.w	r4, #1024
.Ltmp104:
.LBB1_66:
	@DEBUG_VALUE: HAL_DMAEx_MultiBufferStart_IT:DstAddress <- [DW_OP_LLVM_entry_value 1] $r2
	@DEBUG_VALUE: HAL_DMAEx_MultiBufferStart_IT:SecondMemAddress <- [DW_OP_LLVM_entry_value 1] $r3
	@DEBUG_VALUE: HAL_DMAEx_MultiBufferStart_IT:SrcAddress <- [DW_OP_LLVM_entry_value 1] $r1
	@DEBUG_VALUE: HAL_DMAEx_MultiBufferStart_IT:status <- 0
	@DEBUG_VALUE: HAL_DMAEx_MultiBufferStart_IT:DataLength <- [DW_OP_plus_uconst 16] [$sp+0]
	@DEBUG_VALUE: HAL_DMAEx_MultiBufferStart_IT:hdma <- $r0
	.loc	6 198 5                         @ ../Libraries/STM32F4xx_HAL_Driver/Src/stm32f4xx_hal_dma_ex.c:198:5
	str	r4, [r1]
.Ltmp105:
.LBB1_67:
	@DEBUG_VALUE: HAL_DMAEx_MultiBufferStart_IT:DstAddress <- [DW_OP_LLVM_entry_value 1] $r2
	@DEBUG_VALUE: HAL_DMAEx_MultiBufferStart_IT:SecondMemAddress <- [DW_OP_LLVM_entry_value 1] $r3
	@DEBUG_VALUE: HAL_DMAEx_MultiBufferStart_IT:SrcAddress <- [DW_OP_LLVM_entry_value 1] $r1
	@DEBUG_VALUE: HAL_DMAEx_MultiBufferStart_IT:status <- 0
	@DEBUG_VALUE: HAL_DMAEx_MultiBufferStart_IT:DataLength <- [DW_OP_plus_uconst 16] [$sp+0]
	@DEBUG_VALUE: HAL_DMAEx_MultiBufferStart_IT:hdma <- $r0
	.loc	6 199 5 is_stmt 1               @ ../Libraries/STM32F4xx_HAL_Driver/Src/stm32f4xx_hal_dma_ex.c:199:5
	cmp	r12, r2
	bls	.LBB1_71
.Ltmp106:
@ %bb.68:
	@DEBUG_VALUE: HAL_DMAEx_MultiBufferStart_IT:DstAddress <- [DW_OP_LLVM_entry_value 1] $r2
	@DEBUG_VALUE: HAL_DMAEx_MultiBufferStart_IT:SecondMemAddress <- [DW_OP_LLVM_entry_value 1] $r3
	@DEBUG_VALUE: HAL_DMAEx_MultiBufferStart_IT:SrcAddress <- [DW_OP_LLVM_entry_value 1] $r1
	@DEBUG_VALUE: HAL_DMAEx_MultiBufferStart_IT:status <- 0
	@DEBUG_VALUE: HAL_DMAEx_MultiBufferStart_IT:DataLength <- [DW_OP_plus_uconst 16] [$sp+0]
	@DEBUG_VALUE: HAL_DMAEx_MultiBufferStart_IT:hdma <- $r0
	cmp	r12, r3
	beq	.LBB1_74
.Ltmp107:
@ %bb.69:
	@DEBUG_VALUE: HAL_DMAEx_MultiBufferStart_IT:DstAddress <- [DW_OP_LLVM_entry_value 1] $r2
	@DEBUG_VALUE: HAL_DMAEx_MultiBufferStart_IT:SecondMemAddress <- [DW_OP_LLVM_entry_value 1] $r3
	@DEBUG_VALUE: HAL_DMAEx_MultiBufferStart_IT:SrcAddress <- [DW_OP_LLVM_entry_value 1] $r1
	@DEBUG_VALUE: HAL_DMAEx_MultiBufferStart_IT:status <- 0
	@DEBUG_VALUE: HAL_DMAEx_MultiBufferStart_IT:DataLength <- [DW_OP_plus_uconst 16] [$sp+0]
	@DEBUG_VALUE: HAL_DMAEx_MultiBufferStart_IT:hdma <- $r0
	.loc	6 0 5 is_stmt 0                 @ ../Libraries/STM32F4xx_HAL_Driver/Src/stm32f4xx_hal_dma_ex.c:0:5
	movw	r4, #24712
	movt	r4, #16386
	.loc	6 199 5                         @ ../Libraries/STM32F4xx_HAL_Driver/Src/stm32f4xx_hal_dma_ex.c:199:5
	cmp	r12, r4
	beq	.LBB1_75
.Ltmp108:
@ %bb.70:
	@DEBUG_VALUE: HAL_DMAEx_MultiBufferStart_IT:DstAddress <- [DW_OP_LLVM_entry_value 1] $r2
	@DEBUG_VALUE: HAL_DMAEx_MultiBufferStart_IT:SecondMemAddress <- [DW_OP_LLVM_entry_value 1] $r3
	@DEBUG_VALUE: HAL_DMAEx_MultiBufferStart_IT:SrcAddress <- [DW_OP_LLVM_entry_value 1] $r1
	@DEBUG_VALUE: HAL_DMAEx_MultiBufferStart_IT:status <- 0
	@DEBUG_VALUE: HAL_DMAEx_MultiBufferStart_IT:DataLength <- [DW_OP_plus_uconst 16] [$sp+0]
	@DEBUG_VALUE: HAL_DMAEx_MultiBufferStart_IT:hdma <- $r0
	.loc	6 0 5                           @ ../Libraries/STM32F4xx_HAL_Driver/Src/stm32f4xx_hal_dma_ex.c:0:5
	movw	r4, #24736
	movt	r4, #16386
	.loc	6 199 5                         @ ../Libraries/STM32F4xx_HAL_Driver/Src/stm32f4xx_hal_dma_ex.c:199:5
	cmp	r12, r4
	ite	eq
	moveq.w	r4, #524288
	movne.w	r4, #33554432
	str	r4, [r1, #4]
	b	.LBB1_79
.Ltmp109:
.LBB1_71:
	@DEBUG_VALUE: HAL_DMAEx_MultiBufferStart_IT:DstAddress <- [DW_OP_LLVM_entry_value 1] $r2
	@DEBUG_VALUE: HAL_DMAEx_MultiBufferStart_IT:SecondMemAddress <- [DW_OP_LLVM_entry_value 1] $r3
	@DEBUG_VALUE: HAL_DMAEx_MultiBufferStart_IT:SrcAddress <- [DW_OP_LLVM_entry_value 1] $r1
	@DEBUG_VALUE: HAL_DMAEx_MultiBufferStart_IT:status <- 0
	@DEBUG_VALUE: HAL_DMAEx_MultiBufferStart_IT:DataLength <- [DW_OP_plus_uconst 16] [$sp+0]
	@DEBUG_VALUE: HAL_DMAEx_MultiBufferStart_IT:hdma <- $r0
	cmp	r12, lr
	beq	.LBB1_76
.Ltmp110:
@ %bb.72:
	@DEBUG_VALUE: HAL_DMAEx_MultiBufferStart_IT:DstAddress <- [DW_OP_LLVM_entry_value 1] $r2
	@DEBUG_VALUE: HAL_DMAEx_MultiBufferStart_IT:SecondMemAddress <- [DW_OP_LLVM_entry_value 1] $r3
	@DEBUG_VALUE: HAL_DMAEx_MultiBufferStart_IT:SrcAddress <- [DW_OP_LLVM_entry_value 1] $r1
	@DEBUG_VALUE: HAL_DMAEx_MultiBufferStart_IT:status <- 0
	@DEBUG_VALUE: HAL_DMAEx_MultiBufferStart_IT:DataLength <- [DW_OP_plus_uconst 16] [$sp+0]
	@DEBUG_VALUE: HAL_DMAEx_MultiBufferStart_IT:hdma <- $r0
	.loc	6 0 5                           @ ../Libraries/STM32F4xx_HAL_Driver/Src/stm32f4xx_hal_dma_ex.c:0:5
	movw	r4, #24616
	movt	r4, #16386
	.loc	6 199 5                         @ ../Libraries/STM32F4xx_HAL_Driver/Src/stm32f4xx_hal_dma_ex.c:199:5
	cmp	r12, r4
	beq	.LBB1_77
.Ltmp111:
@ %bb.73:
	@DEBUG_VALUE: HAL_DMAEx_MultiBufferStart_IT:DstAddress <- [DW_OP_LLVM_entry_value 1] $r2
	@DEBUG_VALUE: HAL_DMAEx_MultiBufferStart_IT:SecondMemAddress <- [DW_OP_LLVM_entry_value 1] $r3
	@DEBUG_VALUE: HAL_DMAEx_MultiBufferStart_IT:SrcAddress <- [DW_OP_LLVM_entry_value 1] $r1
	@DEBUG_VALUE: HAL_DMAEx_MultiBufferStart_IT:status <- 0
	@DEBUG_VALUE: HAL_DMAEx_MultiBufferStart_IT:DataLength <- [DW_OP_plus_uconst 16] [$sp+0]
	@DEBUG_VALUE: HAL_DMAEx_MultiBufferStart_IT:hdma <- $r0
	.loc	6 0 5                           @ ../Libraries/STM32F4xx_HAL_Driver/Src/stm32f4xx_hal_dma_ex.c:0:5
	movw	r4, #24640
	movt	r4, #16386
	.loc	6 199 5                         @ ../Libraries/STM32F4xx_HAL_Driver/Src/stm32f4xx_hal_dma_ex.c:199:5
	cmp	r12, r4
	ite	eq
	moveq.w	r4, #524288
	movne.w	r4, #33554432
	b	.LBB1_78
.Ltmp112:
.LBB1_74:
	@DEBUG_VALUE: HAL_DMAEx_MultiBufferStart_IT:DstAddress <- [DW_OP_LLVM_entry_value 1] $r2
	@DEBUG_VALUE: HAL_DMAEx_MultiBufferStart_IT:SecondMemAddress <- [DW_OP_LLVM_entry_value 1] $r3
	@DEBUG_VALUE: HAL_DMAEx_MultiBufferStart_IT:SrcAddress <- [DW_OP_LLVM_entry_value 1] $r1
	@DEBUG_VALUE: HAL_DMAEx_MultiBufferStart_IT:status <- 0
	@DEBUG_VALUE: HAL_DMAEx_MultiBufferStart_IT:DataLength <- [DW_OP_plus_uconst 16] [$sp+0]
	@DEBUG_VALUE: HAL_DMAEx_MultiBufferStart_IT:hdma <- $r0
	.loc	6 0 5                           @ ../Libraries/STM32F4xx_HAL_Driver/Src/stm32f4xx_hal_dma_ex.c:0:5
	movs	r4, #8
	.loc	6 199 5                         @ ../Libraries/STM32F4xx_HAL_Driver/Src/stm32f4xx_hal_dma_ex.c:199:5
	str	r4, [r1, #4]
	b	.LBB1_79
.Ltmp113:
.LBB1_75:
	@DEBUG_VALUE: HAL_DMAEx_MultiBufferStart_IT:DstAddress <- [DW_OP_LLVM_entry_value 1] $r2
	@DEBUG_VALUE: HAL_DMAEx_MultiBufferStart_IT:SecondMemAddress <- [DW_OP_LLVM_entry_value 1] $r3
	@DEBUG_VALUE: HAL_DMAEx_MultiBufferStart_IT:SrcAddress <- [DW_OP_LLVM_entry_value 1] $r1
	@DEBUG_VALUE: HAL_DMAEx_MultiBufferStart_IT:status <- 0
	@DEBUG_VALUE: HAL_DMAEx_MultiBufferStart_IT:DataLength <- [DW_OP_plus_uconst 16] [$sp+0]
	@DEBUG_VALUE: HAL_DMAEx_MultiBufferStart_IT:hdma <- $r0
	.loc	6 0 5                           @ ../Libraries/STM32F4xx_HAL_Driver/Src/stm32f4xx_hal_dma_ex.c:0:5
	mov.w	r4, #512
	.loc	6 199 5                         @ ../Libraries/STM32F4xx_HAL_Driver/Src/stm32f4xx_hal_dma_ex.c:199:5
	str	r4, [r1, #4]
	b	.LBB1_79
.Ltmp114:
.LBB1_76:
	@DEBUG_VALUE: HAL_DMAEx_MultiBufferStart_IT:DstAddress <- [DW_OP_LLVM_entry_value 1] $r2
	@DEBUG_VALUE: HAL_DMAEx_MultiBufferStart_IT:SecondMemAddress <- [DW_OP_LLVM_entry_value 1] $r3
	@DEBUG_VALUE: HAL_DMAEx_MultiBufferStart_IT:SrcAddress <- [DW_OP_LLVM_entry_value 1] $r1
	@DEBUG_VALUE: HAL_DMAEx_MultiBufferStart_IT:status <- 0
	@DEBUG_VALUE: HAL_DMAEx_MultiBufferStart_IT:DataLength <- [DW_OP_plus_uconst 16] [$sp+0]
	@DEBUG_VALUE: HAL_DMAEx_MultiBufferStart_IT:hdma <- $r0
	.loc	6 0 5                           @ ../Libraries/STM32F4xx_HAL_Driver/Src/stm32f4xx_hal_dma_ex.c:0:5
	movs	r4, #8
	b	.LBB1_78
.Ltmp115:
.LBB1_77:
	@DEBUG_VALUE: HAL_DMAEx_MultiBufferStart_IT:DstAddress <- [DW_OP_LLVM_entry_value 1] $r2
	@DEBUG_VALUE: HAL_DMAEx_MultiBufferStart_IT:SecondMemAddress <- [DW_OP_LLVM_entry_value 1] $r3
	@DEBUG_VALUE: HAL_DMAEx_MultiBufferStart_IT:SrcAddress <- [DW_OP_LLVM_entry_value 1] $r1
	@DEBUG_VALUE: HAL_DMAEx_MultiBufferStart_IT:status <- 0
	@DEBUG_VALUE: HAL_DMAEx_MultiBufferStart_IT:DataLength <- [DW_OP_plus_uconst 16] [$sp+0]
	@DEBUG_VALUE: HAL_DMAEx_MultiBufferStart_IT:hdma <- $r0
	mov.w	r4, #512
.Ltmp116:
.LBB1_78:
	@DEBUG_VALUE: HAL_DMAEx_MultiBufferStart_IT:DstAddress <- [DW_OP_LLVM_entry_value 1] $r2
	@DEBUG_VALUE: HAL_DMAEx_MultiBufferStart_IT:SecondMemAddress <- [DW_OP_LLVM_entry_value 1] $r3
	@DEBUG_VALUE: HAL_DMAEx_MultiBufferStart_IT:SrcAddress <- [DW_OP_LLVM_entry_value 1] $r1
	@DEBUG_VALUE: HAL_DMAEx_MultiBufferStart_IT:status <- 0
	@DEBUG_VALUE: HAL_DMAEx_MultiBufferStart_IT:DataLength <- [DW_OP_plus_uconst 16] [$sp+0]
	@DEBUG_VALUE: HAL_DMAEx_MultiBufferStart_IT:hdma <- $r0
	.loc	6 199 5                         @ ../Libraries/STM32F4xx_HAL_Driver/Src/stm32f4xx_hal_dma_ex.c:199:5
	str	r4, [r1]
.Ltmp117:
.LBB1_79:
	@DEBUG_VALUE: HAL_DMAEx_MultiBufferStart_IT:DstAddress <- [DW_OP_LLVM_entry_value 1] $r2
	@DEBUG_VALUE: HAL_DMAEx_MultiBufferStart_IT:SecondMemAddress <- [DW_OP_LLVM_entry_value 1] $r3
	@DEBUG_VALUE: HAL_DMAEx_MultiBufferStart_IT:SrcAddress <- [DW_OP_LLVM_entry_value 1] $r1
	@DEBUG_VALUE: HAL_DMAEx_MultiBufferStart_IT:status <- 0
	@DEBUG_VALUE: HAL_DMAEx_MultiBufferStart_IT:DataLength <- [DW_OP_plus_uconst 16] [$sp+0]
	@DEBUG_VALUE: HAL_DMAEx_MultiBufferStart_IT:hdma <- $r0
	.loc	6 200 5 is_stmt 1               @ ../Libraries/STM32F4xx_HAL_Driver/Src/stm32f4xx_hal_dma_ex.c:200:5
	cmp	r12, r2
	bls	.LBB1_83
.Ltmp118:
@ %bb.80:
	@DEBUG_VALUE: HAL_DMAEx_MultiBufferStart_IT:DstAddress <- [DW_OP_LLVM_entry_value 1] $r2
	@DEBUG_VALUE: HAL_DMAEx_MultiBufferStart_IT:SecondMemAddress <- [DW_OP_LLVM_entry_value 1] $r3
	@DEBUG_VALUE: HAL_DMAEx_MultiBufferStart_IT:SrcAddress <- [DW_OP_LLVM_entry_value 1] $r1
	@DEBUG_VALUE: HAL_DMAEx_MultiBufferStart_IT:status <- 0
	@DEBUG_VALUE: HAL_DMAEx_MultiBufferStart_IT:DataLength <- [DW_OP_plus_uconst 16] [$sp+0]
	@DEBUG_VALUE: HAL_DMAEx_MultiBufferStart_IT:hdma <- $r0
	cmp	r12, r3
	beq	.LBB1_86
.Ltmp119:
@ %bb.81:
	@DEBUG_VALUE: HAL_DMAEx_MultiBufferStart_IT:DstAddress <- [DW_OP_LLVM_entry_value 1] $r2
	@DEBUG_VALUE: HAL_DMAEx_MultiBufferStart_IT:SecondMemAddress <- [DW_OP_LLVM_entry_value 1] $r3
	@DEBUG_VALUE: HAL_DMAEx_MultiBufferStart_IT:SrcAddress <- [DW_OP_LLVM_entry_value 1] $r1
	@DEBUG_VALUE: HAL_DMAEx_MultiBufferStart_IT:status <- 0
	@DEBUG_VALUE: HAL_DMAEx_MultiBufferStart_IT:DataLength <- [DW_OP_plus_uconst 16] [$sp+0]
	@DEBUG_VALUE: HAL_DMAEx_MultiBufferStart_IT:hdma <- $r0
	.loc	6 0 5 is_stmt 0                 @ ../Libraries/STM32F4xx_HAL_Driver/Src/stm32f4xx_hal_dma_ex.c:0:5
	movw	r4, #24712
	movt	r4, #16386
	.loc	6 200 5                         @ ../Libraries/STM32F4xx_HAL_Driver/Src/stm32f4xx_hal_dma_ex.c:200:5
	cmp	r12, r4
	beq	.LBB1_87
.Ltmp120:
@ %bb.82:
	@DEBUG_VALUE: HAL_DMAEx_MultiBufferStart_IT:DstAddress <- [DW_OP_LLVM_entry_value 1] $r2
	@DEBUG_VALUE: HAL_DMAEx_MultiBufferStart_IT:SecondMemAddress <- [DW_OP_LLVM_entry_value 1] $r3
	@DEBUG_VALUE: HAL_DMAEx_MultiBufferStart_IT:SrcAddress <- [DW_OP_LLVM_entry_value 1] $r1
	@DEBUG_VALUE: HAL_DMAEx_MultiBufferStart_IT:status <- 0
	@DEBUG_VALUE: HAL_DMAEx_MultiBufferStart_IT:DataLength <- [DW_OP_plus_uconst 16] [$sp+0]
	@DEBUG_VALUE: HAL_DMAEx_MultiBufferStart_IT:hdma <- $r0
	.loc	6 0 5                           @ ../Libraries/STM32F4xx_HAL_Driver/Src/stm32f4xx_hal_dma_ex.c:0:5
	movw	r4, #24736
	movt	r4, #16386
	.loc	6 200 5                         @ ../Libraries/STM32F4xx_HAL_Driver/Src/stm32f4xx_hal_dma_ex.c:200:5
	cmp	r12, r4
	ite	eq
	moveq.w	r4, #262144
	movne.w	r4, #16777216
	str	r4, [r1, #4]
	b	.LBB1_91
.Ltmp121:
.LBB1_83:
	@DEBUG_VALUE: HAL_DMAEx_MultiBufferStart_IT:DstAddress <- [DW_OP_LLVM_entry_value 1] $r2
	@DEBUG_VALUE: HAL_DMAEx_MultiBufferStart_IT:SecondMemAddress <- [DW_OP_LLVM_entry_value 1] $r3
	@DEBUG_VALUE: HAL_DMAEx_MultiBufferStart_IT:SrcAddress <- [DW_OP_LLVM_entry_value 1] $r1
	@DEBUG_VALUE: HAL_DMAEx_MultiBufferStart_IT:status <- 0
	@DEBUG_VALUE: HAL_DMAEx_MultiBufferStart_IT:DataLength <- [DW_OP_plus_uconst 16] [$sp+0]
	@DEBUG_VALUE: HAL_DMAEx_MultiBufferStart_IT:hdma <- $r0
	cmp	r12, lr
	beq	.LBB1_88
.Ltmp122:
@ %bb.84:
	@DEBUG_VALUE: HAL_DMAEx_MultiBufferStart_IT:DstAddress <- [DW_OP_LLVM_entry_value 1] $r2
	@DEBUG_VALUE: HAL_DMAEx_MultiBufferStart_IT:SecondMemAddress <- [DW_OP_LLVM_entry_value 1] $r3
	@DEBUG_VALUE: HAL_DMAEx_MultiBufferStart_IT:SrcAddress <- [DW_OP_LLVM_entry_value 1] $r1
	@DEBUG_VALUE: HAL_DMAEx_MultiBufferStart_IT:status <- 0
	@DEBUG_VALUE: HAL_DMAEx_MultiBufferStart_IT:DataLength <- [DW_OP_plus_uconst 16] [$sp+0]
	@DEBUG_VALUE: HAL_DMAEx_MultiBufferStart_IT:hdma <- $r0
	.loc	6 0 5                           @ ../Libraries/STM32F4xx_HAL_Driver/Src/stm32f4xx_hal_dma_ex.c:0:5
	movw	r4, #24616
	movt	r4, #16386
	.loc	6 200 5                         @ ../Libraries/STM32F4xx_HAL_Driver/Src/stm32f4xx_hal_dma_ex.c:200:5
	cmp	r12, r4
	beq	.LBB1_89
.Ltmp123:
@ %bb.85:
	@DEBUG_VALUE: HAL_DMAEx_MultiBufferStart_IT:DstAddress <- [DW_OP_LLVM_entry_value 1] $r2
	@DEBUG_VALUE: HAL_DMAEx_MultiBufferStart_IT:SecondMemAddress <- [DW_OP_LLVM_entry_value 1] $r3
	@DEBUG_VALUE: HAL_DMAEx_MultiBufferStart_IT:SrcAddress <- [DW_OP_LLVM_entry_value 1] $r1
	@DEBUG_VALUE: HAL_DMAEx_MultiBufferStart_IT:status <- 0
	@DEBUG_VALUE: HAL_DMAEx_MultiBufferStart_IT:DataLength <- [DW_OP_plus_uconst 16] [$sp+0]
	@DEBUG_VALUE: HAL_DMAEx_MultiBufferStart_IT:hdma <- $r0
	.loc	6 0 5                           @ ../Libraries/STM32F4xx_HAL_Driver/Src/stm32f4xx_hal_dma_ex.c:0:5
	movw	r4, #24640
	movt	r4, #16386
	.loc	6 200 5                         @ ../Libraries/STM32F4xx_HAL_Driver/Src/stm32f4xx_hal_dma_ex.c:200:5
	cmp	r12, r4
	ite	eq
	moveq.w	r4, #262144
	movne.w	r4, #16777216
	b	.LBB1_90
.Ltmp124:
.LBB1_86:
	@DEBUG_VALUE: HAL_DMAEx_MultiBufferStart_IT:DstAddress <- [DW_OP_LLVM_entry_value 1] $r2
	@DEBUG_VALUE: HAL_DMAEx_MultiBufferStart_IT:SecondMemAddress <- [DW_OP_LLVM_entry_value 1] $r3
	@DEBUG_VALUE: HAL_DMAEx_MultiBufferStart_IT:SrcAddress <- [DW_OP_LLVM_entry_value 1] $r1
	@DEBUG_VALUE: HAL_DMAEx_MultiBufferStart_IT:status <- 0
	@DEBUG_VALUE: HAL_DMAEx_MultiBufferStart_IT:DataLength <- [DW_OP_plus_uconst 16] [$sp+0]
	@DEBUG_VALUE: HAL_DMAEx_MultiBufferStart_IT:hdma <- $r0
	.loc	6 0 5                           @ ../Libraries/STM32F4xx_HAL_Driver/Src/stm32f4xx_hal_dma_ex.c:0:5
	movs	r4, #4
	.loc	6 200 5                         @ ../Libraries/STM32F4xx_HAL_Driver/Src/stm32f4xx_hal_dma_ex.c:200:5
	str	r4, [r1, #4]
	b	.LBB1_91
.Ltmp125:
.LBB1_87:
	@DEBUG_VALUE: HAL_DMAEx_MultiBufferStart_IT:DstAddress <- [DW_OP_LLVM_entry_value 1] $r2
	@DEBUG_VALUE: HAL_DMAEx_MultiBufferStart_IT:SecondMemAddress <- [DW_OP_LLVM_entry_value 1] $r3
	@DEBUG_VALUE: HAL_DMAEx_MultiBufferStart_IT:SrcAddress <- [DW_OP_LLVM_entry_value 1] $r1
	@DEBUG_VALUE: HAL_DMAEx_MultiBufferStart_IT:status <- 0
	@DEBUG_VALUE: HAL_DMAEx_MultiBufferStart_IT:DataLength <- [DW_OP_plus_uconst 16] [$sp+0]
	@DEBUG_VALUE: HAL_DMAEx_MultiBufferStart_IT:hdma <- $r0
	.loc	6 0 5                           @ ../Libraries/STM32F4xx_HAL_Driver/Src/stm32f4xx_hal_dma_ex.c:0:5
	mov.w	r4, #256
	.loc	6 200 5                         @ ../Libraries/STM32F4xx_HAL_Driver/Src/stm32f4xx_hal_dma_ex.c:200:5
	str	r4, [r1, #4]
	b	.LBB1_91
.Ltmp126:
.LBB1_88:
	@DEBUG_VALUE: HAL_DMAEx_MultiBufferStart_IT:DstAddress <- [DW_OP_LLVM_entry_value 1] $r2
	@DEBUG_VALUE: HAL_DMAEx_MultiBufferStart_IT:SecondMemAddress <- [DW_OP_LLVM_entry_value 1] $r3
	@DEBUG_VALUE: HAL_DMAEx_MultiBufferStart_IT:SrcAddress <- [DW_OP_LLVM_entry_value 1] $r1
	@DEBUG_VALUE: HAL_DMAEx_MultiBufferStart_IT:status <- 0
	@DEBUG_VALUE: HAL_DMAEx_MultiBufferStart_IT:DataLength <- [DW_OP_plus_uconst 16] [$sp+0]
	@DEBUG_VALUE: HAL_DMAEx_MultiBufferStart_IT:hdma <- $r0
	.loc	6 0 5                           @ ../Libraries/STM32F4xx_HAL_Driver/Src/stm32f4xx_hal_dma_ex.c:0:5
	movs	r4, #4
	b	.LBB1_90
.Ltmp127:
.LBB1_89:
	@DEBUG_VALUE: HAL_DMAEx_MultiBufferStart_IT:DstAddress <- [DW_OP_LLVM_entry_value 1] $r2
	@DEBUG_VALUE: HAL_DMAEx_MultiBufferStart_IT:SecondMemAddress <- [DW_OP_LLVM_entry_value 1] $r3
	@DEBUG_VALUE: HAL_DMAEx_MultiBufferStart_IT:SrcAddress <- [DW_OP_LLVM_entry_value 1] $r1
	@DEBUG_VALUE: HAL_DMAEx_MultiBufferStart_IT:status <- 0
	@DEBUG_VALUE: HAL_DMAEx_MultiBufferStart_IT:DataLength <- [DW_OP_plus_uconst 16] [$sp+0]
	@DEBUG_VALUE: HAL_DMAEx_MultiBufferStart_IT:hdma <- $r0
	mov.w	r4, #256
.Ltmp128:
.LBB1_90:
	@DEBUG_VALUE: HAL_DMAEx_MultiBufferStart_IT:DstAddress <- [DW_OP_LLVM_entry_value 1] $r2
	@DEBUG_VALUE: HAL_DMAEx_MultiBufferStart_IT:SecondMemAddress <- [DW_OP_LLVM_entry_value 1] $r3
	@DEBUG_VALUE: HAL_DMAEx_MultiBufferStart_IT:SrcAddress <- [DW_OP_LLVM_entry_value 1] $r1
	@DEBUG_VALUE: HAL_DMAEx_MultiBufferStart_IT:status <- 0
	@DEBUG_VALUE: HAL_DMAEx_MultiBufferStart_IT:DataLength <- [DW_OP_plus_uconst 16] [$sp+0]
	@DEBUG_VALUE: HAL_DMAEx_MultiBufferStart_IT:hdma <- $r0
	.loc	6 200 5                         @ ../Libraries/STM32F4xx_HAL_Driver/Src/stm32f4xx_hal_dma_ex.c:200:5
	str	r4, [r1]
.Ltmp129:
.LBB1_91:
	@DEBUG_VALUE: HAL_DMAEx_MultiBufferStart_IT:DstAddress <- [DW_OP_LLVM_entry_value 1] $r2
	@DEBUG_VALUE: HAL_DMAEx_MultiBufferStart_IT:SecondMemAddress <- [DW_OP_LLVM_entry_value 1] $r3
	@DEBUG_VALUE: HAL_DMAEx_MultiBufferStart_IT:SrcAddress <- [DW_OP_LLVM_entry_value 1] $r1
	@DEBUG_VALUE: HAL_DMAEx_MultiBufferStart_IT:status <- 0
	@DEBUG_VALUE: HAL_DMAEx_MultiBufferStart_IT:DataLength <- [DW_OP_plus_uconst 16] [$sp+0]
	@DEBUG_VALUE: HAL_DMAEx_MultiBufferStart_IT:hdma <- $r0
	.loc	6 201 5 is_stmt 1               @ ../Libraries/STM32F4xx_HAL_Driver/Src/stm32f4xx_hal_dma_ex.c:201:5
	cmp	r12, r2
	bls	.LBB1_95
.Ltmp130:
@ %bb.92:
	@DEBUG_VALUE: HAL_DMAEx_MultiBufferStart_IT:DstAddress <- [DW_OP_LLVM_entry_value 1] $r2
	@DEBUG_VALUE: HAL_DMAEx_MultiBufferStart_IT:SecondMemAddress <- [DW_OP_LLVM_entry_value 1] $r3
	@DEBUG_VALUE: HAL_DMAEx_MultiBufferStart_IT:SrcAddress <- [DW_OP_LLVM_entry_value 1] $r1
	@DEBUG_VALUE: HAL_DMAEx_MultiBufferStart_IT:status <- 0
	@DEBUG_VALUE: HAL_DMAEx_MultiBufferStart_IT:DataLength <- [DW_OP_plus_uconst 16] [$sp+0]
	@DEBUG_VALUE: HAL_DMAEx_MultiBufferStart_IT:hdma <- $r0
	cmp	r12, r3
	beq	.LBB1_98
.Ltmp131:
@ %bb.93:
	@DEBUG_VALUE: HAL_DMAEx_MultiBufferStart_IT:DstAddress <- [DW_OP_LLVM_entry_value 1] $r2
	@DEBUG_VALUE: HAL_DMAEx_MultiBufferStart_IT:SecondMemAddress <- [DW_OP_LLVM_entry_value 1] $r3
	@DEBUG_VALUE: HAL_DMAEx_MultiBufferStart_IT:SrcAddress <- [DW_OP_LLVM_entry_value 1] $r1
	@DEBUG_VALUE: HAL_DMAEx_MultiBufferStart_IT:status <- 0
	@DEBUG_VALUE: HAL_DMAEx_MultiBufferStart_IT:DataLength <- [DW_OP_plus_uconst 16] [$sp+0]
	@DEBUG_VALUE: HAL_DMAEx_MultiBufferStart_IT:hdma <- $r0
	.loc	6 0 5 is_stmt 0                 @ ../Libraries/STM32F4xx_HAL_Driver/Src/stm32f4xx_hal_dma_ex.c:0:5
	movw	r2, #24712
	movt	r2, #16386
	.loc	6 201 5                         @ ../Libraries/STM32F4xx_HAL_Driver/Src/stm32f4xx_hal_dma_ex.c:201:5
	cmp	r12, r2
	beq	.LBB1_99
.Ltmp132:
@ %bb.94:
	@DEBUG_VALUE: HAL_DMAEx_MultiBufferStart_IT:DstAddress <- [DW_OP_LLVM_entry_value 1] $r2
	@DEBUG_VALUE: HAL_DMAEx_MultiBufferStart_IT:SecondMemAddress <- [DW_OP_LLVM_entry_value 1] $r3
	@DEBUG_VALUE: HAL_DMAEx_MultiBufferStart_IT:SrcAddress <- [DW_OP_LLVM_entry_value 1] $r1
	@DEBUG_VALUE: HAL_DMAEx_MultiBufferStart_IT:status <- 0
	@DEBUG_VALUE: HAL_DMAEx_MultiBufferStart_IT:DataLength <- [DW_OP_plus_uconst 16] [$sp+0]
	@DEBUG_VALUE: HAL_DMAEx_MultiBufferStart_IT:hdma <- $r0
	.loc	6 0 5                           @ ../Libraries/STM32F4xx_HAL_Driver/Src/stm32f4xx_hal_dma_ex.c:0:5
	movw	r2, #24736
	movt	r2, #16386
	.loc	6 201 5                         @ ../Libraries/STM32F4xx_HAL_Driver/Src/stm32f4xx_hal_dma_ex.c:201:5
	cmp	r12, r2
	ite	eq
	moveq.w	r2, #65536
	movne.w	r2, #4194304
	str	r2, [r1, #4]
	b	.LBB1_103
.Ltmp133:
.LBB1_95:
	@DEBUG_VALUE: HAL_DMAEx_MultiBufferStart_IT:DstAddress <- [DW_OP_LLVM_entry_value 1] $r2
	@DEBUG_VALUE: HAL_DMAEx_MultiBufferStart_IT:SecondMemAddress <- [DW_OP_LLVM_entry_value 1] $r3
	@DEBUG_VALUE: HAL_DMAEx_MultiBufferStart_IT:SrcAddress <- [DW_OP_LLVM_entry_value 1] $r1
	@DEBUG_VALUE: HAL_DMAEx_MultiBufferStart_IT:status <- 0
	@DEBUG_VALUE: HAL_DMAEx_MultiBufferStart_IT:DataLength <- [DW_OP_plus_uconst 16] [$sp+0]
	@DEBUG_VALUE: HAL_DMAEx_MultiBufferStart_IT:hdma <- $r0
	cmp	r12, lr
	beq	.LBB1_100
.Ltmp134:
@ %bb.96:
	@DEBUG_VALUE: HAL_DMAEx_MultiBufferStart_IT:DstAddress <- [DW_OP_LLVM_entry_value 1] $r2
	@DEBUG_VALUE: HAL_DMAEx_MultiBufferStart_IT:SecondMemAddress <- [DW_OP_LLVM_entry_value 1] $r3
	@DEBUG_VALUE: HAL_DMAEx_MultiBufferStart_IT:SrcAddress <- [DW_OP_LLVM_entry_value 1] $r1
	@DEBUG_VALUE: HAL_DMAEx_MultiBufferStart_IT:status <- 0
	@DEBUG_VALUE: HAL_DMAEx_MultiBufferStart_IT:DataLength <- [DW_OP_plus_uconst 16] [$sp+0]
	@DEBUG_VALUE: HAL_DMAEx_MultiBufferStart_IT:hdma <- $r0
	.loc	6 0 5                           @ ../Libraries/STM32F4xx_HAL_Driver/Src/stm32f4xx_hal_dma_ex.c:0:5
	movw	r2, #24616
	movt	r2, #16386
	.loc	6 201 5                         @ ../Libraries/STM32F4xx_HAL_Driver/Src/stm32f4xx_hal_dma_ex.c:201:5
	cmp	r12, r2
	beq	.LBB1_101
.Ltmp135:
@ %bb.97:
	@DEBUG_VALUE: HAL_DMAEx_MultiBufferStart_IT:DstAddress <- [DW_OP_LLVM_entry_value 1] $r2
	@DEBUG_VALUE: HAL_DMAEx_MultiBufferStart_IT:SecondMemAddress <- [DW_OP_LLVM_entry_value 1] $r3
	@DEBUG_VALUE: HAL_DMAEx_MultiBufferStart_IT:SrcAddress <- [DW_OP_LLVM_entry_value 1] $r1
	@DEBUG_VALUE: HAL_DMAEx_MultiBufferStart_IT:status <- 0
	@DEBUG_VALUE: HAL_DMAEx_MultiBufferStart_IT:DataLength <- [DW_OP_plus_uconst 16] [$sp+0]
	@DEBUG_VALUE: HAL_DMAEx_MultiBufferStart_IT:hdma <- $r0
	.loc	6 0 5                           @ ../Libraries/STM32F4xx_HAL_Driver/Src/stm32f4xx_hal_dma_ex.c:0:5
	movw	r2, #24640
	movt	r2, #16386
	.loc	6 201 5                         @ ../Libraries/STM32F4xx_HAL_Driver/Src/stm32f4xx_hal_dma_ex.c:201:5
	cmp	r12, r2
	ite	eq
	moveq.w	r2, #65536
	movne.w	r2, #4194304
	b	.LBB1_102
.Ltmp136:
.LBB1_98:
	@DEBUG_VALUE: HAL_DMAEx_MultiBufferStart_IT:DstAddress <- [DW_OP_LLVM_entry_value 1] $r2
	@DEBUG_VALUE: HAL_DMAEx_MultiBufferStart_IT:SecondMemAddress <- [DW_OP_LLVM_entry_value 1] $r3
	@DEBUG_VALUE: HAL_DMAEx_MultiBufferStart_IT:SrcAddress <- [DW_OP_LLVM_entry_value 1] $r1
	@DEBUG_VALUE: HAL_DMAEx_MultiBufferStart_IT:status <- 0
	@DEBUG_VALUE: HAL_DMAEx_MultiBufferStart_IT:DataLength <- [DW_OP_plus_uconst 16] [$sp+0]
	@DEBUG_VALUE: HAL_DMAEx_MultiBufferStart_IT:hdma <- $r0
	.loc	6 0 5                           @ ../Libraries/STM32F4xx_HAL_Driver/Src/stm32f4xx_hal_dma_ex.c:0:5
	movs	r2, #1
	.loc	6 201 5                         @ ../Libraries/STM32F4xx_HAL_Driver/Src/stm32f4xx_hal_dma_ex.c:201:5
	str	r2, [r1, #4]
	b	.LBB1_103
.Ltmp137:
.LBB1_99:
	@DEBUG_VALUE: HAL_DMAEx_MultiBufferStart_IT:DstAddress <- [DW_OP_LLVM_entry_value 1] $r2
	@DEBUG_VALUE: HAL_DMAEx_MultiBufferStart_IT:SecondMemAddress <- [DW_OP_LLVM_entry_value 1] $r3
	@DEBUG_VALUE: HAL_DMAEx_MultiBufferStart_IT:SrcAddress <- [DW_OP_LLVM_entry_value 1] $r1
	@DEBUG_VALUE: HAL_DMAEx_MultiBufferStart_IT:status <- 0
	@DEBUG_VALUE: HAL_DMAEx_MultiBufferStart_IT:DataLength <- [DW_OP_plus_uconst 16] [$sp+0]
	@DEBUG_VALUE: HAL_DMAEx_MultiBufferStart_IT:hdma <- $r0
	.loc	6 0 5                           @ ../Libraries/STM32F4xx_HAL_Driver/Src/stm32f4xx_hal_dma_ex.c:0:5
	movs	r2, #64
	.loc	6 201 5                         @ ../Libraries/STM32F4xx_HAL_Driver/Src/stm32f4xx_hal_dma_ex.c:201:5
	str	r2, [r1, #4]
	b	.LBB1_103
.Ltmp138:
.LBB1_100:
	@DEBUG_VALUE: HAL_DMAEx_MultiBufferStart_IT:DstAddress <- [DW_OP_LLVM_entry_value 1] $r2
	@DEBUG_VALUE: HAL_DMAEx_MultiBufferStart_IT:SecondMemAddress <- [DW_OP_LLVM_entry_value 1] $r3
	@DEBUG_VALUE: HAL_DMAEx_MultiBufferStart_IT:SrcAddress <- [DW_OP_LLVM_entry_value 1] $r1
	@DEBUG_VALUE: HAL_DMAEx_MultiBufferStart_IT:status <- 0
	@DEBUG_VALUE: HAL_DMAEx_MultiBufferStart_IT:DataLength <- [DW_OP_plus_uconst 16] [$sp+0]
	@DEBUG_VALUE: HAL_DMAEx_MultiBufferStart_IT:hdma <- $r0
	.loc	6 0 5                           @ ../Libraries/STM32F4xx_HAL_Driver/Src/stm32f4xx_hal_dma_ex.c:0:5
	movs	r2, #1
	b	.LBB1_102
.Ltmp139:
.LBB1_101:
	@DEBUG_VALUE: HAL_DMAEx_MultiBufferStart_IT:DstAddress <- [DW_OP_LLVM_entry_value 1] $r2
	@DEBUG_VALUE: HAL_DMAEx_MultiBufferStart_IT:SecondMemAddress <- [DW_OP_LLVM_entry_value 1] $r3
	@DEBUG_VALUE: HAL_DMAEx_MultiBufferStart_IT:SrcAddress <- [DW_OP_LLVM_entry_value 1] $r1
	@DEBUG_VALUE: HAL_DMAEx_MultiBufferStart_IT:status <- 0
	@DEBUG_VALUE: HAL_DMAEx_MultiBufferStart_IT:DataLength <- [DW_OP_plus_uconst 16] [$sp+0]
	@DEBUG_VALUE: HAL_DMAEx_MultiBufferStart_IT:hdma <- $r0
	movs	r2, #64
.Ltmp140:
.LBB1_102:
	@DEBUG_VALUE: HAL_DMAEx_MultiBufferStart_IT:DstAddress <- [DW_OP_LLVM_entry_value 1] $r2
	@DEBUG_VALUE: HAL_DMAEx_MultiBufferStart_IT:SecondMemAddress <- [DW_OP_LLVM_entry_value 1] $r3
	@DEBUG_VALUE: HAL_DMAEx_MultiBufferStart_IT:SrcAddress <- [DW_OP_LLVM_entry_value 1] $r1
	@DEBUG_VALUE: HAL_DMAEx_MultiBufferStart_IT:status <- 0
	@DEBUG_VALUE: HAL_DMAEx_MultiBufferStart_IT:DataLength <- [DW_OP_plus_uconst 16] [$sp+0]
	@DEBUG_VALUE: HAL_DMAEx_MultiBufferStart_IT:hdma <- $r0
	.loc	6 201 5                         @ ../Libraries/STM32F4xx_HAL_Driver/Src/stm32f4xx_hal_dma_ex.c:201:5
	str	r2, [r1]
.Ltmp141:
.LBB1_103:
	@DEBUG_VALUE: HAL_DMAEx_MultiBufferStart_IT:DstAddress <- [DW_OP_LLVM_entry_value 1] $r2
	@DEBUG_VALUE: HAL_DMAEx_MultiBufferStart_IT:SecondMemAddress <- [DW_OP_LLVM_entry_value 1] $r3
	@DEBUG_VALUE: HAL_DMAEx_MultiBufferStart_IT:SrcAddress <- [DW_OP_LLVM_entry_value 1] $r1
	@DEBUG_VALUE: HAL_DMAEx_MultiBufferStart_IT:status <- 0
	@DEBUG_VALUE: HAL_DMAEx_MultiBufferStart_IT:DataLength <- [DW_OP_plus_uconst 16] [$sp+0]
	@DEBUG_VALUE: HAL_DMAEx_MultiBufferStart_IT:hdma <- $r0
	.loc	6 204 25 is_stmt 1              @ ../Libraries/STM32F4xx_HAL_Driver/Src/stm32f4xx_hal_dma_ex.c:204:25
	ldr.w	r1, [r12]
	orr	r1, r1, #22
	str.w	r1, [r12]
	.loc	6 205 25                        @ ../Libraries/STM32F4xx_HAL_Driver/Src/stm32f4xx_hal_dma_ex.c:205:25
	ldr.w	r1, [r12, #20]
	orr	r1, r1, #128
	str.w	r1, [r12, #20]
.Ltmp142:
	.loc	6 207 15                        @ ../Libraries/STM32F4xx_HAL_Driver/Src/stm32f4xx_hal_dma_ex.c:207:15
	ldr	r1, [r0, #64]
	.loc	6 207 45 is_stmt 0              @ ../Libraries/STM32F4xx_HAL_Driver/Src/stm32f4xx_hal_dma_ex.c:207:45
	cbnz	r1, .LBB1_105
.Ltmp143:
@ %bb.104:
	@DEBUG_VALUE: HAL_DMAEx_MultiBufferStart_IT:DstAddress <- [DW_OP_LLVM_entry_value 1] $r2
	@DEBUG_VALUE: HAL_DMAEx_MultiBufferStart_IT:SecondMemAddress <- [DW_OP_LLVM_entry_value 1] $r3
	@DEBUG_VALUE: HAL_DMAEx_MultiBufferStart_IT:SrcAddress <- [DW_OP_LLVM_entry_value 1] $r1
	@DEBUG_VALUE: HAL_DMAEx_MultiBufferStart_IT:status <- 0
	@DEBUG_VALUE: HAL_DMAEx_MultiBufferStart_IT:DataLength <- [DW_OP_plus_uconst 16] [$sp+0]
	@DEBUG_VALUE: HAL_DMAEx_MultiBufferStart_IT:hdma <- $r0
	.loc	6 207 55                        @ ../Libraries/STM32F4xx_HAL_Driver/Src/stm32f4xx_hal_dma_ex.c:207:55
	ldr	r0, [r0, #72]
.Ltmp144:
	@DEBUG_VALUE: HAL_DMAEx_MultiBufferStart_IT:hdma <- [DW_OP_LLVM_entry_value 1] $r0
	.loc	6 207 8                         @ ../Libraries/STM32F4xx_HAL_Driver/Src/stm32f4xx_hal_dma_ex.c:207:8
	cbz	r0, .LBB1_106
.Ltmp145:
.LBB1_105:
	@DEBUG_VALUE: HAL_DMAEx_MultiBufferStart_IT:DstAddress <- [DW_OP_LLVM_entry_value 1] $r2
	@DEBUG_VALUE: HAL_DMAEx_MultiBufferStart_IT:SecondMemAddress <- [DW_OP_LLVM_entry_value 1] $r3
	@DEBUG_VALUE: HAL_DMAEx_MultiBufferStart_IT:SrcAddress <- [DW_OP_LLVM_entry_value 1] $r1
	@DEBUG_VALUE: HAL_DMAEx_MultiBufferStart_IT:status <- 0
	@DEBUG_VALUE: HAL_DMAEx_MultiBufferStart_IT:DataLength <- [DW_OP_plus_uconst 16] [$sp+0]
	.loc	6 209 27 is_stmt 1              @ ../Libraries/STM32F4xx_HAL_Driver/Src/stm32f4xx_hal_dma_ex.c:209:27
	ldr.w	r0, [r12]
	orr	r0, r0, #8
	str.w	r0, [r12]
.Ltmp146:
.LBB1_106:
	@DEBUG_VALUE: HAL_DMAEx_MultiBufferStart_IT:DstAddress <- [DW_OP_LLVM_entry_value 1] $r2
	@DEBUG_VALUE: HAL_DMAEx_MultiBufferStart_IT:SecondMemAddress <- [DW_OP_LLVM_entry_value 1] $r3
	@DEBUG_VALUE: HAL_DMAEx_MultiBufferStart_IT:SrcAddress <- [DW_OP_LLVM_entry_value 1] $r1
	@DEBUG_VALUE: HAL_DMAEx_MultiBufferStart_IT:status <- 0
	@DEBUG_VALUE: HAL_DMAEx_MultiBufferStart_IT:DataLength <- [DW_OP_plus_uconst 16] [$sp+0]
	.loc	6 213 5                         @ ../Libraries/STM32F4xx_HAL_Driver/Src/stm32f4xx_hal_dma_ex.c:213:5
	ldr.w	r0, [r12]
	orr	r0, r0, #1
	str.w	r0, [r12]
	movs	r0, #0
.Ltmp147:
	.loc	6 224 1                         @ ../Libraries/STM32F4xx_HAL_Driver/Src/stm32f4xx_hal_dma_ex.c:224:1
	pop	{r4, r5, r6, pc}
.Ltmp148:
.Lfunc_end1:
	.size	HAL_DMAEx_MultiBufferStart_IT, .Lfunc_end1-HAL_DMAEx_MultiBufferStart_IT
	.cfi_endproc
	.cantunwind
	.fnend
                                        @ -- End function
	.section	.text.HAL_DMAEx_ChangeMemory,"ax",%progbits
	.hidden	HAL_DMAEx_ChangeMemory          @ -- Begin function HAL_DMAEx_ChangeMemory
	.globl	HAL_DMAEx_ChangeMemory
	.p2align	2
	.type	HAL_DMAEx_ChangeMemory,%function
	.code	16                              @ @HAL_DMAEx_ChangeMemory
	.thumb_func
HAL_DMAEx_ChangeMemory:
.Lfunc_begin2:
	.loc	6 241 0                         @ ../Libraries/STM32F4xx_HAL_Driver/Src/stm32f4xx_hal_dma_ex.c:241:0
	.fnstart
	.cfi_startproc
@ %bb.0:
	@DEBUG_VALUE: HAL_DMAEx_ChangeMemory:hdma <- $r0
	@DEBUG_VALUE: HAL_DMAEx_ChangeMemory:Address <- $r1
	@DEBUG_VALUE: HAL_DMAEx_ChangeMemory:memory <- $r2
	.loc	6 0 0 is_stmt 0                 @ ../Libraries/STM32F4xx_HAL_Driver/Src/stm32f4xx_hal_dma_ex.c:0:0
	ldr.w	r12, [r0]
	movs	r3, #16
.Ltmp149:
	.loc	6 253 3 prologue_end is_stmt 1  @ ../Libraries/STM32F4xx_HAL_Driver/Src/stm32f4xx_hal_dma_ex.c:253:3
	movs	r0, #0
.Ltmp150:
	@DEBUG_VALUE: HAL_DMAEx_ChangeMemory:hdma <- [DW_OP_LLVM_entry_value 1] $r0
	.loc	6 242 6                         @ ../Libraries/STM32F4xx_HAL_Driver/Src/stm32f4xx_hal_dma_ex.c:242:6
	cmp	r2, #0
	it	eq
	moveq	r3, #12
.Ltmp151:
	.loc	6 0 0 is_stmt 0                 @ ../Libraries/STM32F4xx_HAL_Driver/Src/stm32f4xx_hal_dma_ex.c:0:0
	str.w	r1, [r12, r3]
.Ltmp152:
	.loc	6 253 3 is_stmt 1               @ ../Libraries/STM32F4xx_HAL_Driver/Src/stm32f4xx_hal_dma_ex.c:253:3
	bx	lr
.Ltmp153:
.Lfunc_end2:
	.size	HAL_DMAEx_ChangeMemory, .Lfunc_end2-HAL_DMAEx_ChangeMemory
	.cfi_endproc
	.cantunwind
	.fnend
                                        @ -- End function
	.section	".note.GNU-stack","",%progbits
	.eabi_attribute	30, 1	@ Tag_ABI_optimization_goals
	.ARM_attribute	16, 1	@ Tag_AV_eba